ARM GAS  C:\Users\xavie\AppData\Local\Temp\ccUw5nyp.s 			page 1


   1              		.cpu cortex-m3
   2              		.eabi_attribute 20, 1
   3              		.eabi_attribute 21, 1
   4              		.eabi_attribute 23, 3
   5              		.eabi_attribute 24, 1
   6              		.eabi_attribute 25, 1
   7              		.eabi_attribute 26, 1
   8              		.eabi_attribute 30, 6
   9              		.eabi_attribute 34, 1
  10              		.eabi_attribute 18, 4
  11              		.file	"engine.cpp"
  12              		.text
  13              	.Ltext0:
  14              		.cfi_sections	.debug_frame
  15              		.section	.rodata._ZStL19piecewise_construct,"a",%progbits
  16              		.align	2
  19              	_ZStL19piecewise_construct:
  20 0000 00       		.space	1
  21              		.section	.text._ZnwjPv,"axG",%progbits,_ZnwjPv,comdat
  22              		.align	1
  23              		.weak	_ZnwjPv
  24              		.syntax unified
  25              		.thumb
  26              		.thumb_func
  27              		.fpu softvfp
  29              	_ZnwjPv:
  30              	.LFB756:
  31              		.file 1 "c:\\nxp\\mcuxpressoide_10.2.1_795\\ide\\tools\\arm-none-eabi\\include\\c++\\7.2.1\\new"
   1:c:\nxp\mcuxpressoide_10.2.1_795\ide\tools\arm-none-eabi\include\c++\7.2.1\new **** // The -*- C++ -*- dynamic memory management header.
   2:c:\nxp\mcuxpressoide_10.2.1_795\ide\tools\arm-none-eabi\include\c++\7.2.1\new **** 
   3:c:\nxp\mcuxpressoide_10.2.1_795\ide\tools\arm-none-eabi\include\c++\7.2.1\new **** // Copyright (C) 1994-2017 Free Software Foundation, Inc.
   4:c:\nxp\mcuxpressoide_10.2.1_795\ide\tools\arm-none-eabi\include\c++\7.2.1\new **** 
   5:c:\nxp\mcuxpressoide_10.2.1_795\ide\tools\arm-none-eabi\include\c++\7.2.1\new **** // This file is part of GCC.
   6:c:\nxp\mcuxpressoide_10.2.1_795\ide\tools\arm-none-eabi\include\c++\7.2.1\new **** //
   7:c:\nxp\mcuxpressoide_10.2.1_795\ide\tools\arm-none-eabi\include\c++\7.2.1\new **** // GCC is free software; you can redistribute it and/or modify
   8:c:\nxp\mcuxpressoide_10.2.1_795\ide\tools\arm-none-eabi\include\c++\7.2.1\new **** // it under the terms of the GNU General Public License as published by
   9:c:\nxp\mcuxpressoide_10.2.1_795\ide\tools\arm-none-eabi\include\c++\7.2.1\new **** // the Free Software Foundation; either version 3, or (at your option)
  10:c:\nxp\mcuxpressoide_10.2.1_795\ide\tools\arm-none-eabi\include\c++\7.2.1\new **** // any later version.
  11:c:\nxp\mcuxpressoide_10.2.1_795\ide\tools\arm-none-eabi\include\c++\7.2.1\new **** // 
  12:c:\nxp\mcuxpressoide_10.2.1_795\ide\tools\arm-none-eabi\include\c++\7.2.1\new **** // GCC is distributed in the hope that it will be useful,
  13:c:\nxp\mcuxpressoide_10.2.1_795\ide\tools\arm-none-eabi\include\c++\7.2.1\new **** // but WITHOUT ANY WARRANTY; without even the implied warranty of
  14:c:\nxp\mcuxpressoide_10.2.1_795\ide\tools\arm-none-eabi\include\c++\7.2.1\new **** // MERCHANTABILITY or FITNESS FOR A PARTICULAR PURPOSE.  See the
  15:c:\nxp\mcuxpressoide_10.2.1_795\ide\tools\arm-none-eabi\include\c++\7.2.1\new **** // GNU General Public License for more details.
  16:c:\nxp\mcuxpressoide_10.2.1_795\ide\tools\arm-none-eabi\include\c++\7.2.1\new **** // 
  17:c:\nxp\mcuxpressoide_10.2.1_795\ide\tools\arm-none-eabi\include\c++\7.2.1\new **** // Under Section 7 of GPL version 3, you are granted additional
  18:c:\nxp\mcuxpressoide_10.2.1_795\ide\tools\arm-none-eabi\include\c++\7.2.1\new **** // permissions described in the GCC Runtime Library Exception, version
  19:c:\nxp\mcuxpressoide_10.2.1_795\ide\tools\arm-none-eabi\include\c++\7.2.1\new **** // 3.1, as published by the Free Software Foundation.
  20:c:\nxp\mcuxpressoide_10.2.1_795\ide\tools\arm-none-eabi\include\c++\7.2.1\new **** 
  21:c:\nxp\mcuxpressoide_10.2.1_795\ide\tools\arm-none-eabi\include\c++\7.2.1\new **** // You should have received a copy of the GNU General Public License and
  22:c:\nxp\mcuxpressoide_10.2.1_795\ide\tools\arm-none-eabi\include\c++\7.2.1\new **** // a copy of the GCC Runtime Library Exception along with this program;
  23:c:\nxp\mcuxpressoide_10.2.1_795\ide\tools\arm-none-eabi\include\c++\7.2.1\new **** // see the files COPYING3 and COPYING.RUNTIME respectively.  If not, see
  24:c:\nxp\mcuxpressoide_10.2.1_795\ide\tools\arm-none-eabi\include\c++\7.2.1\new **** // <http://www.gnu.org/licenses/>.
  25:c:\nxp\mcuxpressoide_10.2.1_795\ide\tools\arm-none-eabi\include\c++\7.2.1\new **** 
  26:c:\nxp\mcuxpressoide_10.2.1_795\ide\tools\arm-none-eabi\include\c++\7.2.1\new **** /** @file new
  27:c:\nxp\mcuxpressoide_10.2.1_795\ide\tools\arm-none-eabi\include\c++\7.2.1\new ****  *  This is a Standard C++ Library header.
  28:c:\nxp\mcuxpressoide_10.2.1_795\ide\tools\arm-none-eabi\include\c++\7.2.1\new ****  *
  29:c:\nxp\mcuxpressoide_10.2.1_795\ide\tools\arm-none-eabi\include\c++\7.2.1\new ****  *  The header @c new defines several functions to manage dynamic memory and
ARM GAS  C:\Users\xavie\AppData\Local\Temp\ccUw5nyp.s 			page 2


  30:c:\nxp\mcuxpressoide_10.2.1_795\ide\tools\arm-none-eabi\include\c++\7.2.1\new ****  *  handling memory allocation errors; see
  31:c:\nxp\mcuxpressoide_10.2.1_795\ide\tools\arm-none-eabi\include\c++\7.2.1\new ****  *  http://gcc.gnu.org/onlinedocs/libstdc++/18_support/howto.html#4 for more.
  32:c:\nxp\mcuxpressoide_10.2.1_795\ide\tools\arm-none-eabi\include\c++\7.2.1\new ****  */
  33:c:\nxp\mcuxpressoide_10.2.1_795\ide\tools\arm-none-eabi\include\c++\7.2.1\new **** 
  34:c:\nxp\mcuxpressoide_10.2.1_795\ide\tools\arm-none-eabi\include\c++\7.2.1\new **** #ifndef _NEW
  35:c:\nxp\mcuxpressoide_10.2.1_795\ide\tools\arm-none-eabi\include\c++\7.2.1\new **** #define _NEW
  36:c:\nxp\mcuxpressoide_10.2.1_795\ide\tools\arm-none-eabi\include\c++\7.2.1\new **** 
  37:c:\nxp\mcuxpressoide_10.2.1_795\ide\tools\arm-none-eabi\include\c++\7.2.1\new **** #pragma GCC system_header
  38:c:\nxp\mcuxpressoide_10.2.1_795\ide\tools\arm-none-eabi\include\c++\7.2.1\new **** 
  39:c:\nxp\mcuxpressoide_10.2.1_795\ide\tools\arm-none-eabi\include\c++\7.2.1\new **** #include <bits/c++config.h>
  40:c:\nxp\mcuxpressoide_10.2.1_795\ide\tools\arm-none-eabi\include\c++\7.2.1\new **** #include <exception>
  41:c:\nxp\mcuxpressoide_10.2.1_795\ide\tools\arm-none-eabi\include\c++\7.2.1\new **** 
  42:c:\nxp\mcuxpressoide_10.2.1_795\ide\tools\arm-none-eabi\include\c++\7.2.1\new **** #pragma GCC visibility push(default)
  43:c:\nxp\mcuxpressoide_10.2.1_795\ide\tools\arm-none-eabi\include\c++\7.2.1\new **** 
  44:c:\nxp\mcuxpressoide_10.2.1_795\ide\tools\arm-none-eabi\include\c++\7.2.1\new **** extern "C++" {
  45:c:\nxp\mcuxpressoide_10.2.1_795\ide\tools\arm-none-eabi\include\c++\7.2.1\new **** 
  46:c:\nxp\mcuxpressoide_10.2.1_795\ide\tools\arm-none-eabi\include\c++\7.2.1\new **** namespace std 
  47:c:\nxp\mcuxpressoide_10.2.1_795\ide\tools\arm-none-eabi\include\c++\7.2.1\new **** {
  48:c:\nxp\mcuxpressoide_10.2.1_795\ide\tools\arm-none-eabi\include\c++\7.2.1\new ****   /**
  49:c:\nxp\mcuxpressoide_10.2.1_795\ide\tools\arm-none-eabi\include\c++\7.2.1\new ****    *  @brief  Exception possibly thrown by @c new.
  50:c:\nxp\mcuxpressoide_10.2.1_795\ide\tools\arm-none-eabi\include\c++\7.2.1\new ****    *  @ingroup exceptions
  51:c:\nxp\mcuxpressoide_10.2.1_795\ide\tools\arm-none-eabi\include\c++\7.2.1\new ****    *
  52:c:\nxp\mcuxpressoide_10.2.1_795\ide\tools\arm-none-eabi\include\c++\7.2.1\new ****    *  @c bad_alloc (or classes derived from it) is used to report allocation
  53:c:\nxp\mcuxpressoide_10.2.1_795\ide\tools\arm-none-eabi\include\c++\7.2.1\new ****    *  errors from the throwing forms of @c new.  */
  54:c:\nxp\mcuxpressoide_10.2.1_795\ide\tools\arm-none-eabi\include\c++\7.2.1\new ****   class bad_alloc : public exception 
  55:c:\nxp\mcuxpressoide_10.2.1_795\ide\tools\arm-none-eabi\include\c++\7.2.1\new ****   {
  56:c:\nxp\mcuxpressoide_10.2.1_795\ide\tools\arm-none-eabi\include\c++\7.2.1\new ****   public:
  57:c:\nxp\mcuxpressoide_10.2.1_795\ide\tools\arm-none-eabi\include\c++\7.2.1\new ****     bad_alloc() throw() { }
  58:c:\nxp\mcuxpressoide_10.2.1_795\ide\tools\arm-none-eabi\include\c++\7.2.1\new **** 
  59:c:\nxp\mcuxpressoide_10.2.1_795\ide\tools\arm-none-eabi\include\c++\7.2.1\new ****     // This declaration is not useless:
  60:c:\nxp\mcuxpressoide_10.2.1_795\ide\tools\arm-none-eabi\include\c++\7.2.1\new ****     // http://gcc.gnu.org/onlinedocs/gcc-3.0.2/gcc_6.html#SEC118
  61:c:\nxp\mcuxpressoide_10.2.1_795\ide\tools\arm-none-eabi\include\c++\7.2.1\new ****     virtual ~bad_alloc() throw();
  62:c:\nxp\mcuxpressoide_10.2.1_795\ide\tools\arm-none-eabi\include\c++\7.2.1\new **** 
  63:c:\nxp\mcuxpressoide_10.2.1_795\ide\tools\arm-none-eabi\include\c++\7.2.1\new ****     // See comment in eh_exception.cc.
  64:c:\nxp\mcuxpressoide_10.2.1_795\ide\tools\arm-none-eabi\include\c++\7.2.1\new ****     virtual const char* what() const throw();
  65:c:\nxp\mcuxpressoide_10.2.1_795\ide\tools\arm-none-eabi\include\c++\7.2.1\new ****   };
  66:c:\nxp\mcuxpressoide_10.2.1_795\ide\tools\arm-none-eabi\include\c++\7.2.1\new **** 
  67:c:\nxp\mcuxpressoide_10.2.1_795\ide\tools\arm-none-eabi\include\c++\7.2.1\new **** #if __cplusplus >= 201103L
  68:c:\nxp\mcuxpressoide_10.2.1_795\ide\tools\arm-none-eabi\include\c++\7.2.1\new ****   class bad_array_new_length : public bad_alloc
  69:c:\nxp\mcuxpressoide_10.2.1_795\ide\tools\arm-none-eabi\include\c++\7.2.1\new ****   {
  70:c:\nxp\mcuxpressoide_10.2.1_795\ide\tools\arm-none-eabi\include\c++\7.2.1\new ****   public:
  71:c:\nxp\mcuxpressoide_10.2.1_795\ide\tools\arm-none-eabi\include\c++\7.2.1\new ****     bad_array_new_length() throw() { };
  72:c:\nxp\mcuxpressoide_10.2.1_795\ide\tools\arm-none-eabi\include\c++\7.2.1\new **** 
  73:c:\nxp\mcuxpressoide_10.2.1_795\ide\tools\arm-none-eabi\include\c++\7.2.1\new ****     // This declaration is not useless:
  74:c:\nxp\mcuxpressoide_10.2.1_795\ide\tools\arm-none-eabi\include\c++\7.2.1\new ****     // http://gcc.gnu.org/onlinedocs/gcc-3.0.2/gcc_6.html#SEC118
  75:c:\nxp\mcuxpressoide_10.2.1_795\ide\tools\arm-none-eabi\include\c++\7.2.1\new ****     virtual ~bad_array_new_length() throw();
  76:c:\nxp\mcuxpressoide_10.2.1_795\ide\tools\arm-none-eabi\include\c++\7.2.1\new **** 
  77:c:\nxp\mcuxpressoide_10.2.1_795\ide\tools\arm-none-eabi\include\c++\7.2.1\new ****     // See comment in eh_exception.cc.
  78:c:\nxp\mcuxpressoide_10.2.1_795\ide\tools\arm-none-eabi\include\c++\7.2.1\new ****     virtual const char* what() const throw();
  79:c:\nxp\mcuxpressoide_10.2.1_795\ide\tools\arm-none-eabi\include\c++\7.2.1\new ****   };
  80:c:\nxp\mcuxpressoide_10.2.1_795\ide\tools\arm-none-eabi\include\c++\7.2.1\new **** #endif
  81:c:\nxp\mcuxpressoide_10.2.1_795\ide\tools\arm-none-eabi\include\c++\7.2.1\new **** 
  82:c:\nxp\mcuxpressoide_10.2.1_795\ide\tools\arm-none-eabi\include\c++\7.2.1\new **** #if __cpp_aligned_new
  83:c:\nxp\mcuxpressoide_10.2.1_795\ide\tools\arm-none-eabi\include\c++\7.2.1\new ****   enum class align_val_t: size_t {};
  84:c:\nxp\mcuxpressoide_10.2.1_795\ide\tools\arm-none-eabi\include\c++\7.2.1\new **** #endif
  85:c:\nxp\mcuxpressoide_10.2.1_795\ide\tools\arm-none-eabi\include\c++\7.2.1\new **** 
  86:c:\nxp\mcuxpressoide_10.2.1_795\ide\tools\arm-none-eabi\include\c++\7.2.1\new ****   struct nothrow_t
ARM GAS  C:\Users\xavie\AppData\Local\Temp\ccUw5nyp.s 			page 3


  87:c:\nxp\mcuxpressoide_10.2.1_795\ide\tools\arm-none-eabi\include\c++\7.2.1\new ****   {
  88:c:\nxp\mcuxpressoide_10.2.1_795\ide\tools\arm-none-eabi\include\c++\7.2.1\new **** #if __cplusplus >= 201103L
  89:c:\nxp\mcuxpressoide_10.2.1_795\ide\tools\arm-none-eabi\include\c++\7.2.1\new ****     explicit nothrow_t() = default;
  90:c:\nxp\mcuxpressoide_10.2.1_795\ide\tools\arm-none-eabi\include\c++\7.2.1\new **** #endif
  91:c:\nxp\mcuxpressoide_10.2.1_795\ide\tools\arm-none-eabi\include\c++\7.2.1\new ****   };
  92:c:\nxp\mcuxpressoide_10.2.1_795\ide\tools\arm-none-eabi\include\c++\7.2.1\new **** 
  93:c:\nxp\mcuxpressoide_10.2.1_795\ide\tools\arm-none-eabi\include\c++\7.2.1\new ****   extern const nothrow_t nothrow;
  94:c:\nxp\mcuxpressoide_10.2.1_795\ide\tools\arm-none-eabi\include\c++\7.2.1\new **** 
  95:c:\nxp\mcuxpressoide_10.2.1_795\ide\tools\arm-none-eabi\include\c++\7.2.1\new ****   /** If you write your own error handler to be called by @c new, it must
  96:c:\nxp\mcuxpressoide_10.2.1_795\ide\tools\arm-none-eabi\include\c++\7.2.1\new ****    *  be of this type.  */
  97:c:\nxp\mcuxpressoide_10.2.1_795\ide\tools\arm-none-eabi\include\c++\7.2.1\new ****   typedef void (*new_handler)();
  98:c:\nxp\mcuxpressoide_10.2.1_795\ide\tools\arm-none-eabi\include\c++\7.2.1\new **** 
  99:c:\nxp\mcuxpressoide_10.2.1_795\ide\tools\arm-none-eabi\include\c++\7.2.1\new ****   /// Takes a replacement handler as the argument, returns the
 100:c:\nxp\mcuxpressoide_10.2.1_795\ide\tools\arm-none-eabi\include\c++\7.2.1\new ****   /// previous handler.
 101:c:\nxp\mcuxpressoide_10.2.1_795\ide\tools\arm-none-eabi\include\c++\7.2.1\new ****   new_handler set_new_handler(new_handler) throw();
 102:c:\nxp\mcuxpressoide_10.2.1_795\ide\tools\arm-none-eabi\include\c++\7.2.1\new **** 
 103:c:\nxp\mcuxpressoide_10.2.1_795\ide\tools\arm-none-eabi\include\c++\7.2.1\new **** #if __cplusplus >= 201103L
 104:c:\nxp\mcuxpressoide_10.2.1_795\ide\tools\arm-none-eabi\include\c++\7.2.1\new ****   /// Return the current new handler.
 105:c:\nxp\mcuxpressoide_10.2.1_795\ide\tools\arm-none-eabi\include\c++\7.2.1\new ****   new_handler get_new_handler() noexcept;
 106:c:\nxp\mcuxpressoide_10.2.1_795\ide\tools\arm-none-eabi\include\c++\7.2.1\new **** #endif
 107:c:\nxp\mcuxpressoide_10.2.1_795\ide\tools\arm-none-eabi\include\c++\7.2.1\new **** } // namespace std
 108:c:\nxp\mcuxpressoide_10.2.1_795\ide\tools\arm-none-eabi\include\c++\7.2.1\new **** 
 109:c:\nxp\mcuxpressoide_10.2.1_795\ide\tools\arm-none-eabi\include\c++\7.2.1\new **** //@{
 110:c:\nxp\mcuxpressoide_10.2.1_795\ide\tools\arm-none-eabi\include\c++\7.2.1\new **** /** These are replaceable signatures:
 111:c:\nxp\mcuxpressoide_10.2.1_795\ide\tools\arm-none-eabi\include\c++\7.2.1\new ****  *  - normal single new and delete (no arguments, throw @c bad_alloc on error)
 112:c:\nxp\mcuxpressoide_10.2.1_795\ide\tools\arm-none-eabi\include\c++\7.2.1\new ****  *  - normal array new and delete (same)
 113:c:\nxp\mcuxpressoide_10.2.1_795\ide\tools\arm-none-eabi\include\c++\7.2.1\new ****  *  - @c nothrow single new and delete (take a @c nothrow argument, return
 114:c:\nxp\mcuxpressoide_10.2.1_795\ide\tools\arm-none-eabi\include\c++\7.2.1\new ****  *    @c NULL on error)
 115:c:\nxp\mcuxpressoide_10.2.1_795\ide\tools\arm-none-eabi\include\c++\7.2.1\new ****  *  - @c nothrow array new and delete (same)
 116:c:\nxp\mcuxpressoide_10.2.1_795\ide\tools\arm-none-eabi\include\c++\7.2.1\new ****  *
 117:c:\nxp\mcuxpressoide_10.2.1_795\ide\tools\arm-none-eabi\include\c++\7.2.1\new ****  *  Placement new and delete signatures (take a memory address argument,
 118:c:\nxp\mcuxpressoide_10.2.1_795\ide\tools\arm-none-eabi\include\c++\7.2.1\new ****  *  does nothing) may not be replaced by a user's program.
 119:c:\nxp\mcuxpressoide_10.2.1_795\ide\tools\arm-none-eabi\include\c++\7.2.1\new **** */
 120:c:\nxp\mcuxpressoide_10.2.1_795\ide\tools\arm-none-eabi\include\c++\7.2.1\new **** void* operator new(std::size_t) _GLIBCXX_THROW (std::bad_alloc)
 121:c:\nxp\mcuxpressoide_10.2.1_795\ide\tools\arm-none-eabi\include\c++\7.2.1\new ****   __attribute__((__externally_visible__));
 122:c:\nxp\mcuxpressoide_10.2.1_795\ide\tools\arm-none-eabi\include\c++\7.2.1\new **** void* operator new[](std::size_t) _GLIBCXX_THROW (std::bad_alloc)
 123:c:\nxp\mcuxpressoide_10.2.1_795\ide\tools\arm-none-eabi\include\c++\7.2.1\new ****   __attribute__((__externally_visible__));
 124:c:\nxp\mcuxpressoide_10.2.1_795\ide\tools\arm-none-eabi\include\c++\7.2.1\new **** void operator delete(void*) _GLIBCXX_USE_NOEXCEPT
 125:c:\nxp\mcuxpressoide_10.2.1_795\ide\tools\arm-none-eabi\include\c++\7.2.1\new ****   __attribute__((__externally_visible__));
 126:c:\nxp\mcuxpressoide_10.2.1_795\ide\tools\arm-none-eabi\include\c++\7.2.1\new **** void operator delete[](void*) _GLIBCXX_USE_NOEXCEPT
 127:c:\nxp\mcuxpressoide_10.2.1_795\ide\tools\arm-none-eabi\include\c++\7.2.1\new ****   __attribute__((__externally_visible__));
 128:c:\nxp\mcuxpressoide_10.2.1_795\ide\tools\arm-none-eabi\include\c++\7.2.1\new **** #if __cpp_sized_deallocation
 129:c:\nxp\mcuxpressoide_10.2.1_795\ide\tools\arm-none-eabi\include\c++\7.2.1\new **** void operator delete(void*, std::size_t) _GLIBCXX_USE_NOEXCEPT
 130:c:\nxp\mcuxpressoide_10.2.1_795\ide\tools\arm-none-eabi\include\c++\7.2.1\new ****   __attribute__((__externally_visible__));
 131:c:\nxp\mcuxpressoide_10.2.1_795\ide\tools\arm-none-eabi\include\c++\7.2.1\new **** void operator delete[](void*, std::size_t) _GLIBCXX_USE_NOEXCEPT
 132:c:\nxp\mcuxpressoide_10.2.1_795\ide\tools\arm-none-eabi\include\c++\7.2.1\new ****   __attribute__((__externally_visible__));
 133:c:\nxp\mcuxpressoide_10.2.1_795\ide\tools\arm-none-eabi\include\c++\7.2.1\new **** #endif
 134:c:\nxp\mcuxpressoide_10.2.1_795\ide\tools\arm-none-eabi\include\c++\7.2.1\new **** void* operator new(std::size_t, const std::nothrow_t&) _GLIBCXX_USE_NOEXCEPT
 135:c:\nxp\mcuxpressoide_10.2.1_795\ide\tools\arm-none-eabi\include\c++\7.2.1\new ****   __attribute__((__externally_visible__));
 136:c:\nxp\mcuxpressoide_10.2.1_795\ide\tools\arm-none-eabi\include\c++\7.2.1\new **** void* operator new[](std::size_t, const std::nothrow_t&) _GLIBCXX_USE_NOEXCEPT
 137:c:\nxp\mcuxpressoide_10.2.1_795\ide\tools\arm-none-eabi\include\c++\7.2.1\new ****   __attribute__((__externally_visible__));
 138:c:\nxp\mcuxpressoide_10.2.1_795\ide\tools\arm-none-eabi\include\c++\7.2.1\new **** void operator delete(void*, const std::nothrow_t&) _GLIBCXX_USE_NOEXCEPT
 139:c:\nxp\mcuxpressoide_10.2.1_795\ide\tools\arm-none-eabi\include\c++\7.2.1\new ****   __attribute__((__externally_visible__));
 140:c:\nxp\mcuxpressoide_10.2.1_795\ide\tools\arm-none-eabi\include\c++\7.2.1\new **** void operator delete[](void*, const std::nothrow_t&) _GLIBCXX_USE_NOEXCEPT
 141:c:\nxp\mcuxpressoide_10.2.1_795\ide\tools\arm-none-eabi\include\c++\7.2.1\new ****   __attribute__((__externally_visible__));
 142:c:\nxp\mcuxpressoide_10.2.1_795\ide\tools\arm-none-eabi\include\c++\7.2.1\new **** #if __cpp_aligned_new
 143:c:\nxp\mcuxpressoide_10.2.1_795\ide\tools\arm-none-eabi\include\c++\7.2.1\new **** void* operator new(std::size_t, std::align_val_t)
ARM GAS  C:\Users\xavie\AppData\Local\Temp\ccUw5nyp.s 			page 4


 144:c:\nxp\mcuxpressoide_10.2.1_795\ide\tools\arm-none-eabi\include\c++\7.2.1\new ****   __attribute__((__externally_visible__));
 145:c:\nxp\mcuxpressoide_10.2.1_795\ide\tools\arm-none-eabi\include\c++\7.2.1\new **** void* operator new(std::size_t, std::align_val_t, const std::nothrow_t&)
 146:c:\nxp\mcuxpressoide_10.2.1_795\ide\tools\arm-none-eabi\include\c++\7.2.1\new ****   _GLIBCXX_USE_NOEXCEPT __attribute__((__externally_visible__));
 147:c:\nxp\mcuxpressoide_10.2.1_795\ide\tools\arm-none-eabi\include\c++\7.2.1\new **** void operator delete(void*, std::align_val_t)
 148:c:\nxp\mcuxpressoide_10.2.1_795\ide\tools\arm-none-eabi\include\c++\7.2.1\new ****   _GLIBCXX_USE_NOEXCEPT __attribute__((__externally_visible__));
 149:c:\nxp\mcuxpressoide_10.2.1_795\ide\tools\arm-none-eabi\include\c++\7.2.1\new **** void operator delete(void*, std::align_val_t, const std::nothrow_t&)
 150:c:\nxp\mcuxpressoide_10.2.1_795\ide\tools\arm-none-eabi\include\c++\7.2.1\new ****   _GLIBCXX_USE_NOEXCEPT __attribute__((__externally_visible__));
 151:c:\nxp\mcuxpressoide_10.2.1_795\ide\tools\arm-none-eabi\include\c++\7.2.1\new **** void* operator new[](std::size_t, std::align_val_t)
 152:c:\nxp\mcuxpressoide_10.2.1_795\ide\tools\arm-none-eabi\include\c++\7.2.1\new ****   __attribute__((__externally_visible__));
 153:c:\nxp\mcuxpressoide_10.2.1_795\ide\tools\arm-none-eabi\include\c++\7.2.1\new **** void* operator new[](std::size_t, std::align_val_t, const std::nothrow_t&)
 154:c:\nxp\mcuxpressoide_10.2.1_795\ide\tools\arm-none-eabi\include\c++\7.2.1\new ****   _GLIBCXX_USE_NOEXCEPT __attribute__((__externally_visible__));
 155:c:\nxp\mcuxpressoide_10.2.1_795\ide\tools\arm-none-eabi\include\c++\7.2.1\new **** void operator delete[](void*, std::align_val_t)
 156:c:\nxp\mcuxpressoide_10.2.1_795\ide\tools\arm-none-eabi\include\c++\7.2.1\new ****   _GLIBCXX_USE_NOEXCEPT __attribute__((__externally_visible__));
 157:c:\nxp\mcuxpressoide_10.2.1_795\ide\tools\arm-none-eabi\include\c++\7.2.1\new **** void operator delete[](void*, std::align_val_t, const std::nothrow_t&)
 158:c:\nxp\mcuxpressoide_10.2.1_795\ide\tools\arm-none-eabi\include\c++\7.2.1\new ****   _GLIBCXX_USE_NOEXCEPT __attribute__((__externally_visible__));
 159:c:\nxp\mcuxpressoide_10.2.1_795\ide\tools\arm-none-eabi\include\c++\7.2.1\new **** #if __cpp_sized_deallocation
 160:c:\nxp\mcuxpressoide_10.2.1_795\ide\tools\arm-none-eabi\include\c++\7.2.1\new **** void operator delete(void*, std::size_t, std::align_val_t)
 161:c:\nxp\mcuxpressoide_10.2.1_795\ide\tools\arm-none-eabi\include\c++\7.2.1\new ****   _GLIBCXX_USE_NOEXCEPT __attribute__((__externally_visible__));
 162:c:\nxp\mcuxpressoide_10.2.1_795\ide\tools\arm-none-eabi\include\c++\7.2.1\new **** void operator delete[](void*, std::size_t, std::align_val_t)
 163:c:\nxp\mcuxpressoide_10.2.1_795\ide\tools\arm-none-eabi\include\c++\7.2.1\new ****   _GLIBCXX_USE_NOEXCEPT __attribute__((__externally_visible__));
 164:c:\nxp\mcuxpressoide_10.2.1_795\ide\tools\arm-none-eabi\include\c++\7.2.1\new **** #endif // __cpp_sized_deallocation
 165:c:\nxp\mcuxpressoide_10.2.1_795\ide\tools\arm-none-eabi\include\c++\7.2.1\new **** #endif // __cpp_aligned_new
 166:c:\nxp\mcuxpressoide_10.2.1_795\ide\tools\arm-none-eabi\include\c++\7.2.1\new **** 
 167:c:\nxp\mcuxpressoide_10.2.1_795\ide\tools\arm-none-eabi\include\c++\7.2.1\new **** // Default placement versions of operator new.
 168:c:\nxp\mcuxpressoide_10.2.1_795\ide\tools\arm-none-eabi\include\c++\7.2.1\new **** inline void* operator new(std::size_t, void* __p) _GLIBCXX_USE_NOEXCEPT
 169:c:\nxp\mcuxpressoide_10.2.1_795\ide\tools\arm-none-eabi\include\c++\7.2.1\new **** { return __p; }
  32              		.loc 1 169 0
  33              		.cfi_startproc
  34              		@ args = 0, pretend = 0, frame = 8
  35              		@ frame_needed = 1, uses_anonymous_args = 0
  36              		@ link register save eliminated.
  37 0000 80B4     		push	{r7}
  38              		.cfi_def_cfa_offset 4
  39              		.cfi_offset 7, -4
  40 0002 83B0     		sub	sp, sp, #12
  41              		.cfi_def_cfa_offset 16
  42 0004 00AF     		add	r7, sp, #0
  43              		.cfi_def_cfa_register 7
  44 0006 7860     		str	r0, [r7, #4]
  45 0008 3960     		str	r1, [r7]
  46              		.loc 1 169 0
  47 000a 3B68     		ldr	r3, [r7]
  48 000c 1846     		mov	r0, r3
  49 000e 0C37     		adds	r7, r7, #12
  50              		.cfi_def_cfa_offset 4
  51 0010 BD46     		mov	sp, r7
  52              		.cfi_def_cfa_register 13
  53              		@ sp needed
  54 0012 80BC     		pop	{r7}
  55              		.cfi_restore 7
  56              		.cfi_def_cfa_offset 0
  57 0014 7047     		bx	lr
  58              		.cfi_endproc
  59              	.LFE756:
  61              		.section	.text._ZL20__gthread_key_deletei,"ax",%progbits
  62              		.align	1
  63              		.syntax unified
ARM GAS  C:\Users\xavie\AppData\Local\Temp\ccUw5nyp.s 			page 5


  64              		.thumb
  65              		.thumb_func
  66              		.fpu softvfp
  68              	_ZL20__gthread_key_deletei:
  69              	.LFB913:
  70              		.file 2 "c:\\nxp\\mcuxpressoide_10.2.1_795\\ide\\tools\\arm-none-eabi\\include\\c++\\7.2.1\\arm-no
   1:c:\nxp\mcuxpressoide_10.2.1_795\ide\tools\arm-none-eabi\include\c++\7.2.1\arm-none-eabi\thumb\v7-m\bits\gthr-default.h **** /* Threads compatibility routines for libgcc2 and libobjc.  */
   2:c:\nxp\mcuxpressoide_10.2.1_795\ide\tools\arm-none-eabi\include\c++\7.2.1\arm-none-eabi\thumb\v7-m\bits\gthr-default.h **** /* Compile this one with gcc.  */
   3:c:\nxp\mcuxpressoide_10.2.1_795\ide\tools\arm-none-eabi\include\c++\7.2.1\arm-none-eabi\thumb\v7-m\bits\gthr-default.h **** /* Copyright (C) 1997-2017 Free Software Foundation, Inc.
   4:c:\nxp\mcuxpressoide_10.2.1_795\ide\tools\arm-none-eabi\include\c++\7.2.1\arm-none-eabi\thumb\v7-m\bits\gthr-default.h **** 
   5:c:\nxp\mcuxpressoide_10.2.1_795\ide\tools\arm-none-eabi\include\c++\7.2.1\arm-none-eabi\thumb\v7-m\bits\gthr-default.h **** This file is part of GCC.
   6:c:\nxp\mcuxpressoide_10.2.1_795\ide\tools\arm-none-eabi\include\c++\7.2.1\arm-none-eabi\thumb\v7-m\bits\gthr-default.h **** 
   7:c:\nxp\mcuxpressoide_10.2.1_795\ide\tools\arm-none-eabi\include\c++\7.2.1\arm-none-eabi\thumb\v7-m\bits\gthr-default.h **** GCC is free software; you can redistribute it and/or modify it under
   8:c:\nxp\mcuxpressoide_10.2.1_795\ide\tools\arm-none-eabi\include\c++\7.2.1\arm-none-eabi\thumb\v7-m\bits\gthr-default.h **** the terms of the GNU General Public License as published by the Free
   9:c:\nxp\mcuxpressoide_10.2.1_795\ide\tools\arm-none-eabi\include\c++\7.2.1\arm-none-eabi\thumb\v7-m\bits\gthr-default.h **** Software Foundation; either version 3, or (at your option) any later
  10:c:\nxp\mcuxpressoide_10.2.1_795\ide\tools\arm-none-eabi\include\c++\7.2.1\arm-none-eabi\thumb\v7-m\bits\gthr-default.h **** version.
  11:c:\nxp\mcuxpressoide_10.2.1_795\ide\tools\arm-none-eabi\include\c++\7.2.1\arm-none-eabi\thumb\v7-m\bits\gthr-default.h **** 
  12:c:\nxp\mcuxpressoide_10.2.1_795\ide\tools\arm-none-eabi\include\c++\7.2.1\arm-none-eabi\thumb\v7-m\bits\gthr-default.h **** GCC is distributed in the hope that it will be useful, but WITHOUT ANY
  13:c:\nxp\mcuxpressoide_10.2.1_795\ide\tools\arm-none-eabi\include\c++\7.2.1\arm-none-eabi\thumb\v7-m\bits\gthr-default.h **** WARRANTY; without even the implied warranty of MERCHANTABILITY or
  14:c:\nxp\mcuxpressoide_10.2.1_795\ide\tools\arm-none-eabi\include\c++\7.2.1\arm-none-eabi\thumb\v7-m\bits\gthr-default.h **** FITNESS FOR A PARTICULAR PURPOSE.  See the GNU General Public License
  15:c:\nxp\mcuxpressoide_10.2.1_795\ide\tools\arm-none-eabi\include\c++\7.2.1\arm-none-eabi\thumb\v7-m\bits\gthr-default.h **** for more details.
  16:c:\nxp\mcuxpressoide_10.2.1_795\ide\tools\arm-none-eabi\include\c++\7.2.1\arm-none-eabi\thumb\v7-m\bits\gthr-default.h **** 
  17:c:\nxp\mcuxpressoide_10.2.1_795\ide\tools\arm-none-eabi\include\c++\7.2.1\arm-none-eabi\thumb\v7-m\bits\gthr-default.h **** Under Section 7 of GPL version 3, you are granted additional
  18:c:\nxp\mcuxpressoide_10.2.1_795\ide\tools\arm-none-eabi\include\c++\7.2.1\arm-none-eabi\thumb\v7-m\bits\gthr-default.h **** permissions described in the GCC Runtime Library Exception, version
  19:c:\nxp\mcuxpressoide_10.2.1_795\ide\tools\arm-none-eabi\include\c++\7.2.1\arm-none-eabi\thumb\v7-m\bits\gthr-default.h **** 3.1, as published by the Free Software Foundation.
  20:c:\nxp\mcuxpressoide_10.2.1_795\ide\tools\arm-none-eabi\include\c++\7.2.1\arm-none-eabi\thumb\v7-m\bits\gthr-default.h **** 
  21:c:\nxp\mcuxpressoide_10.2.1_795\ide\tools\arm-none-eabi\include\c++\7.2.1\arm-none-eabi\thumb\v7-m\bits\gthr-default.h **** You should have received a copy of the GNU General Public License and
  22:c:\nxp\mcuxpressoide_10.2.1_795\ide\tools\arm-none-eabi\include\c++\7.2.1\arm-none-eabi\thumb\v7-m\bits\gthr-default.h **** a copy of the GCC Runtime Library Exception along with this program;
  23:c:\nxp\mcuxpressoide_10.2.1_795\ide\tools\arm-none-eabi\include\c++\7.2.1\arm-none-eabi\thumb\v7-m\bits\gthr-default.h **** see the files COPYING3 and COPYING.RUNTIME respectively.  If not, see
  24:c:\nxp\mcuxpressoide_10.2.1_795\ide\tools\arm-none-eabi\include\c++\7.2.1\arm-none-eabi\thumb\v7-m\bits\gthr-default.h **** <http://www.gnu.org/licenses/>.  */
  25:c:\nxp\mcuxpressoide_10.2.1_795\ide\tools\arm-none-eabi\include\c++\7.2.1\arm-none-eabi\thumb\v7-m\bits\gthr-default.h **** 
  26:c:\nxp\mcuxpressoide_10.2.1_795\ide\tools\arm-none-eabi\include\c++\7.2.1\arm-none-eabi\thumb\v7-m\bits\gthr-default.h **** #ifndef _GLIBCXX_GCC_GTHR_SINGLE_H
  27:c:\nxp\mcuxpressoide_10.2.1_795\ide\tools\arm-none-eabi\include\c++\7.2.1\arm-none-eabi\thumb\v7-m\bits\gthr-default.h **** #define _GLIBCXX_GCC_GTHR_SINGLE_H
  28:c:\nxp\mcuxpressoide_10.2.1_795\ide\tools\arm-none-eabi\include\c++\7.2.1\arm-none-eabi\thumb\v7-m\bits\gthr-default.h **** 
  29:c:\nxp\mcuxpressoide_10.2.1_795\ide\tools\arm-none-eabi\include\c++\7.2.1\arm-none-eabi\thumb\v7-m\bits\gthr-default.h **** /* Just provide compatibility for mutex handling.  */
  30:c:\nxp\mcuxpressoide_10.2.1_795\ide\tools\arm-none-eabi\include\c++\7.2.1\arm-none-eabi\thumb\v7-m\bits\gthr-default.h **** 
  31:c:\nxp\mcuxpressoide_10.2.1_795\ide\tools\arm-none-eabi\include\c++\7.2.1\arm-none-eabi\thumb\v7-m\bits\gthr-default.h **** typedef int __gthread_key_t;
  32:c:\nxp\mcuxpressoide_10.2.1_795\ide\tools\arm-none-eabi\include\c++\7.2.1\arm-none-eabi\thumb\v7-m\bits\gthr-default.h **** typedef int __gthread_once_t;
  33:c:\nxp\mcuxpressoide_10.2.1_795\ide\tools\arm-none-eabi\include\c++\7.2.1\arm-none-eabi\thumb\v7-m\bits\gthr-default.h **** typedef int __gthread_mutex_t;
  34:c:\nxp\mcuxpressoide_10.2.1_795\ide\tools\arm-none-eabi\include\c++\7.2.1\arm-none-eabi\thumb\v7-m\bits\gthr-default.h **** typedef int __gthread_recursive_mutex_t;
  35:c:\nxp\mcuxpressoide_10.2.1_795\ide\tools\arm-none-eabi\include\c++\7.2.1\arm-none-eabi\thumb\v7-m\bits\gthr-default.h **** 
  36:c:\nxp\mcuxpressoide_10.2.1_795\ide\tools\arm-none-eabi\include\c++\7.2.1\arm-none-eabi\thumb\v7-m\bits\gthr-default.h **** #define __GTHREAD_ONCE_INIT 0
  37:c:\nxp\mcuxpressoide_10.2.1_795\ide\tools\arm-none-eabi\include\c++\7.2.1\arm-none-eabi\thumb\v7-m\bits\gthr-default.h **** #define __GTHREAD_MUTEX_INIT 0
  38:c:\nxp\mcuxpressoide_10.2.1_795\ide\tools\arm-none-eabi\include\c++\7.2.1\arm-none-eabi\thumb\v7-m\bits\gthr-default.h **** #define __GTHREAD_MUTEX_INIT_FUNCTION(mx) do {} while (0)
  39:c:\nxp\mcuxpressoide_10.2.1_795\ide\tools\arm-none-eabi\include\c++\7.2.1\arm-none-eabi\thumb\v7-m\bits\gthr-default.h **** #define __GTHREAD_RECURSIVE_MUTEX_INIT 0
  40:c:\nxp\mcuxpressoide_10.2.1_795\ide\tools\arm-none-eabi\include\c++\7.2.1\arm-none-eabi\thumb\v7-m\bits\gthr-default.h **** 
  41:c:\nxp\mcuxpressoide_10.2.1_795\ide\tools\arm-none-eabi\include\c++\7.2.1\arm-none-eabi\thumb\v7-m\bits\gthr-default.h **** #define _GLIBCXX_UNUSED __attribute__((__unused__))
  42:c:\nxp\mcuxpressoide_10.2.1_795\ide\tools\arm-none-eabi\include\c++\7.2.1\arm-none-eabi\thumb\v7-m\bits\gthr-default.h **** 
  43:c:\nxp\mcuxpressoide_10.2.1_795\ide\tools\arm-none-eabi\include\c++\7.2.1\arm-none-eabi\thumb\v7-m\bits\gthr-default.h **** #ifdef _LIBOBJC
  44:c:\nxp\mcuxpressoide_10.2.1_795\ide\tools\arm-none-eabi\include\c++\7.2.1\arm-none-eabi\thumb\v7-m\bits\gthr-default.h **** 
  45:c:\nxp\mcuxpressoide_10.2.1_795\ide\tools\arm-none-eabi\include\c++\7.2.1\arm-none-eabi\thumb\v7-m\bits\gthr-default.h **** /* Thread local storage for a single thread */
  46:c:\nxp\mcuxpressoide_10.2.1_795\ide\tools\arm-none-eabi\include\c++\7.2.1\arm-none-eabi\thumb\v7-m\bits\gthr-default.h **** static void *thread_local_storage = NULL;
  47:c:\nxp\mcuxpressoide_10.2.1_795\ide\tools\arm-none-eabi\include\c++\7.2.1\arm-none-eabi\thumb\v7-m\bits\gthr-default.h **** 
  48:c:\nxp\mcuxpressoide_10.2.1_795\ide\tools\arm-none-eabi\include\c++\7.2.1\arm-none-eabi\thumb\v7-m\bits\gthr-default.h **** /* Backend initialization functions */
  49:c:\nxp\mcuxpressoide_10.2.1_795\ide\tools\arm-none-eabi\include\c++\7.2.1\arm-none-eabi\thumb\v7-m\bits\gthr-default.h **** 
  50:c:\nxp\mcuxpressoide_10.2.1_795\ide\tools\arm-none-eabi\include\c++\7.2.1\arm-none-eabi\thumb\v7-m\bits\gthr-default.h **** /* Initialize the threads subsystem.  */
  51:c:\nxp\mcuxpressoide_10.2.1_795\ide\tools\arm-none-eabi\include\c++\7.2.1\arm-none-eabi\thumb\v7-m\bits\gthr-default.h **** static inline int
ARM GAS  C:\Users\xavie\AppData\Local\Temp\ccUw5nyp.s 			page 6


  52:c:\nxp\mcuxpressoide_10.2.1_795\ide\tools\arm-none-eabi\include\c++\7.2.1\arm-none-eabi\thumb\v7-m\bits\gthr-default.h **** __gthread_objc_init_thread_system (void)
  53:c:\nxp\mcuxpressoide_10.2.1_795\ide\tools\arm-none-eabi\include\c++\7.2.1\arm-none-eabi\thumb\v7-m\bits\gthr-default.h **** {
  54:c:\nxp\mcuxpressoide_10.2.1_795\ide\tools\arm-none-eabi\include\c++\7.2.1\arm-none-eabi\thumb\v7-m\bits\gthr-default.h ****   /* No thread support available */
  55:c:\nxp\mcuxpressoide_10.2.1_795\ide\tools\arm-none-eabi\include\c++\7.2.1\arm-none-eabi\thumb\v7-m\bits\gthr-default.h ****   return -1;
  56:c:\nxp\mcuxpressoide_10.2.1_795\ide\tools\arm-none-eabi\include\c++\7.2.1\arm-none-eabi\thumb\v7-m\bits\gthr-default.h **** }
  57:c:\nxp\mcuxpressoide_10.2.1_795\ide\tools\arm-none-eabi\include\c++\7.2.1\arm-none-eabi\thumb\v7-m\bits\gthr-default.h **** 
  58:c:\nxp\mcuxpressoide_10.2.1_795\ide\tools\arm-none-eabi\include\c++\7.2.1\arm-none-eabi\thumb\v7-m\bits\gthr-default.h **** /* Close the threads subsystem.  */
  59:c:\nxp\mcuxpressoide_10.2.1_795\ide\tools\arm-none-eabi\include\c++\7.2.1\arm-none-eabi\thumb\v7-m\bits\gthr-default.h **** static inline int
  60:c:\nxp\mcuxpressoide_10.2.1_795\ide\tools\arm-none-eabi\include\c++\7.2.1\arm-none-eabi\thumb\v7-m\bits\gthr-default.h **** __gthread_objc_close_thread_system (void)
  61:c:\nxp\mcuxpressoide_10.2.1_795\ide\tools\arm-none-eabi\include\c++\7.2.1\arm-none-eabi\thumb\v7-m\bits\gthr-default.h **** {
  62:c:\nxp\mcuxpressoide_10.2.1_795\ide\tools\arm-none-eabi\include\c++\7.2.1\arm-none-eabi\thumb\v7-m\bits\gthr-default.h ****   /* No thread support available */
  63:c:\nxp\mcuxpressoide_10.2.1_795\ide\tools\arm-none-eabi\include\c++\7.2.1\arm-none-eabi\thumb\v7-m\bits\gthr-default.h ****   return -1;
  64:c:\nxp\mcuxpressoide_10.2.1_795\ide\tools\arm-none-eabi\include\c++\7.2.1\arm-none-eabi\thumb\v7-m\bits\gthr-default.h **** }
  65:c:\nxp\mcuxpressoide_10.2.1_795\ide\tools\arm-none-eabi\include\c++\7.2.1\arm-none-eabi\thumb\v7-m\bits\gthr-default.h **** 
  66:c:\nxp\mcuxpressoide_10.2.1_795\ide\tools\arm-none-eabi\include\c++\7.2.1\arm-none-eabi\thumb\v7-m\bits\gthr-default.h **** /* Backend thread functions */
  67:c:\nxp\mcuxpressoide_10.2.1_795\ide\tools\arm-none-eabi\include\c++\7.2.1\arm-none-eabi\thumb\v7-m\bits\gthr-default.h **** 
  68:c:\nxp\mcuxpressoide_10.2.1_795\ide\tools\arm-none-eabi\include\c++\7.2.1\arm-none-eabi\thumb\v7-m\bits\gthr-default.h **** /* Create a new thread of execution.  */
  69:c:\nxp\mcuxpressoide_10.2.1_795\ide\tools\arm-none-eabi\include\c++\7.2.1\arm-none-eabi\thumb\v7-m\bits\gthr-default.h **** static inline objc_thread_t
  70:c:\nxp\mcuxpressoide_10.2.1_795\ide\tools\arm-none-eabi\include\c++\7.2.1\arm-none-eabi\thumb\v7-m\bits\gthr-default.h **** __gthread_objc_thread_detach (void (* func)(void *), void * arg _GLIBCXX_UNUSED)
  71:c:\nxp\mcuxpressoide_10.2.1_795\ide\tools\arm-none-eabi\include\c++\7.2.1\arm-none-eabi\thumb\v7-m\bits\gthr-default.h **** {
  72:c:\nxp\mcuxpressoide_10.2.1_795\ide\tools\arm-none-eabi\include\c++\7.2.1\arm-none-eabi\thumb\v7-m\bits\gthr-default.h ****   /* No thread support available */
  73:c:\nxp\mcuxpressoide_10.2.1_795\ide\tools\arm-none-eabi\include\c++\7.2.1\arm-none-eabi\thumb\v7-m\bits\gthr-default.h ****   return NULL;
  74:c:\nxp\mcuxpressoide_10.2.1_795\ide\tools\arm-none-eabi\include\c++\7.2.1\arm-none-eabi\thumb\v7-m\bits\gthr-default.h **** }
  75:c:\nxp\mcuxpressoide_10.2.1_795\ide\tools\arm-none-eabi\include\c++\7.2.1\arm-none-eabi\thumb\v7-m\bits\gthr-default.h **** 
  76:c:\nxp\mcuxpressoide_10.2.1_795\ide\tools\arm-none-eabi\include\c++\7.2.1\arm-none-eabi\thumb\v7-m\bits\gthr-default.h **** /* Set the current thread's priority.  */
  77:c:\nxp\mcuxpressoide_10.2.1_795\ide\tools\arm-none-eabi\include\c++\7.2.1\arm-none-eabi\thumb\v7-m\bits\gthr-default.h **** static inline int
  78:c:\nxp\mcuxpressoide_10.2.1_795\ide\tools\arm-none-eabi\include\c++\7.2.1\arm-none-eabi\thumb\v7-m\bits\gthr-default.h **** __gthread_objc_thread_set_priority (int priority _GLIBCXX_UNUSED)
  79:c:\nxp\mcuxpressoide_10.2.1_795\ide\tools\arm-none-eabi\include\c++\7.2.1\arm-none-eabi\thumb\v7-m\bits\gthr-default.h **** {
  80:c:\nxp\mcuxpressoide_10.2.1_795\ide\tools\arm-none-eabi\include\c++\7.2.1\arm-none-eabi\thumb\v7-m\bits\gthr-default.h ****   /* No thread support available */
  81:c:\nxp\mcuxpressoide_10.2.1_795\ide\tools\arm-none-eabi\include\c++\7.2.1\arm-none-eabi\thumb\v7-m\bits\gthr-default.h ****   return -1;
  82:c:\nxp\mcuxpressoide_10.2.1_795\ide\tools\arm-none-eabi\include\c++\7.2.1\arm-none-eabi\thumb\v7-m\bits\gthr-default.h **** }
  83:c:\nxp\mcuxpressoide_10.2.1_795\ide\tools\arm-none-eabi\include\c++\7.2.1\arm-none-eabi\thumb\v7-m\bits\gthr-default.h **** 
  84:c:\nxp\mcuxpressoide_10.2.1_795\ide\tools\arm-none-eabi\include\c++\7.2.1\arm-none-eabi\thumb\v7-m\bits\gthr-default.h **** /* Return the current thread's priority.  */
  85:c:\nxp\mcuxpressoide_10.2.1_795\ide\tools\arm-none-eabi\include\c++\7.2.1\arm-none-eabi\thumb\v7-m\bits\gthr-default.h **** static inline int
  86:c:\nxp\mcuxpressoide_10.2.1_795\ide\tools\arm-none-eabi\include\c++\7.2.1\arm-none-eabi\thumb\v7-m\bits\gthr-default.h **** __gthread_objc_thread_get_priority (void)
  87:c:\nxp\mcuxpressoide_10.2.1_795\ide\tools\arm-none-eabi\include\c++\7.2.1\arm-none-eabi\thumb\v7-m\bits\gthr-default.h **** {
  88:c:\nxp\mcuxpressoide_10.2.1_795\ide\tools\arm-none-eabi\include\c++\7.2.1\arm-none-eabi\thumb\v7-m\bits\gthr-default.h ****   return OBJC_THREAD_INTERACTIVE_PRIORITY;
  89:c:\nxp\mcuxpressoide_10.2.1_795\ide\tools\arm-none-eabi\include\c++\7.2.1\arm-none-eabi\thumb\v7-m\bits\gthr-default.h **** }
  90:c:\nxp\mcuxpressoide_10.2.1_795\ide\tools\arm-none-eabi\include\c++\7.2.1\arm-none-eabi\thumb\v7-m\bits\gthr-default.h **** 
  91:c:\nxp\mcuxpressoide_10.2.1_795\ide\tools\arm-none-eabi\include\c++\7.2.1\arm-none-eabi\thumb\v7-m\bits\gthr-default.h **** /* Yield our process time to another thread.  */
  92:c:\nxp\mcuxpressoide_10.2.1_795\ide\tools\arm-none-eabi\include\c++\7.2.1\arm-none-eabi\thumb\v7-m\bits\gthr-default.h **** static inline void
  93:c:\nxp\mcuxpressoide_10.2.1_795\ide\tools\arm-none-eabi\include\c++\7.2.1\arm-none-eabi\thumb\v7-m\bits\gthr-default.h **** __gthread_objc_thread_yield (void)
  94:c:\nxp\mcuxpressoide_10.2.1_795\ide\tools\arm-none-eabi\include\c++\7.2.1\arm-none-eabi\thumb\v7-m\bits\gthr-default.h **** {
  95:c:\nxp\mcuxpressoide_10.2.1_795\ide\tools\arm-none-eabi\include\c++\7.2.1\arm-none-eabi\thumb\v7-m\bits\gthr-default.h ****   return;
  96:c:\nxp\mcuxpressoide_10.2.1_795\ide\tools\arm-none-eabi\include\c++\7.2.1\arm-none-eabi\thumb\v7-m\bits\gthr-default.h **** }
  97:c:\nxp\mcuxpressoide_10.2.1_795\ide\tools\arm-none-eabi\include\c++\7.2.1\arm-none-eabi\thumb\v7-m\bits\gthr-default.h **** 
  98:c:\nxp\mcuxpressoide_10.2.1_795\ide\tools\arm-none-eabi\include\c++\7.2.1\arm-none-eabi\thumb\v7-m\bits\gthr-default.h **** /* Terminate the current thread.  */
  99:c:\nxp\mcuxpressoide_10.2.1_795\ide\tools\arm-none-eabi\include\c++\7.2.1\arm-none-eabi\thumb\v7-m\bits\gthr-default.h **** static inline int
 100:c:\nxp\mcuxpressoide_10.2.1_795\ide\tools\arm-none-eabi\include\c++\7.2.1\arm-none-eabi\thumb\v7-m\bits\gthr-default.h **** __gthread_objc_thread_exit (void)
 101:c:\nxp\mcuxpressoide_10.2.1_795\ide\tools\arm-none-eabi\include\c++\7.2.1\arm-none-eabi\thumb\v7-m\bits\gthr-default.h **** {
 102:c:\nxp\mcuxpressoide_10.2.1_795\ide\tools\arm-none-eabi\include\c++\7.2.1\arm-none-eabi\thumb\v7-m\bits\gthr-default.h ****   /* No thread support available */
 103:c:\nxp\mcuxpressoide_10.2.1_795\ide\tools\arm-none-eabi\include\c++\7.2.1\arm-none-eabi\thumb\v7-m\bits\gthr-default.h ****   /* Should we really exit the program */
 104:c:\nxp\mcuxpressoide_10.2.1_795\ide\tools\arm-none-eabi\include\c++\7.2.1\arm-none-eabi\thumb\v7-m\bits\gthr-default.h ****   /* exit (&__objc_thread_exit_status); */
 105:c:\nxp\mcuxpressoide_10.2.1_795\ide\tools\arm-none-eabi\include\c++\7.2.1\arm-none-eabi\thumb\v7-m\bits\gthr-default.h ****   return -1;
 106:c:\nxp\mcuxpressoide_10.2.1_795\ide\tools\arm-none-eabi\include\c++\7.2.1\arm-none-eabi\thumb\v7-m\bits\gthr-default.h **** }
 107:c:\nxp\mcuxpressoide_10.2.1_795\ide\tools\arm-none-eabi\include\c++\7.2.1\arm-none-eabi\thumb\v7-m\bits\gthr-default.h **** 
 108:c:\nxp\mcuxpressoide_10.2.1_795\ide\tools\arm-none-eabi\include\c++\7.2.1\arm-none-eabi\thumb\v7-m\bits\gthr-default.h **** /* Returns an integer value which uniquely describes a thread.  */
ARM GAS  C:\Users\xavie\AppData\Local\Temp\ccUw5nyp.s 			page 7


 109:c:\nxp\mcuxpressoide_10.2.1_795\ide\tools\arm-none-eabi\include\c++\7.2.1\arm-none-eabi\thumb\v7-m\bits\gthr-default.h **** static inline objc_thread_t
 110:c:\nxp\mcuxpressoide_10.2.1_795\ide\tools\arm-none-eabi\include\c++\7.2.1\arm-none-eabi\thumb\v7-m\bits\gthr-default.h **** __gthread_objc_thread_id (void)
 111:c:\nxp\mcuxpressoide_10.2.1_795\ide\tools\arm-none-eabi\include\c++\7.2.1\arm-none-eabi\thumb\v7-m\bits\gthr-default.h **** {
 112:c:\nxp\mcuxpressoide_10.2.1_795\ide\tools\arm-none-eabi\include\c++\7.2.1\arm-none-eabi\thumb\v7-m\bits\gthr-default.h ****   /* No thread support, use 1.  */
 113:c:\nxp\mcuxpressoide_10.2.1_795\ide\tools\arm-none-eabi\include\c++\7.2.1\arm-none-eabi\thumb\v7-m\bits\gthr-default.h ****   return (objc_thread_t) 1;
 114:c:\nxp\mcuxpressoide_10.2.1_795\ide\tools\arm-none-eabi\include\c++\7.2.1\arm-none-eabi\thumb\v7-m\bits\gthr-default.h **** }
 115:c:\nxp\mcuxpressoide_10.2.1_795\ide\tools\arm-none-eabi\include\c++\7.2.1\arm-none-eabi\thumb\v7-m\bits\gthr-default.h **** 
 116:c:\nxp\mcuxpressoide_10.2.1_795\ide\tools\arm-none-eabi\include\c++\7.2.1\arm-none-eabi\thumb\v7-m\bits\gthr-default.h **** /* Sets the thread's local storage pointer.  */
 117:c:\nxp\mcuxpressoide_10.2.1_795\ide\tools\arm-none-eabi\include\c++\7.2.1\arm-none-eabi\thumb\v7-m\bits\gthr-default.h **** static inline int
 118:c:\nxp\mcuxpressoide_10.2.1_795\ide\tools\arm-none-eabi\include\c++\7.2.1\arm-none-eabi\thumb\v7-m\bits\gthr-default.h **** __gthread_objc_thread_set_data (void *value)
 119:c:\nxp\mcuxpressoide_10.2.1_795\ide\tools\arm-none-eabi\include\c++\7.2.1\arm-none-eabi\thumb\v7-m\bits\gthr-default.h **** {
 120:c:\nxp\mcuxpressoide_10.2.1_795\ide\tools\arm-none-eabi\include\c++\7.2.1\arm-none-eabi\thumb\v7-m\bits\gthr-default.h ****   thread_local_storage = value;
 121:c:\nxp\mcuxpressoide_10.2.1_795\ide\tools\arm-none-eabi\include\c++\7.2.1\arm-none-eabi\thumb\v7-m\bits\gthr-default.h ****   return 0;
 122:c:\nxp\mcuxpressoide_10.2.1_795\ide\tools\arm-none-eabi\include\c++\7.2.1\arm-none-eabi\thumb\v7-m\bits\gthr-default.h **** }
 123:c:\nxp\mcuxpressoide_10.2.1_795\ide\tools\arm-none-eabi\include\c++\7.2.1\arm-none-eabi\thumb\v7-m\bits\gthr-default.h **** 
 124:c:\nxp\mcuxpressoide_10.2.1_795\ide\tools\arm-none-eabi\include\c++\7.2.1\arm-none-eabi\thumb\v7-m\bits\gthr-default.h **** /* Returns the thread's local storage pointer.  */
 125:c:\nxp\mcuxpressoide_10.2.1_795\ide\tools\arm-none-eabi\include\c++\7.2.1\arm-none-eabi\thumb\v7-m\bits\gthr-default.h **** static inline void *
 126:c:\nxp\mcuxpressoide_10.2.1_795\ide\tools\arm-none-eabi\include\c++\7.2.1\arm-none-eabi\thumb\v7-m\bits\gthr-default.h **** __gthread_objc_thread_get_data (void)
 127:c:\nxp\mcuxpressoide_10.2.1_795\ide\tools\arm-none-eabi\include\c++\7.2.1\arm-none-eabi\thumb\v7-m\bits\gthr-default.h **** {
 128:c:\nxp\mcuxpressoide_10.2.1_795\ide\tools\arm-none-eabi\include\c++\7.2.1\arm-none-eabi\thumb\v7-m\bits\gthr-default.h ****   return thread_local_storage;
 129:c:\nxp\mcuxpressoide_10.2.1_795\ide\tools\arm-none-eabi\include\c++\7.2.1\arm-none-eabi\thumb\v7-m\bits\gthr-default.h **** }
 130:c:\nxp\mcuxpressoide_10.2.1_795\ide\tools\arm-none-eabi\include\c++\7.2.1\arm-none-eabi\thumb\v7-m\bits\gthr-default.h **** 
 131:c:\nxp\mcuxpressoide_10.2.1_795\ide\tools\arm-none-eabi\include\c++\7.2.1\arm-none-eabi\thumb\v7-m\bits\gthr-default.h **** /* Backend mutex functions */
 132:c:\nxp\mcuxpressoide_10.2.1_795\ide\tools\arm-none-eabi\include\c++\7.2.1\arm-none-eabi\thumb\v7-m\bits\gthr-default.h **** 
 133:c:\nxp\mcuxpressoide_10.2.1_795\ide\tools\arm-none-eabi\include\c++\7.2.1\arm-none-eabi\thumb\v7-m\bits\gthr-default.h **** /* Allocate a mutex.  */
 134:c:\nxp\mcuxpressoide_10.2.1_795\ide\tools\arm-none-eabi\include\c++\7.2.1\arm-none-eabi\thumb\v7-m\bits\gthr-default.h **** static inline int
 135:c:\nxp\mcuxpressoide_10.2.1_795\ide\tools\arm-none-eabi\include\c++\7.2.1\arm-none-eabi\thumb\v7-m\bits\gthr-default.h **** __gthread_objc_mutex_allocate (objc_mutex_t mutex _GLIBCXX_UNUSED)
 136:c:\nxp\mcuxpressoide_10.2.1_795\ide\tools\arm-none-eabi\include\c++\7.2.1\arm-none-eabi\thumb\v7-m\bits\gthr-default.h **** {
 137:c:\nxp\mcuxpressoide_10.2.1_795\ide\tools\arm-none-eabi\include\c++\7.2.1\arm-none-eabi\thumb\v7-m\bits\gthr-default.h ****   return 0;
 138:c:\nxp\mcuxpressoide_10.2.1_795\ide\tools\arm-none-eabi\include\c++\7.2.1\arm-none-eabi\thumb\v7-m\bits\gthr-default.h **** }
 139:c:\nxp\mcuxpressoide_10.2.1_795\ide\tools\arm-none-eabi\include\c++\7.2.1\arm-none-eabi\thumb\v7-m\bits\gthr-default.h **** 
 140:c:\nxp\mcuxpressoide_10.2.1_795\ide\tools\arm-none-eabi\include\c++\7.2.1\arm-none-eabi\thumb\v7-m\bits\gthr-default.h **** /* Deallocate a mutex.  */
 141:c:\nxp\mcuxpressoide_10.2.1_795\ide\tools\arm-none-eabi\include\c++\7.2.1\arm-none-eabi\thumb\v7-m\bits\gthr-default.h **** static inline int
 142:c:\nxp\mcuxpressoide_10.2.1_795\ide\tools\arm-none-eabi\include\c++\7.2.1\arm-none-eabi\thumb\v7-m\bits\gthr-default.h **** __gthread_objc_mutex_deallocate (objc_mutex_t mutex _GLIBCXX_UNUSED)
 143:c:\nxp\mcuxpressoide_10.2.1_795\ide\tools\arm-none-eabi\include\c++\7.2.1\arm-none-eabi\thumb\v7-m\bits\gthr-default.h **** {
 144:c:\nxp\mcuxpressoide_10.2.1_795\ide\tools\arm-none-eabi\include\c++\7.2.1\arm-none-eabi\thumb\v7-m\bits\gthr-default.h ****   return 0;
 145:c:\nxp\mcuxpressoide_10.2.1_795\ide\tools\arm-none-eabi\include\c++\7.2.1\arm-none-eabi\thumb\v7-m\bits\gthr-default.h **** }
 146:c:\nxp\mcuxpressoide_10.2.1_795\ide\tools\arm-none-eabi\include\c++\7.2.1\arm-none-eabi\thumb\v7-m\bits\gthr-default.h **** 
 147:c:\nxp\mcuxpressoide_10.2.1_795\ide\tools\arm-none-eabi\include\c++\7.2.1\arm-none-eabi\thumb\v7-m\bits\gthr-default.h **** /* Grab a lock on a mutex.  */
 148:c:\nxp\mcuxpressoide_10.2.1_795\ide\tools\arm-none-eabi\include\c++\7.2.1\arm-none-eabi\thumb\v7-m\bits\gthr-default.h **** static inline int
 149:c:\nxp\mcuxpressoide_10.2.1_795\ide\tools\arm-none-eabi\include\c++\7.2.1\arm-none-eabi\thumb\v7-m\bits\gthr-default.h **** __gthread_objc_mutex_lock (objc_mutex_t mutex _GLIBCXX_UNUSED)
 150:c:\nxp\mcuxpressoide_10.2.1_795\ide\tools\arm-none-eabi\include\c++\7.2.1\arm-none-eabi\thumb\v7-m\bits\gthr-default.h **** {
 151:c:\nxp\mcuxpressoide_10.2.1_795\ide\tools\arm-none-eabi\include\c++\7.2.1\arm-none-eabi\thumb\v7-m\bits\gthr-default.h ****   /* There can only be one thread, so we always get the lock */
 152:c:\nxp\mcuxpressoide_10.2.1_795\ide\tools\arm-none-eabi\include\c++\7.2.1\arm-none-eabi\thumb\v7-m\bits\gthr-default.h ****   return 0;
 153:c:\nxp\mcuxpressoide_10.2.1_795\ide\tools\arm-none-eabi\include\c++\7.2.1\arm-none-eabi\thumb\v7-m\bits\gthr-default.h **** }
 154:c:\nxp\mcuxpressoide_10.2.1_795\ide\tools\arm-none-eabi\include\c++\7.2.1\arm-none-eabi\thumb\v7-m\bits\gthr-default.h **** 
 155:c:\nxp\mcuxpressoide_10.2.1_795\ide\tools\arm-none-eabi\include\c++\7.2.1\arm-none-eabi\thumb\v7-m\bits\gthr-default.h **** /* Try to grab a lock on a mutex.  */
 156:c:\nxp\mcuxpressoide_10.2.1_795\ide\tools\arm-none-eabi\include\c++\7.2.1\arm-none-eabi\thumb\v7-m\bits\gthr-default.h **** static inline int
 157:c:\nxp\mcuxpressoide_10.2.1_795\ide\tools\arm-none-eabi\include\c++\7.2.1\arm-none-eabi\thumb\v7-m\bits\gthr-default.h **** __gthread_objc_mutex_trylock (objc_mutex_t mutex _GLIBCXX_UNUSED)
 158:c:\nxp\mcuxpressoide_10.2.1_795\ide\tools\arm-none-eabi\include\c++\7.2.1\arm-none-eabi\thumb\v7-m\bits\gthr-default.h **** {
 159:c:\nxp\mcuxpressoide_10.2.1_795\ide\tools\arm-none-eabi\include\c++\7.2.1\arm-none-eabi\thumb\v7-m\bits\gthr-default.h ****   /* There can only be one thread, so we always get the lock */
 160:c:\nxp\mcuxpressoide_10.2.1_795\ide\tools\arm-none-eabi\include\c++\7.2.1\arm-none-eabi\thumb\v7-m\bits\gthr-default.h ****   return 0;
 161:c:\nxp\mcuxpressoide_10.2.1_795\ide\tools\arm-none-eabi\include\c++\7.2.1\arm-none-eabi\thumb\v7-m\bits\gthr-default.h **** }
 162:c:\nxp\mcuxpressoide_10.2.1_795\ide\tools\arm-none-eabi\include\c++\7.2.1\arm-none-eabi\thumb\v7-m\bits\gthr-default.h **** 
 163:c:\nxp\mcuxpressoide_10.2.1_795\ide\tools\arm-none-eabi\include\c++\7.2.1\arm-none-eabi\thumb\v7-m\bits\gthr-default.h **** /* Unlock the mutex */
 164:c:\nxp\mcuxpressoide_10.2.1_795\ide\tools\arm-none-eabi\include\c++\7.2.1\arm-none-eabi\thumb\v7-m\bits\gthr-default.h **** static inline int
 165:c:\nxp\mcuxpressoide_10.2.1_795\ide\tools\arm-none-eabi\include\c++\7.2.1\arm-none-eabi\thumb\v7-m\bits\gthr-default.h **** __gthread_objc_mutex_unlock (objc_mutex_t mutex _GLIBCXX_UNUSED)
ARM GAS  C:\Users\xavie\AppData\Local\Temp\ccUw5nyp.s 			page 8


 166:c:\nxp\mcuxpressoide_10.2.1_795\ide\tools\arm-none-eabi\include\c++\7.2.1\arm-none-eabi\thumb\v7-m\bits\gthr-default.h **** {
 167:c:\nxp\mcuxpressoide_10.2.1_795\ide\tools\arm-none-eabi\include\c++\7.2.1\arm-none-eabi\thumb\v7-m\bits\gthr-default.h ****   return 0;
 168:c:\nxp\mcuxpressoide_10.2.1_795\ide\tools\arm-none-eabi\include\c++\7.2.1\arm-none-eabi\thumb\v7-m\bits\gthr-default.h **** }
 169:c:\nxp\mcuxpressoide_10.2.1_795\ide\tools\arm-none-eabi\include\c++\7.2.1\arm-none-eabi\thumb\v7-m\bits\gthr-default.h **** 
 170:c:\nxp\mcuxpressoide_10.2.1_795\ide\tools\arm-none-eabi\include\c++\7.2.1\arm-none-eabi\thumb\v7-m\bits\gthr-default.h **** /* Backend condition mutex functions */
 171:c:\nxp\mcuxpressoide_10.2.1_795\ide\tools\arm-none-eabi\include\c++\7.2.1\arm-none-eabi\thumb\v7-m\bits\gthr-default.h **** 
 172:c:\nxp\mcuxpressoide_10.2.1_795\ide\tools\arm-none-eabi\include\c++\7.2.1\arm-none-eabi\thumb\v7-m\bits\gthr-default.h **** /* Allocate a condition.  */
 173:c:\nxp\mcuxpressoide_10.2.1_795\ide\tools\arm-none-eabi\include\c++\7.2.1\arm-none-eabi\thumb\v7-m\bits\gthr-default.h **** static inline int
 174:c:\nxp\mcuxpressoide_10.2.1_795\ide\tools\arm-none-eabi\include\c++\7.2.1\arm-none-eabi\thumb\v7-m\bits\gthr-default.h **** __gthread_objc_condition_allocate (objc_condition_t condition _GLIBCXX_UNUSED)
 175:c:\nxp\mcuxpressoide_10.2.1_795\ide\tools\arm-none-eabi\include\c++\7.2.1\arm-none-eabi\thumb\v7-m\bits\gthr-default.h **** {
 176:c:\nxp\mcuxpressoide_10.2.1_795\ide\tools\arm-none-eabi\include\c++\7.2.1\arm-none-eabi\thumb\v7-m\bits\gthr-default.h ****   return 0;
 177:c:\nxp\mcuxpressoide_10.2.1_795\ide\tools\arm-none-eabi\include\c++\7.2.1\arm-none-eabi\thumb\v7-m\bits\gthr-default.h **** }
 178:c:\nxp\mcuxpressoide_10.2.1_795\ide\tools\arm-none-eabi\include\c++\7.2.1\arm-none-eabi\thumb\v7-m\bits\gthr-default.h **** 
 179:c:\nxp\mcuxpressoide_10.2.1_795\ide\tools\arm-none-eabi\include\c++\7.2.1\arm-none-eabi\thumb\v7-m\bits\gthr-default.h **** /* Deallocate a condition.  */
 180:c:\nxp\mcuxpressoide_10.2.1_795\ide\tools\arm-none-eabi\include\c++\7.2.1\arm-none-eabi\thumb\v7-m\bits\gthr-default.h **** static inline int
 181:c:\nxp\mcuxpressoide_10.2.1_795\ide\tools\arm-none-eabi\include\c++\7.2.1\arm-none-eabi\thumb\v7-m\bits\gthr-default.h **** __gthread_objc_condition_deallocate (objc_condition_t condition _GLIBCXX_UNUSED)
 182:c:\nxp\mcuxpressoide_10.2.1_795\ide\tools\arm-none-eabi\include\c++\7.2.1\arm-none-eabi\thumb\v7-m\bits\gthr-default.h **** {
 183:c:\nxp\mcuxpressoide_10.2.1_795\ide\tools\arm-none-eabi\include\c++\7.2.1\arm-none-eabi\thumb\v7-m\bits\gthr-default.h ****   return 0;
 184:c:\nxp\mcuxpressoide_10.2.1_795\ide\tools\arm-none-eabi\include\c++\7.2.1\arm-none-eabi\thumb\v7-m\bits\gthr-default.h **** }
 185:c:\nxp\mcuxpressoide_10.2.1_795\ide\tools\arm-none-eabi\include\c++\7.2.1\arm-none-eabi\thumb\v7-m\bits\gthr-default.h **** 
 186:c:\nxp\mcuxpressoide_10.2.1_795\ide\tools\arm-none-eabi\include\c++\7.2.1\arm-none-eabi\thumb\v7-m\bits\gthr-default.h **** /* Wait on the condition */
 187:c:\nxp\mcuxpressoide_10.2.1_795\ide\tools\arm-none-eabi\include\c++\7.2.1\arm-none-eabi\thumb\v7-m\bits\gthr-default.h **** static inline int
 188:c:\nxp\mcuxpressoide_10.2.1_795\ide\tools\arm-none-eabi\include\c++\7.2.1\arm-none-eabi\thumb\v7-m\bits\gthr-default.h **** __gthread_objc_condition_wait (objc_condition_t condition _GLIBCXX_UNUSED,
 189:c:\nxp\mcuxpressoide_10.2.1_795\ide\tools\arm-none-eabi\include\c++\7.2.1\arm-none-eabi\thumb\v7-m\bits\gthr-default.h **** 			       objc_mutex_t mutex _GLIBCXX_UNUSED)
 190:c:\nxp\mcuxpressoide_10.2.1_795\ide\tools\arm-none-eabi\include\c++\7.2.1\arm-none-eabi\thumb\v7-m\bits\gthr-default.h **** {
 191:c:\nxp\mcuxpressoide_10.2.1_795\ide\tools\arm-none-eabi\include\c++\7.2.1\arm-none-eabi\thumb\v7-m\bits\gthr-default.h ****   return 0;
 192:c:\nxp\mcuxpressoide_10.2.1_795\ide\tools\arm-none-eabi\include\c++\7.2.1\arm-none-eabi\thumb\v7-m\bits\gthr-default.h **** }
 193:c:\nxp\mcuxpressoide_10.2.1_795\ide\tools\arm-none-eabi\include\c++\7.2.1\arm-none-eabi\thumb\v7-m\bits\gthr-default.h **** 
 194:c:\nxp\mcuxpressoide_10.2.1_795\ide\tools\arm-none-eabi\include\c++\7.2.1\arm-none-eabi\thumb\v7-m\bits\gthr-default.h **** /* Wake up all threads waiting on this condition.  */
 195:c:\nxp\mcuxpressoide_10.2.1_795\ide\tools\arm-none-eabi\include\c++\7.2.1\arm-none-eabi\thumb\v7-m\bits\gthr-default.h **** static inline int
 196:c:\nxp\mcuxpressoide_10.2.1_795\ide\tools\arm-none-eabi\include\c++\7.2.1\arm-none-eabi\thumb\v7-m\bits\gthr-default.h **** __gthread_objc_condition_broadcast (objc_condition_t condition _GLIBCXX_UNUSED)
 197:c:\nxp\mcuxpressoide_10.2.1_795\ide\tools\arm-none-eabi\include\c++\7.2.1\arm-none-eabi\thumb\v7-m\bits\gthr-default.h **** {
 198:c:\nxp\mcuxpressoide_10.2.1_795\ide\tools\arm-none-eabi\include\c++\7.2.1\arm-none-eabi\thumb\v7-m\bits\gthr-default.h ****   return 0;
 199:c:\nxp\mcuxpressoide_10.2.1_795\ide\tools\arm-none-eabi\include\c++\7.2.1\arm-none-eabi\thumb\v7-m\bits\gthr-default.h **** }
 200:c:\nxp\mcuxpressoide_10.2.1_795\ide\tools\arm-none-eabi\include\c++\7.2.1\arm-none-eabi\thumb\v7-m\bits\gthr-default.h **** 
 201:c:\nxp\mcuxpressoide_10.2.1_795\ide\tools\arm-none-eabi\include\c++\7.2.1\arm-none-eabi\thumb\v7-m\bits\gthr-default.h **** /* Wake up one thread waiting on this condition.  */
 202:c:\nxp\mcuxpressoide_10.2.1_795\ide\tools\arm-none-eabi\include\c++\7.2.1\arm-none-eabi\thumb\v7-m\bits\gthr-default.h **** static inline int
 203:c:\nxp\mcuxpressoide_10.2.1_795\ide\tools\arm-none-eabi\include\c++\7.2.1\arm-none-eabi\thumb\v7-m\bits\gthr-default.h **** __gthread_objc_condition_signal (objc_condition_t condition _GLIBCXX_UNUSED)
 204:c:\nxp\mcuxpressoide_10.2.1_795\ide\tools\arm-none-eabi\include\c++\7.2.1\arm-none-eabi\thumb\v7-m\bits\gthr-default.h **** {
 205:c:\nxp\mcuxpressoide_10.2.1_795\ide\tools\arm-none-eabi\include\c++\7.2.1\arm-none-eabi\thumb\v7-m\bits\gthr-default.h ****   return 0;
 206:c:\nxp\mcuxpressoide_10.2.1_795\ide\tools\arm-none-eabi\include\c++\7.2.1\arm-none-eabi\thumb\v7-m\bits\gthr-default.h **** }
 207:c:\nxp\mcuxpressoide_10.2.1_795\ide\tools\arm-none-eabi\include\c++\7.2.1\arm-none-eabi\thumb\v7-m\bits\gthr-default.h **** 
 208:c:\nxp\mcuxpressoide_10.2.1_795\ide\tools\arm-none-eabi\include\c++\7.2.1\arm-none-eabi\thumb\v7-m\bits\gthr-default.h **** #else /* _LIBOBJC */
 209:c:\nxp\mcuxpressoide_10.2.1_795\ide\tools\arm-none-eabi\include\c++\7.2.1\arm-none-eabi\thumb\v7-m\bits\gthr-default.h **** 
 210:c:\nxp\mcuxpressoide_10.2.1_795\ide\tools\arm-none-eabi\include\c++\7.2.1\arm-none-eabi\thumb\v7-m\bits\gthr-default.h **** static inline int
 211:c:\nxp\mcuxpressoide_10.2.1_795\ide\tools\arm-none-eabi\include\c++\7.2.1\arm-none-eabi\thumb\v7-m\bits\gthr-default.h **** __gthread_active_p (void)
 212:c:\nxp\mcuxpressoide_10.2.1_795\ide\tools\arm-none-eabi\include\c++\7.2.1\arm-none-eabi\thumb\v7-m\bits\gthr-default.h **** {
 213:c:\nxp\mcuxpressoide_10.2.1_795\ide\tools\arm-none-eabi\include\c++\7.2.1\arm-none-eabi\thumb\v7-m\bits\gthr-default.h ****   return 0;
 214:c:\nxp\mcuxpressoide_10.2.1_795\ide\tools\arm-none-eabi\include\c++\7.2.1\arm-none-eabi\thumb\v7-m\bits\gthr-default.h **** }
 215:c:\nxp\mcuxpressoide_10.2.1_795\ide\tools\arm-none-eabi\include\c++\7.2.1\arm-none-eabi\thumb\v7-m\bits\gthr-default.h **** 
 216:c:\nxp\mcuxpressoide_10.2.1_795\ide\tools\arm-none-eabi\include\c++\7.2.1\arm-none-eabi\thumb\v7-m\bits\gthr-default.h **** static inline int
 217:c:\nxp\mcuxpressoide_10.2.1_795\ide\tools\arm-none-eabi\include\c++\7.2.1\arm-none-eabi\thumb\v7-m\bits\gthr-default.h **** __gthread_once (__gthread_once_t *__once _GLIBCXX_UNUSED, void (*__func) (void) _GLIBCXX_UNUSED)
 218:c:\nxp\mcuxpressoide_10.2.1_795\ide\tools\arm-none-eabi\include\c++\7.2.1\arm-none-eabi\thumb\v7-m\bits\gthr-default.h **** {
 219:c:\nxp\mcuxpressoide_10.2.1_795\ide\tools\arm-none-eabi\include\c++\7.2.1\arm-none-eabi\thumb\v7-m\bits\gthr-default.h ****   return 0;
 220:c:\nxp\mcuxpressoide_10.2.1_795\ide\tools\arm-none-eabi\include\c++\7.2.1\arm-none-eabi\thumb\v7-m\bits\gthr-default.h **** }
 221:c:\nxp\mcuxpressoide_10.2.1_795\ide\tools\arm-none-eabi\include\c++\7.2.1\arm-none-eabi\thumb\v7-m\bits\gthr-default.h **** 
 222:c:\nxp\mcuxpressoide_10.2.1_795\ide\tools\arm-none-eabi\include\c++\7.2.1\arm-none-eabi\thumb\v7-m\bits\gthr-default.h **** static inline int _GLIBCXX_UNUSED
ARM GAS  C:\Users\xavie\AppData\Local\Temp\ccUw5nyp.s 			page 9


 223:c:\nxp\mcuxpressoide_10.2.1_795\ide\tools\arm-none-eabi\include\c++\7.2.1\arm-none-eabi\thumb\v7-m\bits\gthr-default.h **** __gthread_key_create (__gthread_key_t *__key _GLIBCXX_UNUSED, void (*__func) (void *) _GLIBCXX_UNUS
 224:c:\nxp\mcuxpressoide_10.2.1_795\ide\tools\arm-none-eabi\include\c++\7.2.1\arm-none-eabi\thumb\v7-m\bits\gthr-default.h **** {
 225:c:\nxp\mcuxpressoide_10.2.1_795\ide\tools\arm-none-eabi\include\c++\7.2.1\arm-none-eabi\thumb\v7-m\bits\gthr-default.h ****   return 0;
 226:c:\nxp\mcuxpressoide_10.2.1_795\ide\tools\arm-none-eabi\include\c++\7.2.1\arm-none-eabi\thumb\v7-m\bits\gthr-default.h **** }
 227:c:\nxp\mcuxpressoide_10.2.1_795\ide\tools\arm-none-eabi\include\c++\7.2.1\arm-none-eabi\thumb\v7-m\bits\gthr-default.h **** 
 228:c:\nxp\mcuxpressoide_10.2.1_795\ide\tools\arm-none-eabi\include\c++\7.2.1\arm-none-eabi\thumb\v7-m\bits\gthr-default.h **** static int _GLIBCXX_UNUSED
 229:c:\nxp\mcuxpressoide_10.2.1_795\ide\tools\arm-none-eabi\include\c++\7.2.1\arm-none-eabi\thumb\v7-m\bits\gthr-default.h **** __gthread_key_delete (__gthread_key_t __key _GLIBCXX_UNUSED)
 230:c:\nxp\mcuxpressoide_10.2.1_795\ide\tools\arm-none-eabi\include\c++\7.2.1\arm-none-eabi\thumb\v7-m\bits\gthr-default.h **** {
  71              		.loc 2 230 0
  72              		.cfi_startproc
  73              		@ args = 0, pretend = 0, frame = 8
  74              		@ frame_needed = 1, uses_anonymous_args = 0
  75              		@ link register save eliminated.
  76 0000 80B4     		push	{r7}
  77              		.cfi_def_cfa_offset 4
  78              		.cfi_offset 7, -4
  79 0002 83B0     		sub	sp, sp, #12
  80              		.cfi_def_cfa_offset 16
  81 0004 00AF     		add	r7, sp, #0
  82              		.cfi_def_cfa_register 7
  83 0006 7860     		str	r0, [r7, #4]
 231:c:\nxp\mcuxpressoide_10.2.1_795\ide\tools\arm-none-eabi\include\c++\7.2.1\arm-none-eabi\thumb\v7-m\bits\gthr-default.h ****   return 0;
  84              		.loc 2 231 0
  85 0008 0023     		movs	r3, #0
 232:c:\nxp\mcuxpressoide_10.2.1_795\ide\tools\arm-none-eabi\include\c++\7.2.1\arm-none-eabi\thumb\v7-m\bits\gthr-default.h **** }
  86              		.loc 2 232 0
  87 000a 1846     		mov	r0, r3
  88 000c 0C37     		adds	r7, r7, #12
  89              		.cfi_def_cfa_offset 4
  90 000e BD46     		mov	sp, r7
  91              		.cfi_def_cfa_register 13
  92              		@ sp needed
  93 0010 80BC     		pop	{r7}
  94              		.cfi_restore 7
  95              		.cfi_def_cfa_offset 0
  96 0012 7047     		bx	lr
  97              		.cfi_endproc
  98              	.LFE913:
 100              		.global	_Z13PriorityQueueB5cxx11
 101              		.section	.bss._Z13PriorityQueueB5cxx11,"aw",%nobits
 102              		.align	2
 105              	_Z13PriorityQueueB5cxx11:
 106 0000 00000000 		.space	60
 106      00000000 
 106      00000000 
 106      00000000 
 106      00000000 
 107              		.global	stackDepth
 108              		.section	.bss.stackDepth,"aw",%nobits
 109              		.align	2
 112              	stackDepth:
 113 0000 00000000 		.space	4
 114              		.section	.text._ZN10TickEngine9PushStackEP7IUpdate5Stack,"ax",%progbits
 115              		.align	1
 116              		.global	_ZN10TickEngine9PushStackEP7IUpdate5Stack
 117              		.syntax unified
 118              		.thumb
ARM GAS  C:\Users\xavie\AppData\Local\Temp\ccUw5nyp.s 			page 10


 119              		.thumb_func
 120              		.fpu softvfp
 122              	_ZN10TickEngine9PushStackEP7IUpdate5Stack:
 123              	.LFB1447:
 124              		.file 3 "../src/engine.cpp"
   1:../src/engine.cpp **** #include "board.h"
   2:../src/engine.cpp **** #include "engine.h"
   3:../src/engine.cpp **** #include "xav_data.h"
   4:../src/engine.cpp **** #include "interfaces.h"
   5:../src/engine.cpp **** #include <list>
   6:../src/engine.cpp **** 
   7:../src/engine.cpp **** std::list<IUpdate*> PriorityQueue[5];
   8:../src/engine.cpp **** Stack stackDepth = Stack::L1;
   9:../src/engine.cpp **** 
  10:../src/engine.cpp **** void TickEngine::PushStack(IUpdate * element, Stack stackLevel)
  11:../src/engine.cpp **** {
 125              		.loc 3 11 0
 126              		.cfi_startproc
 127              		@ args = 0, pretend = 0, frame = 16
 128              		@ frame_needed = 1, uses_anonymous_args = 0
 129 0000 80B5     		push	{r7, lr}
 130              		.cfi_def_cfa_offset 8
 131              		.cfi_offset 7, -8
 132              		.cfi_offset 14, -4
 133 0002 84B0     		sub	sp, sp, #16
 134              		.cfi_def_cfa_offset 24
 135 0004 00AF     		add	r7, sp, #0
 136              		.cfi_def_cfa_register 7
 137 0006 7860     		str	r0, [r7, #4]
 138 0008 3960     		str	r1, [r7]
  12:../src/engine.cpp **** 	if(stackLevel > stackDepth)
 139              		.loc 3 12 0
 140 000a 0D4B     		ldr	r3, .L7
 141 000c 1B68     		ldr	r3, [r3]
 142 000e 3A68     		ldr	r2, [r7]
 143 0010 9A42     		cmp	r2, r3
 144 0012 02DD     		ble	.L6
  13:../src/engine.cpp **** 		stackDepth = stackLevel;
 145              		.loc 3 13 0
 146 0014 0A4A     		ldr	r2, .L7
 147 0016 3B68     		ldr	r3, [r7]
 148 0018 1360     		str	r3, [r2]
 149              	.L6:
  14:../src/engine.cpp **** 
  15:../src/engine.cpp **** 	uint8_t accessor = (uint8_t)stackLevel;
 150              		.loc 3 15 0
 151 001a 3B68     		ldr	r3, [r7]
 152 001c FB73     		strb	r3, [r7, #15]
  16:../src/engine.cpp **** 	/* Insert the element at the beginning of the list */
  17:../src/engine.cpp **** 	PriorityQueue[accessor].push_front(element);
 153              		.loc 3 17 0
 154 001e FA7B     		ldrb	r2, [r7, #15]	@ zero_extendqisi2
 155 0020 1346     		mov	r3, r2
 156 0022 5B00     		lsls	r3, r3, #1
 157 0024 1344     		add	r3, r3, r2
 158 0026 9B00     		lsls	r3, r3, #2
 159 0028 064A     		ldr	r2, .L7+4
ARM GAS  C:\Users\xavie\AppData\Local\Temp\ccUw5nyp.s 			page 11


 160 002a 1344     		add	r3, r3, r2
 161 002c 3A1D     		adds	r2, r7, #4
 162 002e 1146     		mov	r1, r2
 163 0030 1846     		mov	r0, r3
 164 0032 FFF7FEFF 		bl	_ZNSt7__cxx114listIP7IUpdateSaIS2_EE10push_frontERKS2_
  18:../src/engine.cpp **** }
 165              		.loc 3 18 0
 166 0036 00BF     		nop
 167 0038 1037     		adds	r7, r7, #16
 168              		.cfi_def_cfa_offset 8
 169 003a BD46     		mov	sp, r7
 170              		.cfi_def_cfa_register 13
 171              		@ sp needed
 172 003c 80BD     		pop	{r7, pc}
 173              	.L8:
 174 003e 00BF     		.align	2
 175              	.L7:
 176 0040 00000000 		.word	stackDepth
 177 0044 00000000 		.word	_Z13PriorityQueueB5cxx11
 178              		.cfi_endproc
 179              	.LFE1447:
 181              		.section	.text._ZN10TickEngine8PopStackE5Stack,"ax",%progbits
 182              		.align	1
 183              		.global	_ZN10TickEngine8PopStackE5Stack
 184              		.syntax unified
 185              		.thumb
 186              		.thumb_func
 187              		.fpu softvfp
 189              	_ZN10TickEngine8PopStackE5Stack:
 190              	.LFB1448:
  19:../src/engine.cpp **** 
  20:../src/engine.cpp **** void TickEngine::PopStack(Stack stackLevel)
  21:../src/engine.cpp **** {
 191              		.loc 3 21 0
 192              		.cfi_startproc
 193              		@ args = 0, pretend = 0, frame = 16
 194              		@ frame_needed = 1, uses_anonymous_args = 0
 195 0000 80B5     		push	{r7, lr}
 196              		.cfi_def_cfa_offset 8
 197              		.cfi_offset 7, -8
 198              		.cfi_offset 14, -4
 199 0002 84B0     		sub	sp, sp, #16
 200              		.cfi_def_cfa_offset 24
 201 0004 00AF     		add	r7, sp, #0
 202              		.cfi_def_cfa_register 7
 203 0006 7860     		str	r0, [r7, #4]
  22:../src/engine.cpp **** 	uint8_t accessor = (uint8_t)stackLevel;
 204              		.loc 3 22 0
 205 0008 7B68     		ldr	r3, [r7, #4]
 206 000a FB73     		strb	r3, [r7, #15]
  23:../src/engine.cpp **** 	/* Delete the first element */
  24:../src/engine.cpp **** 	PriorityQueue[accessor].pop_front();
 207              		.loc 3 24 0
 208 000c FA7B     		ldrb	r2, [r7, #15]	@ zero_extendqisi2
 209 000e 1346     		mov	r3, r2
 210 0010 5B00     		lsls	r3, r3, #1
 211 0012 1344     		add	r3, r3, r2
ARM GAS  C:\Users\xavie\AppData\Local\Temp\ccUw5nyp.s 			page 12


 212 0014 9B00     		lsls	r3, r3, #2
 213 0016 124A     		ldr	r2, .L14
 214 0018 1344     		add	r3, r3, r2
 215 001a 1846     		mov	r0, r3
 216 001c FFF7FEFF 		bl	_ZNSt7__cxx114listIP7IUpdateSaIS2_EE9pop_frontEv
  25:../src/engine.cpp **** 
  26:../src/engine.cpp **** 	/* Resize the maximum stack depth if the only element was removed */
  27:../src/engine.cpp **** 	if(PriorityQueue[accessor].size() == 0 && stackDepth == stackLevel)
 217              		.loc 3 27 0
 218 0020 FA7B     		ldrb	r2, [r7, #15]	@ zero_extendqisi2
 219 0022 1346     		mov	r3, r2
 220 0024 5B00     		lsls	r3, r3, #1
 221 0026 1344     		add	r3, r3, r2
 222 0028 9B00     		lsls	r3, r3, #2
 223 002a 0D4A     		ldr	r2, .L14
 224 002c 1344     		add	r3, r3, r2
 225 002e 1846     		mov	r0, r3
 226 0030 FFF7FEFF 		bl	_ZNKSt7__cxx114listIP7IUpdateSaIS2_EE4sizeEv
 227 0034 0346     		mov	r3, r0
 228 0036 002B     		cmp	r3, #0
 229 0038 06D1     		bne	.L10
 230              		.loc 3 27 0 is_stmt 0 discriminator 1
 231 003a 0A4B     		ldr	r3, .L14+4
 232 003c 1B68     		ldr	r3, [r3]
 233 003e 7A68     		ldr	r2, [r7, #4]
 234 0040 9A42     		cmp	r2, r3
 235 0042 01D1     		bne	.L10
 236              		.loc 3 27 0 discriminator 3
 237 0044 0123     		movs	r3, #1
 238 0046 00E0     		b	.L11
 239              	.L10:
 240              		.loc 3 27 0 discriminator 4
 241 0048 0023     		movs	r3, #0
 242              	.L11:
 243              		.loc 3 27 0 discriminator 6
 244 004a 002B     		cmp	r3, #0
 245 004c 03D0     		beq	.L13
  28:../src/engine.cpp **** 		stackDepth = (Stack)(accessor - 1);
 246              		.loc 3 28 0 is_stmt 1
 247 004e FB7B     		ldrb	r3, [r7, #15]	@ zero_extendqisi2
 248 0050 013B     		subs	r3, r3, #1
 249 0052 044A     		ldr	r2, .L14+4
 250 0054 1360     		str	r3, [r2]
 251              	.L13:
  29:../src/engine.cpp **** }
 252              		.loc 3 29 0
 253 0056 00BF     		nop
 254 0058 1037     		adds	r7, r7, #16
 255              		.cfi_def_cfa_offset 8
 256 005a BD46     		mov	sp, r7
 257              		.cfi_def_cfa_register 13
 258              		@ sp needed
 259 005c 80BD     		pop	{r7, pc}
 260              	.L15:
 261 005e 00BF     		.align	2
 262              	.L14:
 263 0060 00000000 		.word	_Z13PriorityQueueB5cxx11
ARM GAS  C:\Users\xavie\AppData\Local\Temp\ccUw5nyp.s 			page 13


 264 0064 00000000 		.word	stackDepth
 265              		.cfi_endproc
 266              	.LFE1448:
 268              		.section	.text._ZN10TickEngine4TickEv,"ax",%progbits
 269              		.align	1
 270              		.global	_ZN10TickEngine4TickEv
 271              		.syntax unified
 272              		.thumb
 273              		.thumb_func
 274              		.fpu softvfp
 276              	_ZN10TickEngine4TickEv:
 277              	.LFB1449:
  30:../src/engine.cpp **** 
  31:../src/engine.cpp **** void TickEngine::Tick()
  32:../src/engine.cpp **** {
 278              		.loc 3 32 0
 279              		.cfi_startproc
 280              		@ args = 0, pretend = 0, frame = 8
 281              		@ frame_needed = 1, uses_anonymous_args = 0
 282 0000 80B5     		push	{r7, lr}
 283              		.cfi_def_cfa_offset 8
 284              		.cfi_offset 7, -8
 285              		.cfi_offset 14, -4
 286 0002 82B0     		sub	sp, sp, #8
 287              		.cfi_def_cfa_offset 16
 288 0004 00AF     		add	r7, sp, #0
 289              		.cfi_def_cfa_register 7
 290              	.LBB2:
  33:../src/engine.cpp **** 	/* Tick the first element for each priority level if defined */
  34:../src/engine.cpp **** 	for(uint8_t i = 0; i <= (uint8_t)stackDepth; i++){
 291              		.loc 3 34 0
 292 0006 0023     		movs	r3, #0
 293 0008 FB71     		strb	r3, [r7, #7]
 294              	.L19:
 295              		.loc 3 34 0 is_stmt 0 discriminator 1
 296 000a 1B4B     		ldr	r3, .L21
 297 000c 1B68     		ldr	r3, [r3]
 298 000e DBB2     		uxtb	r3, r3
 299 0010 FA79     		ldrb	r2, [r7, #7]	@ zero_extendqisi2
 300 0012 9A42     		cmp	r2, r3
 301 0014 2BD8     		bhi	.L20
  35:../src/engine.cpp **** 		if(PriorityQueue[i].size() != 0)
 302              		.loc 3 35 0 is_stmt 1
 303 0016 FA79     		ldrb	r2, [r7, #7]	@ zero_extendqisi2
 304 0018 1346     		mov	r3, r2
 305 001a 5B00     		lsls	r3, r3, #1
 306 001c 1344     		add	r3, r3, r2
 307 001e 9B00     		lsls	r3, r3, #2
 308 0020 164A     		ldr	r2, .L21+4
 309 0022 1344     		add	r3, r3, r2
 310 0024 1846     		mov	r0, r3
 311 0026 FFF7FEFF 		bl	_ZNKSt7__cxx114listIP7IUpdateSaIS2_EE4sizeEv
 312 002a 0346     		mov	r3, r0
 313 002c 002B     		cmp	r3, #0
 314 002e 14BF     		ite	ne
 315 0030 0123     		movne	r3, #1
 316 0032 0023     		moveq	r3, #0
ARM GAS  C:\Users\xavie\AppData\Local\Temp\ccUw5nyp.s 			page 14


 317 0034 DBB2     		uxtb	r3, r3
 318 0036 002B     		cmp	r3, #0
 319 0038 15D0     		beq	.L18
  36:../src/engine.cpp **** 			(*PriorityQueue[i].begin())->Tick();
 320              		.loc 3 36 0
 321 003a FA79     		ldrb	r2, [r7, #7]	@ zero_extendqisi2
 322 003c 1346     		mov	r3, r2
 323 003e 5B00     		lsls	r3, r3, #1
 324 0040 1344     		add	r3, r3, r2
 325 0042 9B00     		lsls	r3, r3, #2
 326 0044 0D4A     		ldr	r2, .L21+4
 327 0046 1344     		add	r3, r3, r2
 328 0048 1846     		mov	r0, r3
 329 004a FFF7FEFF 		bl	_ZNSt7__cxx114listIP7IUpdateSaIS2_EE5beginEv
 330 004e 0346     		mov	r3, r0
 331 0050 3B60     		str	r3, [r7]
 332 0052 3B46     		mov	r3, r7
 333 0054 1846     		mov	r0, r3
 334 0056 FFF7FEFF 		bl	_ZNKSt14_List_iteratorIP7IUpdateEdeEv
 335 005a 0346     		mov	r3, r0
 336 005c 1B68     		ldr	r3, [r3]
 337 005e 1A68     		ldr	r2, [r3]
 338 0060 1268     		ldr	r2, [r2]
 339 0062 1846     		mov	r0, r3
 340 0064 9047     		blx	r2
 341              	.LVL0:
 342              	.L18:
  34:../src/engine.cpp **** 		if(PriorityQueue[i].size() != 0)
 343              		.loc 3 34 0 discriminator 2
 344 0066 FB79     		ldrb	r3, [r7, #7]	@ zero_extendqisi2
 345 0068 0133     		adds	r3, r3, #1
 346 006a FB71     		strb	r3, [r7, #7]
 347 006c CDE7     		b	.L19
 348              	.L20:
 349              	.LBE2:
  37:../src/engine.cpp **** 	}
  38:../src/engine.cpp **** }
 350              		.loc 3 38 0
 351 006e 00BF     		nop
 352 0070 0837     		adds	r7, r7, #8
 353              		.cfi_def_cfa_offset 8
 354 0072 BD46     		mov	sp, r7
 355              		.cfi_def_cfa_register 13
 356              		@ sp needed
 357 0074 80BD     		pop	{r7, pc}
 358              	.L22:
 359 0076 00BF     		.align	2
 360              	.L21:
 361 0078 00000000 		.word	stackDepth
 362 007c 00000000 		.word	_Z13PriorityQueueB5cxx11
 363              		.cfi_endproc
 364              	.LFE1449:
 366              		.section	.text._ZNSt7__cxx114listIP7IUpdateSaIS2_EEC2Ev,"axG",%progbits,_ZNSt7__cxx114listIP7IUpda
 367              		.align	1
 368              		.weak	_ZNSt7__cxx114listIP7IUpdateSaIS2_EEC2Ev
 369              		.syntax unified
 370              		.thumb
ARM GAS  C:\Users\xavie\AppData\Local\Temp\ccUw5nyp.s 			page 15


 371              		.thumb_func
 372              		.fpu softvfp
 374              	_ZNSt7__cxx114listIP7IUpdateSaIS2_EEC2Ev:
 375              	.LFB1681:
 376              		.file 4 "c:\\nxp\\mcuxpressoide_10.2.1_795\\ide\\tools\\arm-none-eabi\\include\\c++\\7.2.1\\bits\\
   1:c:\nxp\mcuxpressoide_10.2.1_795\ide\tools\arm-none-eabi\include\c++\7.2.1\bits\stl_list.h **** // List implementation -*- C++ -*-
   2:c:\nxp\mcuxpressoide_10.2.1_795\ide\tools\arm-none-eabi\include\c++\7.2.1\bits\stl_list.h **** 
   3:c:\nxp\mcuxpressoide_10.2.1_795\ide\tools\arm-none-eabi\include\c++\7.2.1\bits\stl_list.h **** // Copyright (C) 2001-2017 Free Software Foundation, Inc.
   4:c:\nxp\mcuxpressoide_10.2.1_795\ide\tools\arm-none-eabi\include\c++\7.2.1\bits\stl_list.h **** //
   5:c:\nxp\mcuxpressoide_10.2.1_795\ide\tools\arm-none-eabi\include\c++\7.2.1\bits\stl_list.h **** // This file is part of the GNU ISO C++ Library.  This library is free
   6:c:\nxp\mcuxpressoide_10.2.1_795\ide\tools\arm-none-eabi\include\c++\7.2.1\bits\stl_list.h **** // software; you can redistribute it and/or modify it under the
   7:c:\nxp\mcuxpressoide_10.2.1_795\ide\tools\arm-none-eabi\include\c++\7.2.1\bits\stl_list.h **** // terms of the GNU General Public License as published by the
   8:c:\nxp\mcuxpressoide_10.2.1_795\ide\tools\arm-none-eabi\include\c++\7.2.1\bits\stl_list.h **** // Free Software Foundation; either version 3, or (at your option)
   9:c:\nxp\mcuxpressoide_10.2.1_795\ide\tools\arm-none-eabi\include\c++\7.2.1\bits\stl_list.h **** // any later version.
  10:c:\nxp\mcuxpressoide_10.2.1_795\ide\tools\arm-none-eabi\include\c++\7.2.1\bits\stl_list.h **** 
  11:c:\nxp\mcuxpressoide_10.2.1_795\ide\tools\arm-none-eabi\include\c++\7.2.1\bits\stl_list.h **** // This library is distributed in the hope that it will be useful,
  12:c:\nxp\mcuxpressoide_10.2.1_795\ide\tools\arm-none-eabi\include\c++\7.2.1\bits\stl_list.h **** // but WITHOUT ANY WARRANTY; without even the implied warranty of
  13:c:\nxp\mcuxpressoide_10.2.1_795\ide\tools\arm-none-eabi\include\c++\7.2.1\bits\stl_list.h **** // MERCHANTABILITY or FITNESS FOR A PARTICULAR PURPOSE.  See the
  14:c:\nxp\mcuxpressoide_10.2.1_795\ide\tools\arm-none-eabi\include\c++\7.2.1\bits\stl_list.h **** // GNU General Public License for more details.
  15:c:\nxp\mcuxpressoide_10.2.1_795\ide\tools\arm-none-eabi\include\c++\7.2.1\bits\stl_list.h **** 
  16:c:\nxp\mcuxpressoide_10.2.1_795\ide\tools\arm-none-eabi\include\c++\7.2.1\bits\stl_list.h **** // Under Section 7 of GPL version 3, you are granted additional
  17:c:\nxp\mcuxpressoide_10.2.1_795\ide\tools\arm-none-eabi\include\c++\7.2.1\bits\stl_list.h **** // permissions described in the GCC Runtime Library Exception, version
  18:c:\nxp\mcuxpressoide_10.2.1_795\ide\tools\arm-none-eabi\include\c++\7.2.1\bits\stl_list.h **** // 3.1, as published by the Free Software Foundation.
  19:c:\nxp\mcuxpressoide_10.2.1_795\ide\tools\arm-none-eabi\include\c++\7.2.1\bits\stl_list.h **** 
  20:c:\nxp\mcuxpressoide_10.2.1_795\ide\tools\arm-none-eabi\include\c++\7.2.1\bits\stl_list.h **** // You should have received a copy of the GNU General Public License and
  21:c:\nxp\mcuxpressoide_10.2.1_795\ide\tools\arm-none-eabi\include\c++\7.2.1\bits\stl_list.h **** // a copy of the GCC Runtime Library Exception along with this program;
  22:c:\nxp\mcuxpressoide_10.2.1_795\ide\tools\arm-none-eabi\include\c++\7.2.1\bits\stl_list.h **** // see the files COPYING3 and COPYING.RUNTIME respectively.  If not, see
  23:c:\nxp\mcuxpressoide_10.2.1_795\ide\tools\arm-none-eabi\include\c++\7.2.1\bits\stl_list.h **** // <http://www.gnu.org/licenses/>.
  24:c:\nxp\mcuxpressoide_10.2.1_795\ide\tools\arm-none-eabi\include\c++\7.2.1\bits\stl_list.h **** 
  25:c:\nxp\mcuxpressoide_10.2.1_795\ide\tools\arm-none-eabi\include\c++\7.2.1\bits\stl_list.h **** /*
  26:c:\nxp\mcuxpressoide_10.2.1_795\ide\tools\arm-none-eabi\include\c++\7.2.1\bits\stl_list.h ****  *
  27:c:\nxp\mcuxpressoide_10.2.1_795\ide\tools\arm-none-eabi\include\c++\7.2.1\bits\stl_list.h ****  * Copyright (c) 1994
  28:c:\nxp\mcuxpressoide_10.2.1_795\ide\tools\arm-none-eabi\include\c++\7.2.1\bits\stl_list.h ****  * Hewlett-Packard Company
  29:c:\nxp\mcuxpressoide_10.2.1_795\ide\tools\arm-none-eabi\include\c++\7.2.1\bits\stl_list.h ****  *
  30:c:\nxp\mcuxpressoide_10.2.1_795\ide\tools\arm-none-eabi\include\c++\7.2.1\bits\stl_list.h ****  * Permission to use, copy, modify, distribute and sell this software
  31:c:\nxp\mcuxpressoide_10.2.1_795\ide\tools\arm-none-eabi\include\c++\7.2.1\bits\stl_list.h ****  * and its documentation for any purpose is hereby granted without fee,
  32:c:\nxp\mcuxpressoide_10.2.1_795\ide\tools\arm-none-eabi\include\c++\7.2.1\bits\stl_list.h ****  * provided that the above copyright notice appear in all copies and
  33:c:\nxp\mcuxpressoide_10.2.1_795\ide\tools\arm-none-eabi\include\c++\7.2.1\bits\stl_list.h ****  * that both that copyright notice and this permission notice appear
  34:c:\nxp\mcuxpressoide_10.2.1_795\ide\tools\arm-none-eabi\include\c++\7.2.1\bits\stl_list.h ****  * in supporting documentation.  Hewlett-Packard Company makes no
  35:c:\nxp\mcuxpressoide_10.2.1_795\ide\tools\arm-none-eabi\include\c++\7.2.1\bits\stl_list.h ****  * representations about the suitability of this software for any
  36:c:\nxp\mcuxpressoide_10.2.1_795\ide\tools\arm-none-eabi\include\c++\7.2.1\bits\stl_list.h ****  * purpose.  It is provided "as is" without express or implied warranty.
  37:c:\nxp\mcuxpressoide_10.2.1_795\ide\tools\arm-none-eabi\include\c++\7.2.1\bits\stl_list.h ****  *
  38:c:\nxp\mcuxpressoide_10.2.1_795\ide\tools\arm-none-eabi\include\c++\7.2.1\bits\stl_list.h ****  *
  39:c:\nxp\mcuxpressoide_10.2.1_795\ide\tools\arm-none-eabi\include\c++\7.2.1\bits\stl_list.h ****  * Copyright (c) 1996,1997
  40:c:\nxp\mcuxpressoide_10.2.1_795\ide\tools\arm-none-eabi\include\c++\7.2.1\bits\stl_list.h ****  * Silicon Graphics Computer Systems, Inc.
  41:c:\nxp\mcuxpressoide_10.2.1_795\ide\tools\arm-none-eabi\include\c++\7.2.1\bits\stl_list.h ****  *
  42:c:\nxp\mcuxpressoide_10.2.1_795\ide\tools\arm-none-eabi\include\c++\7.2.1\bits\stl_list.h ****  * Permission to use, copy, modify, distribute and sell this software
  43:c:\nxp\mcuxpressoide_10.2.1_795\ide\tools\arm-none-eabi\include\c++\7.2.1\bits\stl_list.h ****  * and its documentation for any purpose is hereby granted without fee,
  44:c:\nxp\mcuxpressoide_10.2.1_795\ide\tools\arm-none-eabi\include\c++\7.2.1\bits\stl_list.h ****  * provided that the above copyright notice appear in all copies and
  45:c:\nxp\mcuxpressoide_10.2.1_795\ide\tools\arm-none-eabi\include\c++\7.2.1\bits\stl_list.h ****  * that both that copyright notice and this permission notice appear
  46:c:\nxp\mcuxpressoide_10.2.1_795\ide\tools\arm-none-eabi\include\c++\7.2.1\bits\stl_list.h ****  * in supporting documentation.  Silicon Graphics makes no
  47:c:\nxp\mcuxpressoide_10.2.1_795\ide\tools\arm-none-eabi\include\c++\7.2.1\bits\stl_list.h ****  * representations about the suitability of this software for any
  48:c:\nxp\mcuxpressoide_10.2.1_795\ide\tools\arm-none-eabi\include\c++\7.2.1\bits\stl_list.h ****  * purpose.  It is provided "as is" without express or implied warranty.
  49:c:\nxp\mcuxpressoide_10.2.1_795\ide\tools\arm-none-eabi\include\c++\7.2.1\bits\stl_list.h ****  */
  50:c:\nxp\mcuxpressoide_10.2.1_795\ide\tools\arm-none-eabi\include\c++\7.2.1\bits\stl_list.h **** 
  51:c:\nxp\mcuxpressoide_10.2.1_795\ide\tools\arm-none-eabi\include\c++\7.2.1\bits\stl_list.h **** /** @file bits/stl_list.h
  52:c:\nxp\mcuxpressoide_10.2.1_795\ide\tools\arm-none-eabi\include\c++\7.2.1\bits\stl_list.h ****  *  This is an internal header file, included by other library headers.
ARM GAS  C:\Users\xavie\AppData\Local\Temp\ccUw5nyp.s 			page 16


  53:c:\nxp\mcuxpressoide_10.2.1_795\ide\tools\arm-none-eabi\include\c++\7.2.1\bits\stl_list.h ****  *  Do not attempt to use it directly. @headername{list}
  54:c:\nxp\mcuxpressoide_10.2.1_795\ide\tools\arm-none-eabi\include\c++\7.2.1\bits\stl_list.h ****  */
  55:c:\nxp\mcuxpressoide_10.2.1_795\ide\tools\arm-none-eabi\include\c++\7.2.1\bits\stl_list.h **** 
  56:c:\nxp\mcuxpressoide_10.2.1_795\ide\tools\arm-none-eabi\include\c++\7.2.1\bits\stl_list.h **** #ifndef _STL_LIST_H
  57:c:\nxp\mcuxpressoide_10.2.1_795\ide\tools\arm-none-eabi\include\c++\7.2.1\bits\stl_list.h **** #define _STL_LIST_H 1
  58:c:\nxp\mcuxpressoide_10.2.1_795\ide\tools\arm-none-eabi\include\c++\7.2.1\bits\stl_list.h **** 
  59:c:\nxp\mcuxpressoide_10.2.1_795\ide\tools\arm-none-eabi\include\c++\7.2.1\bits\stl_list.h **** #include <bits/concept_check.h>
  60:c:\nxp\mcuxpressoide_10.2.1_795\ide\tools\arm-none-eabi\include\c++\7.2.1\bits\stl_list.h **** #include <ext/alloc_traits.h>
  61:c:\nxp\mcuxpressoide_10.2.1_795\ide\tools\arm-none-eabi\include\c++\7.2.1\bits\stl_list.h **** #if __cplusplus >= 201103L
  62:c:\nxp\mcuxpressoide_10.2.1_795\ide\tools\arm-none-eabi\include\c++\7.2.1\bits\stl_list.h **** #include <initializer_list>
  63:c:\nxp\mcuxpressoide_10.2.1_795\ide\tools\arm-none-eabi\include\c++\7.2.1\bits\stl_list.h **** #include <bits/allocated_ptr.h>
  64:c:\nxp\mcuxpressoide_10.2.1_795\ide\tools\arm-none-eabi\include\c++\7.2.1\bits\stl_list.h **** #include <ext/aligned_buffer.h>
  65:c:\nxp\mcuxpressoide_10.2.1_795\ide\tools\arm-none-eabi\include\c++\7.2.1\bits\stl_list.h **** #endif
  66:c:\nxp\mcuxpressoide_10.2.1_795\ide\tools\arm-none-eabi\include\c++\7.2.1\bits\stl_list.h **** 
  67:c:\nxp\mcuxpressoide_10.2.1_795\ide\tools\arm-none-eabi\include\c++\7.2.1\bits\stl_list.h **** namespace std _GLIBCXX_VISIBILITY(default)
  68:c:\nxp\mcuxpressoide_10.2.1_795\ide\tools\arm-none-eabi\include\c++\7.2.1\bits\stl_list.h **** {
  69:c:\nxp\mcuxpressoide_10.2.1_795\ide\tools\arm-none-eabi\include\c++\7.2.1\bits\stl_list.h ****   namespace __detail
  70:c:\nxp\mcuxpressoide_10.2.1_795\ide\tools\arm-none-eabi\include\c++\7.2.1\bits\stl_list.h ****   {
  71:c:\nxp\mcuxpressoide_10.2.1_795\ide\tools\arm-none-eabi\include\c++\7.2.1\bits\stl_list.h ****   _GLIBCXX_BEGIN_NAMESPACE_VERSION
  72:c:\nxp\mcuxpressoide_10.2.1_795\ide\tools\arm-none-eabi\include\c++\7.2.1\bits\stl_list.h **** 
  73:c:\nxp\mcuxpressoide_10.2.1_795\ide\tools\arm-none-eabi\include\c++\7.2.1\bits\stl_list.h ****     // Supporting structures are split into common and templated
  74:c:\nxp\mcuxpressoide_10.2.1_795\ide\tools\arm-none-eabi\include\c++\7.2.1\bits\stl_list.h ****     // types; the latter publicly inherits from the former in an
  75:c:\nxp\mcuxpressoide_10.2.1_795\ide\tools\arm-none-eabi\include\c++\7.2.1\bits\stl_list.h ****     // effort to reduce code duplication.  This results in some
  76:c:\nxp\mcuxpressoide_10.2.1_795\ide\tools\arm-none-eabi\include\c++\7.2.1\bits\stl_list.h ****     // "needless" static_cast'ing later on, but it's all safe
  77:c:\nxp\mcuxpressoide_10.2.1_795\ide\tools\arm-none-eabi\include\c++\7.2.1\bits\stl_list.h ****     // downcasting.
  78:c:\nxp\mcuxpressoide_10.2.1_795\ide\tools\arm-none-eabi\include\c++\7.2.1\bits\stl_list.h **** 
  79:c:\nxp\mcuxpressoide_10.2.1_795\ide\tools\arm-none-eabi\include\c++\7.2.1\bits\stl_list.h ****     /// Common part of a node in the %list.
  80:c:\nxp\mcuxpressoide_10.2.1_795\ide\tools\arm-none-eabi\include\c++\7.2.1\bits\stl_list.h ****     struct _List_node_base
  81:c:\nxp\mcuxpressoide_10.2.1_795\ide\tools\arm-none-eabi\include\c++\7.2.1\bits\stl_list.h ****     {
  82:c:\nxp\mcuxpressoide_10.2.1_795\ide\tools\arm-none-eabi\include\c++\7.2.1\bits\stl_list.h ****       _List_node_base* _M_next;
  83:c:\nxp\mcuxpressoide_10.2.1_795\ide\tools\arm-none-eabi\include\c++\7.2.1\bits\stl_list.h ****       _List_node_base* _M_prev;
  84:c:\nxp\mcuxpressoide_10.2.1_795\ide\tools\arm-none-eabi\include\c++\7.2.1\bits\stl_list.h **** 
  85:c:\nxp\mcuxpressoide_10.2.1_795\ide\tools\arm-none-eabi\include\c++\7.2.1\bits\stl_list.h ****       static void
  86:c:\nxp\mcuxpressoide_10.2.1_795\ide\tools\arm-none-eabi\include\c++\7.2.1\bits\stl_list.h ****       swap(_List_node_base& __x, _List_node_base& __y) _GLIBCXX_USE_NOEXCEPT;
  87:c:\nxp\mcuxpressoide_10.2.1_795\ide\tools\arm-none-eabi\include\c++\7.2.1\bits\stl_list.h **** 
  88:c:\nxp\mcuxpressoide_10.2.1_795\ide\tools\arm-none-eabi\include\c++\7.2.1\bits\stl_list.h ****       void
  89:c:\nxp\mcuxpressoide_10.2.1_795\ide\tools\arm-none-eabi\include\c++\7.2.1\bits\stl_list.h ****       _M_transfer(_List_node_base* const __first,
  90:c:\nxp\mcuxpressoide_10.2.1_795\ide\tools\arm-none-eabi\include\c++\7.2.1\bits\stl_list.h **** 		  _List_node_base* const __last) _GLIBCXX_USE_NOEXCEPT;
  91:c:\nxp\mcuxpressoide_10.2.1_795\ide\tools\arm-none-eabi\include\c++\7.2.1\bits\stl_list.h **** 
  92:c:\nxp\mcuxpressoide_10.2.1_795\ide\tools\arm-none-eabi\include\c++\7.2.1\bits\stl_list.h ****       void
  93:c:\nxp\mcuxpressoide_10.2.1_795\ide\tools\arm-none-eabi\include\c++\7.2.1\bits\stl_list.h ****       _M_reverse() _GLIBCXX_USE_NOEXCEPT;
  94:c:\nxp\mcuxpressoide_10.2.1_795\ide\tools\arm-none-eabi\include\c++\7.2.1\bits\stl_list.h **** 
  95:c:\nxp\mcuxpressoide_10.2.1_795\ide\tools\arm-none-eabi\include\c++\7.2.1\bits\stl_list.h ****       void
  96:c:\nxp\mcuxpressoide_10.2.1_795\ide\tools\arm-none-eabi\include\c++\7.2.1\bits\stl_list.h ****       _M_hook(_List_node_base* const __position) _GLIBCXX_USE_NOEXCEPT;
  97:c:\nxp\mcuxpressoide_10.2.1_795\ide\tools\arm-none-eabi\include\c++\7.2.1\bits\stl_list.h **** 
  98:c:\nxp\mcuxpressoide_10.2.1_795\ide\tools\arm-none-eabi\include\c++\7.2.1\bits\stl_list.h ****       void
  99:c:\nxp\mcuxpressoide_10.2.1_795\ide\tools\arm-none-eabi\include\c++\7.2.1\bits\stl_list.h ****       _M_unhook() _GLIBCXX_USE_NOEXCEPT;
 100:c:\nxp\mcuxpressoide_10.2.1_795\ide\tools\arm-none-eabi\include\c++\7.2.1\bits\stl_list.h ****     };
 101:c:\nxp\mcuxpressoide_10.2.1_795\ide\tools\arm-none-eabi\include\c++\7.2.1\bits\stl_list.h **** 
 102:c:\nxp\mcuxpressoide_10.2.1_795\ide\tools\arm-none-eabi\include\c++\7.2.1\bits\stl_list.h ****   _GLIBCXX_END_NAMESPACE_VERSION
 103:c:\nxp\mcuxpressoide_10.2.1_795\ide\tools\arm-none-eabi\include\c++\7.2.1\bits\stl_list.h ****   } // namespace detail
 104:c:\nxp\mcuxpressoide_10.2.1_795\ide\tools\arm-none-eabi\include\c++\7.2.1\bits\stl_list.h **** 
 105:c:\nxp\mcuxpressoide_10.2.1_795\ide\tools\arm-none-eabi\include\c++\7.2.1\bits\stl_list.h **** _GLIBCXX_BEGIN_NAMESPACE_CONTAINER
 106:c:\nxp\mcuxpressoide_10.2.1_795\ide\tools\arm-none-eabi\include\c++\7.2.1\bits\stl_list.h **** 
 107:c:\nxp\mcuxpressoide_10.2.1_795\ide\tools\arm-none-eabi\include\c++\7.2.1\bits\stl_list.h ****   /// An actual node in the %list.
 108:c:\nxp\mcuxpressoide_10.2.1_795\ide\tools\arm-none-eabi\include\c++\7.2.1\bits\stl_list.h ****   template<typename _Tp>
 109:c:\nxp\mcuxpressoide_10.2.1_795\ide\tools\arm-none-eabi\include\c++\7.2.1\bits\stl_list.h ****     struct _List_node : public __detail::_List_node_base
ARM GAS  C:\Users\xavie\AppData\Local\Temp\ccUw5nyp.s 			page 17


 110:c:\nxp\mcuxpressoide_10.2.1_795\ide\tools\arm-none-eabi\include\c++\7.2.1\bits\stl_list.h ****     {
 111:c:\nxp\mcuxpressoide_10.2.1_795\ide\tools\arm-none-eabi\include\c++\7.2.1\bits\stl_list.h **** #if __cplusplus >= 201103L
 112:c:\nxp\mcuxpressoide_10.2.1_795\ide\tools\arm-none-eabi\include\c++\7.2.1\bits\stl_list.h ****       __gnu_cxx::__aligned_membuf<_Tp> _M_storage;
 113:c:\nxp\mcuxpressoide_10.2.1_795\ide\tools\arm-none-eabi\include\c++\7.2.1\bits\stl_list.h ****       _Tp*       _M_valptr()       { return _M_storage._M_ptr(); }
 114:c:\nxp\mcuxpressoide_10.2.1_795\ide\tools\arm-none-eabi\include\c++\7.2.1\bits\stl_list.h ****       _Tp const* _M_valptr() const { return _M_storage._M_ptr(); }
 115:c:\nxp\mcuxpressoide_10.2.1_795\ide\tools\arm-none-eabi\include\c++\7.2.1\bits\stl_list.h **** #else
 116:c:\nxp\mcuxpressoide_10.2.1_795\ide\tools\arm-none-eabi\include\c++\7.2.1\bits\stl_list.h ****       _Tp _M_data;
 117:c:\nxp\mcuxpressoide_10.2.1_795\ide\tools\arm-none-eabi\include\c++\7.2.1\bits\stl_list.h ****       _Tp*       _M_valptr()       { return std::__addressof(_M_data); }
 118:c:\nxp\mcuxpressoide_10.2.1_795\ide\tools\arm-none-eabi\include\c++\7.2.1\bits\stl_list.h ****       _Tp const* _M_valptr() const { return std::__addressof(_M_data); }
 119:c:\nxp\mcuxpressoide_10.2.1_795\ide\tools\arm-none-eabi\include\c++\7.2.1\bits\stl_list.h **** #endif
 120:c:\nxp\mcuxpressoide_10.2.1_795\ide\tools\arm-none-eabi\include\c++\7.2.1\bits\stl_list.h ****     };
 121:c:\nxp\mcuxpressoide_10.2.1_795\ide\tools\arm-none-eabi\include\c++\7.2.1\bits\stl_list.h **** 
 122:c:\nxp\mcuxpressoide_10.2.1_795\ide\tools\arm-none-eabi\include\c++\7.2.1\bits\stl_list.h ****   /**
 123:c:\nxp\mcuxpressoide_10.2.1_795\ide\tools\arm-none-eabi\include\c++\7.2.1\bits\stl_list.h ****    *  @brief A list::iterator.
 124:c:\nxp\mcuxpressoide_10.2.1_795\ide\tools\arm-none-eabi\include\c++\7.2.1\bits\stl_list.h ****    *
 125:c:\nxp\mcuxpressoide_10.2.1_795\ide\tools\arm-none-eabi\include\c++\7.2.1\bits\stl_list.h ****    *  All the functions are op overloads.
 126:c:\nxp\mcuxpressoide_10.2.1_795\ide\tools\arm-none-eabi\include\c++\7.2.1\bits\stl_list.h ****   */
 127:c:\nxp\mcuxpressoide_10.2.1_795\ide\tools\arm-none-eabi\include\c++\7.2.1\bits\stl_list.h ****   template<typename _Tp>
 128:c:\nxp\mcuxpressoide_10.2.1_795\ide\tools\arm-none-eabi\include\c++\7.2.1\bits\stl_list.h ****     struct _List_iterator
 129:c:\nxp\mcuxpressoide_10.2.1_795\ide\tools\arm-none-eabi\include\c++\7.2.1\bits\stl_list.h ****     {
 130:c:\nxp\mcuxpressoide_10.2.1_795\ide\tools\arm-none-eabi\include\c++\7.2.1\bits\stl_list.h ****       typedef _List_iterator<_Tp>		_Self;
 131:c:\nxp\mcuxpressoide_10.2.1_795\ide\tools\arm-none-eabi\include\c++\7.2.1\bits\stl_list.h ****       typedef _List_node<_Tp>			_Node;
 132:c:\nxp\mcuxpressoide_10.2.1_795\ide\tools\arm-none-eabi\include\c++\7.2.1\bits\stl_list.h **** 
 133:c:\nxp\mcuxpressoide_10.2.1_795\ide\tools\arm-none-eabi\include\c++\7.2.1\bits\stl_list.h ****       typedef ptrdiff_t				difference_type;
 134:c:\nxp\mcuxpressoide_10.2.1_795\ide\tools\arm-none-eabi\include\c++\7.2.1\bits\stl_list.h ****       typedef std::bidirectional_iterator_tag	iterator_category;
 135:c:\nxp\mcuxpressoide_10.2.1_795\ide\tools\arm-none-eabi\include\c++\7.2.1\bits\stl_list.h ****       typedef _Tp				value_type;
 136:c:\nxp\mcuxpressoide_10.2.1_795\ide\tools\arm-none-eabi\include\c++\7.2.1\bits\stl_list.h ****       typedef _Tp*				pointer;
 137:c:\nxp\mcuxpressoide_10.2.1_795\ide\tools\arm-none-eabi\include\c++\7.2.1\bits\stl_list.h ****       typedef _Tp&				reference;
 138:c:\nxp\mcuxpressoide_10.2.1_795\ide\tools\arm-none-eabi\include\c++\7.2.1\bits\stl_list.h **** 
 139:c:\nxp\mcuxpressoide_10.2.1_795\ide\tools\arm-none-eabi\include\c++\7.2.1\bits\stl_list.h ****       _List_iterator() _GLIBCXX_NOEXCEPT
 140:c:\nxp\mcuxpressoide_10.2.1_795\ide\tools\arm-none-eabi\include\c++\7.2.1\bits\stl_list.h ****       : _M_node() { }
 141:c:\nxp\mcuxpressoide_10.2.1_795\ide\tools\arm-none-eabi\include\c++\7.2.1\bits\stl_list.h **** 
 142:c:\nxp\mcuxpressoide_10.2.1_795\ide\tools\arm-none-eabi\include\c++\7.2.1\bits\stl_list.h ****       explicit
 143:c:\nxp\mcuxpressoide_10.2.1_795\ide\tools\arm-none-eabi\include\c++\7.2.1\bits\stl_list.h ****       _List_iterator(__detail::_List_node_base* __x) _GLIBCXX_NOEXCEPT
 144:c:\nxp\mcuxpressoide_10.2.1_795\ide\tools\arm-none-eabi\include\c++\7.2.1\bits\stl_list.h ****       : _M_node(__x) { }
 145:c:\nxp\mcuxpressoide_10.2.1_795\ide\tools\arm-none-eabi\include\c++\7.2.1\bits\stl_list.h **** 
 146:c:\nxp\mcuxpressoide_10.2.1_795\ide\tools\arm-none-eabi\include\c++\7.2.1\bits\stl_list.h ****       _Self
 147:c:\nxp\mcuxpressoide_10.2.1_795\ide\tools\arm-none-eabi\include\c++\7.2.1\bits\stl_list.h ****       _M_const_cast() const _GLIBCXX_NOEXCEPT
 148:c:\nxp\mcuxpressoide_10.2.1_795\ide\tools\arm-none-eabi\include\c++\7.2.1\bits\stl_list.h ****       { return *this; }
 149:c:\nxp\mcuxpressoide_10.2.1_795\ide\tools\arm-none-eabi\include\c++\7.2.1\bits\stl_list.h **** 
 150:c:\nxp\mcuxpressoide_10.2.1_795\ide\tools\arm-none-eabi\include\c++\7.2.1\bits\stl_list.h ****       // Must downcast from _List_node_base to _List_node to get to value.
 151:c:\nxp\mcuxpressoide_10.2.1_795\ide\tools\arm-none-eabi\include\c++\7.2.1\bits\stl_list.h ****       reference
 152:c:\nxp\mcuxpressoide_10.2.1_795\ide\tools\arm-none-eabi\include\c++\7.2.1\bits\stl_list.h ****       operator*() const _GLIBCXX_NOEXCEPT
 153:c:\nxp\mcuxpressoide_10.2.1_795\ide\tools\arm-none-eabi\include\c++\7.2.1\bits\stl_list.h ****       { return *static_cast<_Node*>(_M_node)->_M_valptr(); }
 154:c:\nxp\mcuxpressoide_10.2.1_795\ide\tools\arm-none-eabi\include\c++\7.2.1\bits\stl_list.h **** 
 155:c:\nxp\mcuxpressoide_10.2.1_795\ide\tools\arm-none-eabi\include\c++\7.2.1\bits\stl_list.h ****       pointer
 156:c:\nxp\mcuxpressoide_10.2.1_795\ide\tools\arm-none-eabi\include\c++\7.2.1\bits\stl_list.h ****       operator->() const _GLIBCXX_NOEXCEPT
 157:c:\nxp\mcuxpressoide_10.2.1_795\ide\tools\arm-none-eabi\include\c++\7.2.1\bits\stl_list.h ****       { return static_cast<_Node*>(_M_node)->_M_valptr(); }
 158:c:\nxp\mcuxpressoide_10.2.1_795\ide\tools\arm-none-eabi\include\c++\7.2.1\bits\stl_list.h **** 
 159:c:\nxp\mcuxpressoide_10.2.1_795\ide\tools\arm-none-eabi\include\c++\7.2.1\bits\stl_list.h ****       _Self&
 160:c:\nxp\mcuxpressoide_10.2.1_795\ide\tools\arm-none-eabi\include\c++\7.2.1\bits\stl_list.h ****       operator++() _GLIBCXX_NOEXCEPT
 161:c:\nxp\mcuxpressoide_10.2.1_795\ide\tools\arm-none-eabi\include\c++\7.2.1\bits\stl_list.h ****       {
 162:c:\nxp\mcuxpressoide_10.2.1_795\ide\tools\arm-none-eabi\include\c++\7.2.1\bits\stl_list.h **** 	_M_node = _M_node->_M_next;
 163:c:\nxp\mcuxpressoide_10.2.1_795\ide\tools\arm-none-eabi\include\c++\7.2.1\bits\stl_list.h **** 	return *this;
 164:c:\nxp\mcuxpressoide_10.2.1_795\ide\tools\arm-none-eabi\include\c++\7.2.1\bits\stl_list.h ****       }
 165:c:\nxp\mcuxpressoide_10.2.1_795\ide\tools\arm-none-eabi\include\c++\7.2.1\bits\stl_list.h **** 
 166:c:\nxp\mcuxpressoide_10.2.1_795\ide\tools\arm-none-eabi\include\c++\7.2.1\bits\stl_list.h ****       _Self
ARM GAS  C:\Users\xavie\AppData\Local\Temp\ccUw5nyp.s 			page 18


 167:c:\nxp\mcuxpressoide_10.2.1_795\ide\tools\arm-none-eabi\include\c++\7.2.1\bits\stl_list.h ****       operator++(int) _GLIBCXX_NOEXCEPT
 168:c:\nxp\mcuxpressoide_10.2.1_795\ide\tools\arm-none-eabi\include\c++\7.2.1\bits\stl_list.h ****       {
 169:c:\nxp\mcuxpressoide_10.2.1_795\ide\tools\arm-none-eabi\include\c++\7.2.1\bits\stl_list.h **** 	_Self __tmp = *this;
 170:c:\nxp\mcuxpressoide_10.2.1_795\ide\tools\arm-none-eabi\include\c++\7.2.1\bits\stl_list.h **** 	_M_node = _M_node->_M_next;
 171:c:\nxp\mcuxpressoide_10.2.1_795\ide\tools\arm-none-eabi\include\c++\7.2.1\bits\stl_list.h **** 	return __tmp;
 172:c:\nxp\mcuxpressoide_10.2.1_795\ide\tools\arm-none-eabi\include\c++\7.2.1\bits\stl_list.h ****       }
 173:c:\nxp\mcuxpressoide_10.2.1_795\ide\tools\arm-none-eabi\include\c++\7.2.1\bits\stl_list.h **** 
 174:c:\nxp\mcuxpressoide_10.2.1_795\ide\tools\arm-none-eabi\include\c++\7.2.1\bits\stl_list.h ****       _Self&
 175:c:\nxp\mcuxpressoide_10.2.1_795\ide\tools\arm-none-eabi\include\c++\7.2.1\bits\stl_list.h ****       operator--() _GLIBCXX_NOEXCEPT
 176:c:\nxp\mcuxpressoide_10.2.1_795\ide\tools\arm-none-eabi\include\c++\7.2.1\bits\stl_list.h ****       {
 177:c:\nxp\mcuxpressoide_10.2.1_795\ide\tools\arm-none-eabi\include\c++\7.2.1\bits\stl_list.h **** 	_M_node = _M_node->_M_prev;
 178:c:\nxp\mcuxpressoide_10.2.1_795\ide\tools\arm-none-eabi\include\c++\7.2.1\bits\stl_list.h **** 	return *this;
 179:c:\nxp\mcuxpressoide_10.2.1_795\ide\tools\arm-none-eabi\include\c++\7.2.1\bits\stl_list.h ****       }
 180:c:\nxp\mcuxpressoide_10.2.1_795\ide\tools\arm-none-eabi\include\c++\7.2.1\bits\stl_list.h **** 
 181:c:\nxp\mcuxpressoide_10.2.1_795\ide\tools\arm-none-eabi\include\c++\7.2.1\bits\stl_list.h ****       _Self
 182:c:\nxp\mcuxpressoide_10.2.1_795\ide\tools\arm-none-eabi\include\c++\7.2.1\bits\stl_list.h ****       operator--(int) _GLIBCXX_NOEXCEPT
 183:c:\nxp\mcuxpressoide_10.2.1_795\ide\tools\arm-none-eabi\include\c++\7.2.1\bits\stl_list.h ****       {
 184:c:\nxp\mcuxpressoide_10.2.1_795\ide\tools\arm-none-eabi\include\c++\7.2.1\bits\stl_list.h **** 	_Self __tmp = *this;
 185:c:\nxp\mcuxpressoide_10.2.1_795\ide\tools\arm-none-eabi\include\c++\7.2.1\bits\stl_list.h **** 	_M_node = _M_node->_M_prev;
 186:c:\nxp\mcuxpressoide_10.2.1_795\ide\tools\arm-none-eabi\include\c++\7.2.1\bits\stl_list.h **** 	return __tmp;
 187:c:\nxp\mcuxpressoide_10.2.1_795\ide\tools\arm-none-eabi\include\c++\7.2.1\bits\stl_list.h ****       }
 188:c:\nxp\mcuxpressoide_10.2.1_795\ide\tools\arm-none-eabi\include\c++\7.2.1\bits\stl_list.h **** 
 189:c:\nxp\mcuxpressoide_10.2.1_795\ide\tools\arm-none-eabi\include\c++\7.2.1\bits\stl_list.h ****       bool
 190:c:\nxp\mcuxpressoide_10.2.1_795\ide\tools\arm-none-eabi\include\c++\7.2.1\bits\stl_list.h ****       operator==(const _Self& __x) const _GLIBCXX_NOEXCEPT
 191:c:\nxp\mcuxpressoide_10.2.1_795\ide\tools\arm-none-eabi\include\c++\7.2.1\bits\stl_list.h ****       { return _M_node == __x._M_node; }
 192:c:\nxp\mcuxpressoide_10.2.1_795\ide\tools\arm-none-eabi\include\c++\7.2.1\bits\stl_list.h **** 
 193:c:\nxp\mcuxpressoide_10.2.1_795\ide\tools\arm-none-eabi\include\c++\7.2.1\bits\stl_list.h ****       bool
 194:c:\nxp\mcuxpressoide_10.2.1_795\ide\tools\arm-none-eabi\include\c++\7.2.1\bits\stl_list.h ****       operator!=(const _Self& __x) const _GLIBCXX_NOEXCEPT
 195:c:\nxp\mcuxpressoide_10.2.1_795\ide\tools\arm-none-eabi\include\c++\7.2.1\bits\stl_list.h ****       { return _M_node != __x._M_node; }
 196:c:\nxp\mcuxpressoide_10.2.1_795\ide\tools\arm-none-eabi\include\c++\7.2.1\bits\stl_list.h **** 
 197:c:\nxp\mcuxpressoide_10.2.1_795\ide\tools\arm-none-eabi\include\c++\7.2.1\bits\stl_list.h ****       // The only member points to the %list element.
 198:c:\nxp\mcuxpressoide_10.2.1_795\ide\tools\arm-none-eabi\include\c++\7.2.1\bits\stl_list.h ****       __detail::_List_node_base* _M_node;
 199:c:\nxp\mcuxpressoide_10.2.1_795\ide\tools\arm-none-eabi\include\c++\7.2.1\bits\stl_list.h ****     };
 200:c:\nxp\mcuxpressoide_10.2.1_795\ide\tools\arm-none-eabi\include\c++\7.2.1\bits\stl_list.h **** 
 201:c:\nxp\mcuxpressoide_10.2.1_795\ide\tools\arm-none-eabi\include\c++\7.2.1\bits\stl_list.h ****   /**
 202:c:\nxp\mcuxpressoide_10.2.1_795\ide\tools\arm-none-eabi\include\c++\7.2.1\bits\stl_list.h ****    *  @brief A list::const_iterator.
 203:c:\nxp\mcuxpressoide_10.2.1_795\ide\tools\arm-none-eabi\include\c++\7.2.1\bits\stl_list.h ****    *
 204:c:\nxp\mcuxpressoide_10.2.1_795\ide\tools\arm-none-eabi\include\c++\7.2.1\bits\stl_list.h ****    *  All the functions are op overloads.
 205:c:\nxp\mcuxpressoide_10.2.1_795\ide\tools\arm-none-eabi\include\c++\7.2.1\bits\stl_list.h ****   */
 206:c:\nxp\mcuxpressoide_10.2.1_795\ide\tools\arm-none-eabi\include\c++\7.2.1\bits\stl_list.h ****   template<typename _Tp>
 207:c:\nxp\mcuxpressoide_10.2.1_795\ide\tools\arm-none-eabi\include\c++\7.2.1\bits\stl_list.h ****     struct _List_const_iterator
 208:c:\nxp\mcuxpressoide_10.2.1_795\ide\tools\arm-none-eabi\include\c++\7.2.1\bits\stl_list.h ****     {
 209:c:\nxp\mcuxpressoide_10.2.1_795\ide\tools\arm-none-eabi\include\c++\7.2.1\bits\stl_list.h ****       typedef _List_const_iterator<_Tp>		_Self;
 210:c:\nxp\mcuxpressoide_10.2.1_795\ide\tools\arm-none-eabi\include\c++\7.2.1\bits\stl_list.h ****       typedef const _List_node<_Tp>		_Node;
 211:c:\nxp\mcuxpressoide_10.2.1_795\ide\tools\arm-none-eabi\include\c++\7.2.1\bits\stl_list.h ****       typedef _List_iterator<_Tp>		iterator;
 212:c:\nxp\mcuxpressoide_10.2.1_795\ide\tools\arm-none-eabi\include\c++\7.2.1\bits\stl_list.h **** 
 213:c:\nxp\mcuxpressoide_10.2.1_795\ide\tools\arm-none-eabi\include\c++\7.2.1\bits\stl_list.h ****       typedef ptrdiff_t				difference_type;
 214:c:\nxp\mcuxpressoide_10.2.1_795\ide\tools\arm-none-eabi\include\c++\7.2.1\bits\stl_list.h ****       typedef std::bidirectional_iterator_tag	iterator_category;
 215:c:\nxp\mcuxpressoide_10.2.1_795\ide\tools\arm-none-eabi\include\c++\7.2.1\bits\stl_list.h ****       typedef _Tp				value_type;
 216:c:\nxp\mcuxpressoide_10.2.1_795\ide\tools\arm-none-eabi\include\c++\7.2.1\bits\stl_list.h ****       typedef const _Tp*			pointer;
 217:c:\nxp\mcuxpressoide_10.2.1_795\ide\tools\arm-none-eabi\include\c++\7.2.1\bits\stl_list.h ****       typedef const _Tp&			reference;
 218:c:\nxp\mcuxpressoide_10.2.1_795\ide\tools\arm-none-eabi\include\c++\7.2.1\bits\stl_list.h **** 
 219:c:\nxp\mcuxpressoide_10.2.1_795\ide\tools\arm-none-eabi\include\c++\7.2.1\bits\stl_list.h ****       _List_const_iterator() _GLIBCXX_NOEXCEPT
 220:c:\nxp\mcuxpressoide_10.2.1_795\ide\tools\arm-none-eabi\include\c++\7.2.1\bits\stl_list.h ****       : _M_node() { }
 221:c:\nxp\mcuxpressoide_10.2.1_795\ide\tools\arm-none-eabi\include\c++\7.2.1\bits\stl_list.h **** 
 222:c:\nxp\mcuxpressoide_10.2.1_795\ide\tools\arm-none-eabi\include\c++\7.2.1\bits\stl_list.h ****       explicit
 223:c:\nxp\mcuxpressoide_10.2.1_795\ide\tools\arm-none-eabi\include\c++\7.2.1\bits\stl_list.h ****       _List_const_iterator(const __detail::_List_node_base* __x)
ARM GAS  C:\Users\xavie\AppData\Local\Temp\ccUw5nyp.s 			page 19


 224:c:\nxp\mcuxpressoide_10.2.1_795\ide\tools\arm-none-eabi\include\c++\7.2.1\bits\stl_list.h ****       _GLIBCXX_NOEXCEPT
 225:c:\nxp\mcuxpressoide_10.2.1_795\ide\tools\arm-none-eabi\include\c++\7.2.1\bits\stl_list.h ****       : _M_node(__x) { }
 226:c:\nxp\mcuxpressoide_10.2.1_795\ide\tools\arm-none-eabi\include\c++\7.2.1\bits\stl_list.h **** 
 227:c:\nxp\mcuxpressoide_10.2.1_795\ide\tools\arm-none-eabi\include\c++\7.2.1\bits\stl_list.h ****       _List_const_iterator(const iterator& __x) _GLIBCXX_NOEXCEPT
 228:c:\nxp\mcuxpressoide_10.2.1_795\ide\tools\arm-none-eabi\include\c++\7.2.1\bits\stl_list.h ****       : _M_node(__x._M_node) { }
 229:c:\nxp\mcuxpressoide_10.2.1_795\ide\tools\arm-none-eabi\include\c++\7.2.1\bits\stl_list.h **** 
 230:c:\nxp\mcuxpressoide_10.2.1_795\ide\tools\arm-none-eabi\include\c++\7.2.1\bits\stl_list.h ****       iterator
 231:c:\nxp\mcuxpressoide_10.2.1_795\ide\tools\arm-none-eabi\include\c++\7.2.1\bits\stl_list.h ****       _M_const_cast() const _GLIBCXX_NOEXCEPT
 232:c:\nxp\mcuxpressoide_10.2.1_795\ide\tools\arm-none-eabi\include\c++\7.2.1\bits\stl_list.h ****       { return iterator(const_cast<__detail::_List_node_base*>(_M_node)); }
 233:c:\nxp\mcuxpressoide_10.2.1_795\ide\tools\arm-none-eabi\include\c++\7.2.1\bits\stl_list.h **** 
 234:c:\nxp\mcuxpressoide_10.2.1_795\ide\tools\arm-none-eabi\include\c++\7.2.1\bits\stl_list.h ****       // Must downcast from List_node_base to _List_node to get to value.
 235:c:\nxp\mcuxpressoide_10.2.1_795\ide\tools\arm-none-eabi\include\c++\7.2.1\bits\stl_list.h ****       reference
 236:c:\nxp\mcuxpressoide_10.2.1_795\ide\tools\arm-none-eabi\include\c++\7.2.1\bits\stl_list.h ****       operator*() const _GLIBCXX_NOEXCEPT
 237:c:\nxp\mcuxpressoide_10.2.1_795\ide\tools\arm-none-eabi\include\c++\7.2.1\bits\stl_list.h ****       { return *static_cast<_Node*>(_M_node)->_M_valptr(); }
 238:c:\nxp\mcuxpressoide_10.2.1_795\ide\tools\arm-none-eabi\include\c++\7.2.1\bits\stl_list.h **** 
 239:c:\nxp\mcuxpressoide_10.2.1_795\ide\tools\arm-none-eabi\include\c++\7.2.1\bits\stl_list.h ****       pointer
 240:c:\nxp\mcuxpressoide_10.2.1_795\ide\tools\arm-none-eabi\include\c++\7.2.1\bits\stl_list.h ****       operator->() const _GLIBCXX_NOEXCEPT
 241:c:\nxp\mcuxpressoide_10.2.1_795\ide\tools\arm-none-eabi\include\c++\7.2.1\bits\stl_list.h ****       { return static_cast<_Node*>(_M_node)->_M_valptr(); }
 242:c:\nxp\mcuxpressoide_10.2.1_795\ide\tools\arm-none-eabi\include\c++\7.2.1\bits\stl_list.h **** 
 243:c:\nxp\mcuxpressoide_10.2.1_795\ide\tools\arm-none-eabi\include\c++\7.2.1\bits\stl_list.h ****       _Self&
 244:c:\nxp\mcuxpressoide_10.2.1_795\ide\tools\arm-none-eabi\include\c++\7.2.1\bits\stl_list.h ****       operator++() _GLIBCXX_NOEXCEPT
 245:c:\nxp\mcuxpressoide_10.2.1_795\ide\tools\arm-none-eabi\include\c++\7.2.1\bits\stl_list.h ****       {
 246:c:\nxp\mcuxpressoide_10.2.1_795\ide\tools\arm-none-eabi\include\c++\7.2.1\bits\stl_list.h **** 	_M_node = _M_node->_M_next;
 247:c:\nxp\mcuxpressoide_10.2.1_795\ide\tools\arm-none-eabi\include\c++\7.2.1\bits\stl_list.h **** 	return *this;
 248:c:\nxp\mcuxpressoide_10.2.1_795\ide\tools\arm-none-eabi\include\c++\7.2.1\bits\stl_list.h ****       }
 249:c:\nxp\mcuxpressoide_10.2.1_795\ide\tools\arm-none-eabi\include\c++\7.2.1\bits\stl_list.h **** 
 250:c:\nxp\mcuxpressoide_10.2.1_795\ide\tools\arm-none-eabi\include\c++\7.2.1\bits\stl_list.h ****       _Self
 251:c:\nxp\mcuxpressoide_10.2.1_795\ide\tools\arm-none-eabi\include\c++\7.2.1\bits\stl_list.h ****       operator++(int) _GLIBCXX_NOEXCEPT
 252:c:\nxp\mcuxpressoide_10.2.1_795\ide\tools\arm-none-eabi\include\c++\7.2.1\bits\stl_list.h ****       {
 253:c:\nxp\mcuxpressoide_10.2.1_795\ide\tools\arm-none-eabi\include\c++\7.2.1\bits\stl_list.h **** 	_Self __tmp = *this;
 254:c:\nxp\mcuxpressoide_10.2.1_795\ide\tools\arm-none-eabi\include\c++\7.2.1\bits\stl_list.h **** 	_M_node = _M_node->_M_next;
 255:c:\nxp\mcuxpressoide_10.2.1_795\ide\tools\arm-none-eabi\include\c++\7.2.1\bits\stl_list.h **** 	return __tmp;
 256:c:\nxp\mcuxpressoide_10.2.1_795\ide\tools\arm-none-eabi\include\c++\7.2.1\bits\stl_list.h ****       }
 257:c:\nxp\mcuxpressoide_10.2.1_795\ide\tools\arm-none-eabi\include\c++\7.2.1\bits\stl_list.h **** 
 258:c:\nxp\mcuxpressoide_10.2.1_795\ide\tools\arm-none-eabi\include\c++\7.2.1\bits\stl_list.h ****       _Self&
 259:c:\nxp\mcuxpressoide_10.2.1_795\ide\tools\arm-none-eabi\include\c++\7.2.1\bits\stl_list.h ****       operator--() _GLIBCXX_NOEXCEPT
 260:c:\nxp\mcuxpressoide_10.2.1_795\ide\tools\arm-none-eabi\include\c++\7.2.1\bits\stl_list.h ****       {
 261:c:\nxp\mcuxpressoide_10.2.1_795\ide\tools\arm-none-eabi\include\c++\7.2.1\bits\stl_list.h **** 	_M_node = _M_node->_M_prev;
 262:c:\nxp\mcuxpressoide_10.2.1_795\ide\tools\arm-none-eabi\include\c++\7.2.1\bits\stl_list.h **** 	return *this;
 263:c:\nxp\mcuxpressoide_10.2.1_795\ide\tools\arm-none-eabi\include\c++\7.2.1\bits\stl_list.h ****       }
 264:c:\nxp\mcuxpressoide_10.2.1_795\ide\tools\arm-none-eabi\include\c++\7.2.1\bits\stl_list.h **** 
 265:c:\nxp\mcuxpressoide_10.2.1_795\ide\tools\arm-none-eabi\include\c++\7.2.1\bits\stl_list.h ****       _Self
 266:c:\nxp\mcuxpressoide_10.2.1_795\ide\tools\arm-none-eabi\include\c++\7.2.1\bits\stl_list.h ****       operator--(int) _GLIBCXX_NOEXCEPT
 267:c:\nxp\mcuxpressoide_10.2.1_795\ide\tools\arm-none-eabi\include\c++\7.2.1\bits\stl_list.h ****       {
 268:c:\nxp\mcuxpressoide_10.2.1_795\ide\tools\arm-none-eabi\include\c++\7.2.1\bits\stl_list.h **** 	_Self __tmp = *this;
 269:c:\nxp\mcuxpressoide_10.2.1_795\ide\tools\arm-none-eabi\include\c++\7.2.1\bits\stl_list.h **** 	_M_node = _M_node->_M_prev;
 270:c:\nxp\mcuxpressoide_10.2.1_795\ide\tools\arm-none-eabi\include\c++\7.2.1\bits\stl_list.h **** 	return __tmp;
 271:c:\nxp\mcuxpressoide_10.2.1_795\ide\tools\arm-none-eabi\include\c++\7.2.1\bits\stl_list.h ****       }
 272:c:\nxp\mcuxpressoide_10.2.1_795\ide\tools\arm-none-eabi\include\c++\7.2.1\bits\stl_list.h **** 
 273:c:\nxp\mcuxpressoide_10.2.1_795\ide\tools\arm-none-eabi\include\c++\7.2.1\bits\stl_list.h ****       bool
 274:c:\nxp\mcuxpressoide_10.2.1_795\ide\tools\arm-none-eabi\include\c++\7.2.1\bits\stl_list.h ****       operator==(const _Self& __x) const _GLIBCXX_NOEXCEPT
 275:c:\nxp\mcuxpressoide_10.2.1_795\ide\tools\arm-none-eabi\include\c++\7.2.1\bits\stl_list.h ****       { return _M_node == __x._M_node; }
 276:c:\nxp\mcuxpressoide_10.2.1_795\ide\tools\arm-none-eabi\include\c++\7.2.1\bits\stl_list.h **** 
 277:c:\nxp\mcuxpressoide_10.2.1_795\ide\tools\arm-none-eabi\include\c++\7.2.1\bits\stl_list.h ****       bool
 278:c:\nxp\mcuxpressoide_10.2.1_795\ide\tools\arm-none-eabi\include\c++\7.2.1\bits\stl_list.h ****       operator!=(const _Self& __x) const _GLIBCXX_NOEXCEPT
 279:c:\nxp\mcuxpressoide_10.2.1_795\ide\tools\arm-none-eabi\include\c++\7.2.1\bits\stl_list.h ****       { return _M_node != __x._M_node; }
 280:c:\nxp\mcuxpressoide_10.2.1_795\ide\tools\arm-none-eabi\include\c++\7.2.1\bits\stl_list.h **** 
ARM GAS  C:\Users\xavie\AppData\Local\Temp\ccUw5nyp.s 			page 20


 281:c:\nxp\mcuxpressoide_10.2.1_795\ide\tools\arm-none-eabi\include\c++\7.2.1\bits\stl_list.h ****       // The only member points to the %list element.
 282:c:\nxp\mcuxpressoide_10.2.1_795\ide\tools\arm-none-eabi\include\c++\7.2.1\bits\stl_list.h ****       const __detail::_List_node_base* _M_node;
 283:c:\nxp\mcuxpressoide_10.2.1_795\ide\tools\arm-none-eabi\include\c++\7.2.1\bits\stl_list.h ****     };
 284:c:\nxp\mcuxpressoide_10.2.1_795\ide\tools\arm-none-eabi\include\c++\7.2.1\bits\stl_list.h **** 
 285:c:\nxp\mcuxpressoide_10.2.1_795\ide\tools\arm-none-eabi\include\c++\7.2.1\bits\stl_list.h ****   template<typename _Val>
 286:c:\nxp\mcuxpressoide_10.2.1_795\ide\tools\arm-none-eabi\include\c++\7.2.1\bits\stl_list.h ****     inline bool
 287:c:\nxp\mcuxpressoide_10.2.1_795\ide\tools\arm-none-eabi\include\c++\7.2.1\bits\stl_list.h ****     operator==(const _List_iterator<_Val>& __x,
 288:c:\nxp\mcuxpressoide_10.2.1_795\ide\tools\arm-none-eabi\include\c++\7.2.1\bits\stl_list.h **** 	       const _List_const_iterator<_Val>& __y) _GLIBCXX_NOEXCEPT
 289:c:\nxp\mcuxpressoide_10.2.1_795\ide\tools\arm-none-eabi\include\c++\7.2.1\bits\stl_list.h ****     { return __x._M_node == __y._M_node; }
 290:c:\nxp\mcuxpressoide_10.2.1_795\ide\tools\arm-none-eabi\include\c++\7.2.1\bits\stl_list.h **** 
 291:c:\nxp\mcuxpressoide_10.2.1_795\ide\tools\arm-none-eabi\include\c++\7.2.1\bits\stl_list.h ****   template<typename _Val>
 292:c:\nxp\mcuxpressoide_10.2.1_795\ide\tools\arm-none-eabi\include\c++\7.2.1\bits\stl_list.h ****     inline bool
 293:c:\nxp\mcuxpressoide_10.2.1_795\ide\tools\arm-none-eabi\include\c++\7.2.1\bits\stl_list.h ****     operator!=(const _List_iterator<_Val>& __x,
 294:c:\nxp\mcuxpressoide_10.2.1_795\ide\tools\arm-none-eabi\include\c++\7.2.1\bits\stl_list.h **** 	       const _List_const_iterator<_Val>& __y) _GLIBCXX_NOEXCEPT
 295:c:\nxp\mcuxpressoide_10.2.1_795\ide\tools\arm-none-eabi\include\c++\7.2.1\bits\stl_list.h ****     { return __x._M_node != __y._M_node; }
 296:c:\nxp\mcuxpressoide_10.2.1_795\ide\tools\arm-none-eabi\include\c++\7.2.1\bits\stl_list.h **** 
 297:c:\nxp\mcuxpressoide_10.2.1_795\ide\tools\arm-none-eabi\include\c++\7.2.1\bits\stl_list.h **** _GLIBCXX_BEGIN_NAMESPACE_CXX11
 298:c:\nxp\mcuxpressoide_10.2.1_795\ide\tools\arm-none-eabi\include\c++\7.2.1\bits\stl_list.h ****   /// See bits/stl_deque.h's _Deque_base for an explanation.
 299:c:\nxp\mcuxpressoide_10.2.1_795\ide\tools\arm-none-eabi\include\c++\7.2.1\bits\stl_list.h ****   template<typename _Tp, typename _Alloc>
 300:c:\nxp\mcuxpressoide_10.2.1_795\ide\tools\arm-none-eabi\include\c++\7.2.1\bits\stl_list.h ****     class _List_base
 301:c:\nxp\mcuxpressoide_10.2.1_795\ide\tools\arm-none-eabi\include\c++\7.2.1\bits\stl_list.h ****     {
 302:c:\nxp\mcuxpressoide_10.2.1_795\ide\tools\arm-none-eabi\include\c++\7.2.1\bits\stl_list.h ****     protected:
 303:c:\nxp\mcuxpressoide_10.2.1_795\ide\tools\arm-none-eabi\include\c++\7.2.1\bits\stl_list.h ****       typedef typename __gnu_cxx::__alloc_traits<_Alloc>::template
 304:c:\nxp\mcuxpressoide_10.2.1_795\ide\tools\arm-none-eabi\include\c++\7.2.1\bits\stl_list.h **** 	rebind<_Tp>::other				_Tp_alloc_type;
 305:c:\nxp\mcuxpressoide_10.2.1_795\ide\tools\arm-none-eabi\include\c++\7.2.1\bits\stl_list.h ****       typedef __gnu_cxx::__alloc_traits<_Tp_alloc_type>	_Tp_alloc_traits;
 306:c:\nxp\mcuxpressoide_10.2.1_795\ide\tools\arm-none-eabi\include\c++\7.2.1\bits\stl_list.h ****       typedef typename _Tp_alloc_traits::template
 307:c:\nxp\mcuxpressoide_10.2.1_795\ide\tools\arm-none-eabi\include\c++\7.2.1\bits\stl_list.h **** 	rebind<_List_node<_Tp> >::other _Node_alloc_type;
 308:c:\nxp\mcuxpressoide_10.2.1_795\ide\tools\arm-none-eabi\include\c++\7.2.1\bits\stl_list.h ****       typedef __gnu_cxx::__alloc_traits<_Node_alloc_type> _Node_alloc_traits;
 309:c:\nxp\mcuxpressoide_10.2.1_795\ide\tools\arm-none-eabi\include\c++\7.2.1\bits\stl_list.h **** 
 310:c:\nxp\mcuxpressoide_10.2.1_795\ide\tools\arm-none-eabi\include\c++\7.2.1\bits\stl_list.h ****       static size_t
 311:c:\nxp\mcuxpressoide_10.2.1_795\ide\tools\arm-none-eabi\include\c++\7.2.1\bits\stl_list.h ****       _S_distance(const __detail::_List_node_base* __first,
 312:c:\nxp\mcuxpressoide_10.2.1_795\ide\tools\arm-none-eabi\include\c++\7.2.1\bits\stl_list.h **** 		  const __detail::_List_node_base* __last)
 313:c:\nxp\mcuxpressoide_10.2.1_795\ide\tools\arm-none-eabi\include\c++\7.2.1\bits\stl_list.h ****       {
 314:c:\nxp\mcuxpressoide_10.2.1_795\ide\tools\arm-none-eabi\include\c++\7.2.1\bits\stl_list.h **** 	size_t __n = 0;
 315:c:\nxp\mcuxpressoide_10.2.1_795\ide\tools\arm-none-eabi\include\c++\7.2.1\bits\stl_list.h **** 	while (__first != __last)
 316:c:\nxp\mcuxpressoide_10.2.1_795\ide\tools\arm-none-eabi\include\c++\7.2.1\bits\stl_list.h **** 	  {
 317:c:\nxp\mcuxpressoide_10.2.1_795\ide\tools\arm-none-eabi\include\c++\7.2.1\bits\stl_list.h **** 	    __first = __first->_M_next;
 318:c:\nxp\mcuxpressoide_10.2.1_795\ide\tools\arm-none-eabi\include\c++\7.2.1\bits\stl_list.h **** 	    ++__n;
 319:c:\nxp\mcuxpressoide_10.2.1_795\ide\tools\arm-none-eabi\include\c++\7.2.1\bits\stl_list.h **** 	  }
 320:c:\nxp\mcuxpressoide_10.2.1_795\ide\tools\arm-none-eabi\include\c++\7.2.1\bits\stl_list.h **** 	return __n;
 321:c:\nxp\mcuxpressoide_10.2.1_795\ide\tools\arm-none-eabi\include\c++\7.2.1\bits\stl_list.h ****       }
 322:c:\nxp\mcuxpressoide_10.2.1_795\ide\tools\arm-none-eabi\include\c++\7.2.1\bits\stl_list.h **** 
 323:c:\nxp\mcuxpressoide_10.2.1_795\ide\tools\arm-none-eabi\include\c++\7.2.1\bits\stl_list.h ****       struct _List_impl
 324:c:\nxp\mcuxpressoide_10.2.1_795\ide\tools\arm-none-eabi\include\c++\7.2.1\bits\stl_list.h ****       : public _Node_alloc_type
 325:c:\nxp\mcuxpressoide_10.2.1_795\ide\tools\arm-none-eabi\include\c++\7.2.1\bits\stl_list.h ****       {
 326:c:\nxp\mcuxpressoide_10.2.1_795\ide\tools\arm-none-eabi\include\c++\7.2.1\bits\stl_list.h **** #if _GLIBCXX_USE_CXX11_ABI
 327:c:\nxp\mcuxpressoide_10.2.1_795\ide\tools\arm-none-eabi\include\c++\7.2.1\bits\stl_list.h **** 	_List_node<size_t> _M_node;
 328:c:\nxp\mcuxpressoide_10.2.1_795\ide\tools\arm-none-eabi\include\c++\7.2.1\bits\stl_list.h **** #else
 329:c:\nxp\mcuxpressoide_10.2.1_795\ide\tools\arm-none-eabi\include\c++\7.2.1\bits\stl_list.h **** 	__detail::_List_node_base _M_node;
 330:c:\nxp\mcuxpressoide_10.2.1_795\ide\tools\arm-none-eabi\include\c++\7.2.1\bits\stl_list.h **** #endif
 331:c:\nxp\mcuxpressoide_10.2.1_795\ide\tools\arm-none-eabi\include\c++\7.2.1\bits\stl_list.h **** 
 332:c:\nxp\mcuxpressoide_10.2.1_795\ide\tools\arm-none-eabi\include\c++\7.2.1\bits\stl_list.h **** 	_List_impl() _GLIBCXX_NOEXCEPT
 333:c:\nxp\mcuxpressoide_10.2.1_795\ide\tools\arm-none-eabi\include\c++\7.2.1\bits\stl_list.h **** 	: _Node_alloc_type(), _M_node()
 334:c:\nxp\mcuxpressoide_10.2.1_795\ide\tools\arm-none-eabi\include\c++\7.2.1\bits\stl_list.h **** 	{ }
 335:c:\nxp\mcuxpressoide_10.2.1_795\ide\tools\arm-none-eabi\include\c++\7.2.1\bits\stl_list.h **** 
 336:c:\nxp\mcuxpressoide_10.2.1_795\ide\tools\arm-none-eabi\include\c++\7.2.1\bits\stl_list.h **** 	_List_impl(const _Node_alloc_type& __a) _GLIBCXX_NOEXCEPT
 337:c:\nxp\mcuxpressoide_10.2.1_795\ide\tools\arm-none-eabi\include\c++\7.2.1\bits\stl_list.h **** 	: _Node_alloc_type(__a), _M_node()
ARM GAS  C:\Users\xavie\AppData\Local\Temp\ccUw5nyp.s 			page 21


 338:c:\nxp\mcuxpressoide_10.2.1_795\ide\tools\arm-none-eabi\include\c++\7.2.1\bits\stl_list.h **** 	{ }
 339:c:\nxp\mcuxpressoide_10.2.1_795\ide\tools\arm-none-eabi\include\c++\7.2.1\bits\stl_list.h **** 
 340:c:\nxp\mcuxpressoide_10.2.1_795\ide\tools\arm-none-eabi\include\c++\7.2.1\bits\stl_list.h **** #if __cplusplus >= 201103L
 341:c:\nxp\mcuxpressoide_10.2.1_795\ide\tools\arm-none-eabi\include\c++\7.2.1\bits\stl_list.h **** 	_List_impl(_Node_alloc_type&& __a) noexcept
 342:c:\nxp\mcuxpressoide_10.2.1_795\ide\tools\arm-none-eabi\include\c++\7.2.1\bits\stl_list.h **** 	: _Node_alloc_type(std::move(__a)), _M_node()
 343:c:\nxp\mcuxpressoide_10.2.1_795\ide\tools\arm-none-eabi\include\c++\7.2.1\bits\stl_list.h **** 	{ }
 344:c:\nxp\mcuxpressoide_10.2.1_795\ide\tools\arm-none-eabi\include\c++\7.2.1\bits\stl_list.h **** #endif
 345:c:\nxp\mcuxpressoide_10.2.1_795\ide\tools\arm-none-eabi\include\c++\7.2.1\bits\stl_list.h ****       };
 346:c:\nxp\mcuxpressoide_10.2.1_795\ide\tools\arm-none-eabi\include\c++\7.2.1\bits\stl_list.h **** 
 347:c:\nxp\mcuxpressoide_10.2.1_795\ide\tools\arm-none-eabi\include\c++\7.2.1\bits\stl_list.h ****       _List_impl _M_impl;
 348:c:\nxp\mcuxpressoide_10.2.1_795\ide\tools\arm-none-eabi\include\c++\7.2.1\bits\stl_list.h **** 
 349:c:\nxp\mcuxpressoide_10.2.1_795\ide\tools\arm-none-eabi\include\c++\7.2.1\bits\stl_list.h **** #if _GLIBCXX_USE_CXX11_ABI
 350:c:\nxp\mcuxpressoide_10.2.1_795\ide\tools\arm-none-eabi\include\c++\7.2.1\bits\stl_list.h ****       size_t _M_get_size() const { return *_M_impl._M_node._M_valptr(); }
 351:c:\nxp\mcuxpressoide_10.2.1_795\ide\tools\arm-none-eabi\include\c++\7.2.1\bits\stl_list.h **** 
 352:c:\nxp\mcuxpressoide_10.2.1_795\ide\tools\arm-none-eabi\include\c++\7.2.1\bits\stl_list.h ****       void _M_set_size(size_t __n) { *_M_impl._M_node._M_valptr() = __n; }
 353:c:\nxp\mcuxpressoide_10.2.1_795\ide\tools\arm-none-eabi\include\c++\7.2.1\bits\stl_list.h **** 
 354:c:\nxp\mcuxpressoide_10.2.1_795\ide\tools\arm-none-eabi\include\c++\7.2.1\bits\stl_list.h ****       void _M_inc_size(size_t __n) { *_M_impl._M_node._M_valptr() += __n; }
 355:c:\nxp\mcuxpressoide_10.2.1_795\ide\tools\arm-none-eabi\include\c++\7.2.1\bits\stl_list.h **** 
 356:c:\nxp\mcuxpressoide_10.2.1_795\ide\tools\arm-none-eabi\include\c++\7.2.1\bits\stl_list.h ****       void _M_dec_size(size_t __n) { *_M_impl._M_node._M_valptr() -= __n; }
 357:c:\nxp\mcuxpressoide_10.2.1_795\ide\tools\arm-none-eabi\include\c++\7.2.1\bits\stl_list.h **** 
 358:c:\nxp\mcuxpressoide_10.2.1_795\ide\tools\arm-none-eabi\include\c++\7.2.1\bits\stl_list.h ****       size_t
 359:c:\nxp\mcuxpressoide_10.2.1_795\ide\tools\arm-none-eabi\include\c++\7.2.1\bits\stl_list.h ****       _M_distance(const __detail::_List_node_base* __first,
 360:c:\nxp\mcuxpressoide_10.2.1_795\ide\tools\arm-none-eabi\include\c++\7.2.1\bits\stl_list.h **** 		  const __detail::_List_node_base* __last) const
 361:c:\nxp\mcuxpressoide_10.2.1_795\ide\tools\arm-none-eabi\include\c++\7.2.1\bits\stl_list.h ****       { return _S_distance(__first, __last); }
 362:c:\nxp\mcuxpressoide_10.2.1_795\ide\tools\arm-none-eabi\include\c++\7.2.1\bits\stl_list.h **** 
 363:c:\nxp\mcuxpressoide_10.2.1_795\ide\tools\arm-none-eabi\include\c++\7.2.1\bits\stl_list.h ****       // return the stored size
 364:c:\nxp\mcuxpressoide_10.2.1_795\ide\tools\arm-none-eabi\include\c++\7.2.1\bits\stl_list.h ****       size_t _M_node_count() const { return *_M_impl._M_node._M_valptr(); }
 365:c:\nxp\mcuxpressoide_10.2.1_795\ide\tools\arm-none-eabi\include\c++\7.2.1\bits\stl_list.h **** #else
 366:c:\nxp\mcuxpressoide_10.2.1_795\ide\tools\arm-none-eabi\include\c++\7.2.1\bits\stl_list.h ****       // dummy implementations used when the size is not stored
 367:c:\nxp\mcuxpressoide_10.2.1_795\ide\tools\arm-none-eabi\include\c++\7.2.1\bits\stl_list.h ****       size_t _M_get_size() const { return 0; }
 368:c:\nxp\mcuxpressoide_10.2.1_795\ide\tools\arm-none-eabi\include\c++\7.2.1\bits\stl_list.h ****       void _M_set_size(size_t) { }
 369:c:\nxp\mcuxpressoide_10.2.1_795\ide\tools\arm-none-eabi\include\c++\7.2.1\bits\stl_list.h ****       void _M_inc_size(size_t) { }
 370:c:\nxp\mcuxpressoide_10.2.1_795\ide\tools\arm-none-eabi\include\c++\7.2.1\bits\stl_list.h ****       void _M_dec_size(size_t) { }
 371:c:\nxp\mcuxpressoide_10.2.1_795\ide\tools\arm-none-eabi\include\c++\7.2.1\bits\stl_list.h ****       size_t _M_distance(const void*, const void*) const { return 0; }
 372:c:\nxp\mcuxpressoide_10.2.1_795\ide\tools\arm-none-eabi\include\c++\7.2.1\bits\stl_list.h **** 
 373:c:\nxp\mcuxpressoide_10.2.1_795\ide\tools\arm-none-eabi\include\c++\7.2.1\bits\stl_list.h ****       // count the number of nodes
 374:c:\nxp\mcuxpressoide_10.2.1_795\ide\tools\arm-none-eabi\include\c++\7.2.1\bits\stl_list.h ****       size_t _M_node_count() const
 375:c:\nxp\mcuxpressoide_10.2.1_795\ide\tools\arm-none-eabi\include\c++\7.2.1\bits\stl_list.h ****       {
 376:c:\nxp\mcuxpressoide_10.2.1_795\ide\tools\arm-none-eabi\include\c++\7.2.1\bits\stl_list.h **** 	return _S_distance(_M_impl._M_node._M_next,
 377:c:\nxp\mcuxpressoide_10.2.1_795\ide\tools\arm-none-eabi\include\c++\7.2.1\bits\stl_list.h **** 			   std::__addressof(_M_impl._M_node));
 378:c:\nxp\mcuxpressoide_10.2.1_795\ide\tools\arm-none-eabi\include\c++\7.2.1\bits\stl_list.h ****       }
 379:c:\nxp\mcuxpressoide_10.2.1_795\ide\tools\arm-none-eabi\include\c++\7.2.1\bits\stl_list.h **** #endif
 380:c:\nxp\mcuxpressoide_10.2.1_795\ide\tools\arm-none-eabi\include\c++\7.2.1\bits\stl_list.h **** 
 381:c:\nxp\mcuxpressoide_10.2.1_795\ide\tools\arm-none-eabi\include\c++\7.2.1\bits\stl_list.h ****       typename _Node_alloc_traits::pointer
 382:c:\nxp\mcuxpressoide_10.2.1_795\ide\tools\arm-none-eabi\include\c++\7.2.1\bits\stl_list.h ****       _M_get_node()
 383:c:\nxp\mcuxpressoide_10.2.1_795\ide\tools\arm-none-eabi\include\c++\7.2.1\bits\stl_list.h ****       { return _Node_alloc_traits::allocate(_M_impl, 1); }
 384:c:\nxp\mcuxpressoide_10.2.1_795\ide\tools\arm-none-eabi\include\c++\7.2.1\bits\stl_list.h **** 
 385:c:\nxp\mcuxpressoide_10.2.1_795\ide\tools\arm-none-eabi\include\c++\7.2.1\bits\stl_list.h ****       void
 386:c:\nxp\mcuxpressoide_10.2.1_795\ide\tools\arm-none-eabi\include\c++\7.2.1\bits\stl_list.h ****       _M_put_node(typename _Node_alloc_traits::pointer __p) _GLIBCXX_NOEXCEPT
 387:c:\nxp\mcuxpressoide_10.2.1_795\ide\tools\arm-none-eabi\include\c++\7.2.1\bits\stl_list.h ****       { _Node_alloc_traits::deallocate(_M_impl, __p, 1); }
 388:c:\nxp\mcuxpressoide_10.2.1_795\ide\tools\arm-none-eabi\include\c++\7.2.1\bits\stl_list.h **** 
 389:c:\nxp\mcuxpressoide_10.2.1_795\ide\tools\arm-none-eabi\include\c++\7.2.1\bits\stl_list.h ****   public:
 390:c:\nxp\mcuxpressoide_10.2.1_795\ide\tools\arm-none-eabi\include\c++\7.2.1\bits\stl_list.h ****       typedef _Alloc allocator_type;
 391:c:\nxp\mcuxpressoide_10.2.1_795\ide\tools\arm-none-eabi\include\c++\7.2.1\bits\stl_list.h **** 
 392:c:\nxp\mcuxpressoide_10.2.1_795\ide\tools\arm-none-eabi\include\c++\7.2.1\bits\stl_list.h ****       _Node_alloc_type&
 393:c:\nxp\mcuxpressoide_10.2.1_795\ide\tools\arm-none-eabi\include\c++\7.2.1\bits\stl_list.h ****       _M_get_Node_allocator() _GLIBCXX_NOEXCEPT
 394:c:\nxp\mcuxpressoide_10.2.1_795\ide\tools\arm-none-eabi\include\c++\7.2.1\bits\stl_list.h ****       { return _M_impl; }
ARM GAS  C:\Users\xavie\AppData\Local\Temp\ccUw5nyp.s 			page 22


 395:c:\nxp\mcuxpressoide_10.2.1_795\ide\tools\arm-none-eabi\include\c++\7.2.1\bits\stl_list.h **** 
 396:c:\nxp\mcuxpressoide_10.2.1_795\ide\tools\arm-none-eabi\include\c++\7.2.1\bits\stl_list.h ****       const _Node_alloc_type&
 397:c:\nxp\mcuxpressoide_10.2.1_795\ide\tools\arm-none-eabi\include\c++\7.2.1\bits\stl_list.h ****       _M_get_Node_allocator() const _GLIBCXX_NOEXCEPT
 398:c:\nxp\mcuxpressoide_10.2.1_795\ide\tools\arm-none-eabi\include\c++\7.2.1\bits\stl_list.h ****       { return _M_impl; }
 399:c:\nxp\mcuxpressoide_10.2.1_795\ide\tools\arm-none-eabi\include\c++\7.2.1\bits\stl_list.h **** 
 400:c:\nxp\mcuxpressoide_10.2.1_795\ide\tools\arm-none-eabi\include\c++\7.2.1\bits\stl_list.h ****       _List_base()
 401:c:\nxp\mcuxpressoide_10.2.1_795\ide\tools\arm-none-eabi\include\c++\7.2.1\bits\stl_list.h ****       : _M_impl()
 402:c:\nxp\mcuxpressoide_10.2.1_795\ide\tools\arm-none-eabi\include\c++\7.2.1\bits\stl_list.h ****       { _M_init(); }
 403:c:\nxp\mcuxpressoide_10.2.1_795\ide\tools\arm-none-eabi\include\c++\7.2.1\bits\stl_list.h **** 
 404:c:\nxp\mcuxpressoide_10.2.1_795\ide\tools\arm-none-eabi\include\c++\7.2.1\bits\stl_list.h ****       _List_base(const _Node_alloc_type& __a) _GLIBCXX_NOEXCEPT
 405:c:\nxp\mcuxpressoide_10.2.1_795\ide\tools\arm-none-eabi\include\c++\7.2.1\bits\stl_list.h ****       : _M_impl(__a)
 406:c:\nxp\mcuxpressoide_10.2.1_795\ide\tools\arm-none-eabi\include\c++\7.2.1\bits\stl_list.h ****       { _M_init(); }
 407:c:\nxp\mcuxpressoide_10.2.1_795\ide\tools\arm-none-eabi\include\c++\7.2.1\bits\stl_list.h **** 
 408:c:\nxp\mcuxpressoide_10.2.1_795\ide\tools\arm-none-eabi\include\c++\7.2.1\bits\stl_list.h **** #if __cplusplus >= 201103L
 409:c:\nxp\mcuxpressoide_10.2.1_795\ide\tools\arm-none-eabi\include\c++\7.2.1\bits\stl_list.h ****       _List_base(_List_base&& __x) noexcept
 410:c:\nxp\mcuxpressoide_10.2.1_795\ide\tools\arm-none-eabi\include\c++\7.2.1\bits\stl_list.h ****       : _M_impl(std::move(__x._M_get_Node_allocator()))
 411:c:\nxp\mcuxpressoide_10.2.1_795\ide\tools\arm-none-eabi\include\c++\7.2.1\bits\stl_list.h ****       { _M_move_nodes(std::move(__x)); }
 412:c:\nxp\mcuxpressoide_10.2.1_795\ide\tools\arm-none-eabi\include\c++\7.2.1\bits\stl_list.h **** 
 413:c:\nxp\mcuxpressoide_10.2.1_795\ide\tools\arm-none-eabi\include\c++\7.2.1\bits\stl_list.h ****       _List_base(_List_base&& __x, _Node_alloc_type&& __a)
 414:c:\nxp\mcuxpressoide_10.2.1_795\ide\tools\arm-none-eabi\include\c++\7.2.1\bits\stl_list.h ****       : _M_impl(std::move(__a))
 415:c:\nxp\mcuxpressoide_10.2.1_795\ide\tools\arm-none-eabi\include\c++\7.2.1\bits\stl_list.h ****       {
 416:c:\nxp\mcuxpressoide_10.2.1_795\ide\tools\arm-none-eabi\include\c++\7.2.1\bits\stl_list.h **** 	if (__x._M_get_Node_allocator() == _M_get_Node_allocator())
 417:c:\nxp\mcuxpressoide_10.2.1_795\ide\tools\arm-none-eabi\include\c++\7.2.1\bits\stl_list.h **** 	  _M_move_nodes(std::move(__x));
 418:c:\nxp\mcuxpressoide_10.2.1_795\ide\tools\arm-none-eabi\include\c++\7.2.1\bits\stl_list.h **** 	else
 419:c:\nxp\mcuxpressoide_10.2.1_795\ide\tools\arm-none-eabi\include\c++\7.2.1\bits\stl_list.h **** 	  _M_init(); // Caller must move individual elements.
 420:c:\nxp\mcuxpressoide_10.2.1_795\ide\tools\arm-none-eabi\include\c++\7.2.1\bits\stl_list.h ****       }
 421:c:\nxp\mcuxpressoide_10.2.1_795\ide\tools\arm-none-eabi\include\c++\7.2.1\bits\stl_list.h **** 
 422:c:\nxp\mcuxpressoide_10.2.1_795\ide\tools\arm-none-eabi\include\c++\7.2.1\bits\stl_list.h ****       void
 423:c:\nxp\mcuxpressoide_10.2.1_795\ide\tools\arm-none-eabi\include\c++\7.2.1\bits\stl_list.h ****       _M_move_nodes(_List_base&& __x)
 424:c:\nxp\mcuxpressoide_10.2.1_795\ide\tools\arm-none-eabi\include\c++\7.2.1\bits\stl_list.h ****       {
 425:c:\nxp\mcuxpressoide_10.2.1_795\ide\tools\arm-none-eabi\include\c++\7.2.1\bits\stl_list.h **** 	auto* const __xnode = std::__addressof(__x._M_impl._M_node);
 426:c:\nxp\mcuxpressoide_10.2.1_795\ide\tools\arm-none-eabi\include\c++\7.2.1\bits\stl_list.h **** 	if (__xnode->_M_next == __xnode)
 427:c:\nxp\mcuxpressoide_10.2.1_795\ide\tools\arm-none-eabi\include\c++\7.2.1\bits\stl_list.h **** 	  _M_init();
 428:c:\nxp\mcuxpressoide_10.2.1_795\ide\tools\arm-none-eabi\include\c++\7.2.1\bits\stl_list.h **** 	else
 429:c:\nxp\mcuxpressoide_10.2.1_795\ide\tools\arm-none-eabi\include\c++\7.2.1\bits\stl_list.h **** 	  {
 430:c:\nxp\mcuxpressoide_10.2.1_795\ide\tools\arm-none-eabi\include\c++\7.2.1\bits\stl_list.h **** 	    auto* const __node = std::__addressof(_M_impl._M_node);
 431:c:\nxp\mcuxpressoide_10.2.1_795\ide\tools\arm-none-eabi\include\c++\7.2.1\bits\stl_list.h **** 	    __node->_M_next = __xnode->_M_next;
 432:c:\nxp\mcuxpressoide_10.2.1_795\ide\tools\arm-none-eabi\include\c++\7.2.1\bits\stl_list.h **** 	    __node->_M_prev = __xnode->_M_prev;
 433:c:\nxp\mcuxpressoide_10.2.1_795\ide\tools\arm-none-eabi\include\c++\7.2.1\bits\stl_list.h **** 	    __node->_M_next->_M_prev = __node->_M_prev->_M_next = __node;
 434:c:\nxp\mcuxpressoide_10.2.1_795\ide\tools\arm-none-eabi\include\c++\7.2.1\bits\stl_list.h **** 	    _M_set_size(__x._M_get_size());
 435:c:\nxp\mcuxpressoide_10.2.1_795\ide\tools\arm-none-eabi\include\c++\7.2.1\bits\stl_list.h **** 	    __x._M_init();
 436:c:\nxp\mcuxpressoide_10.2.1_795\ide\tools\arm-none-eabi\include\c++\7.2.1\bits\stl_list.h **** 	  }
 437:c:\nxp\mcuxpressoide_10.2.1_795\ide\tools\arm-none-eabi\include\c++\7.2.1\bits\stl_list.h ****       }
 438:c:\nxp\mcuxpressoide_10.2.1_795\ide\tools\arm-none-eabi\include\c++\7.2.1\bits\stl_list.h **** #endif
 439:c:\nxp\mcuxpressoide_10.2.1_795\ide\tools\arm-none-eabi\include\c++\7.2.1\bits\stl_list.h **** 
 440:c:\nxp\mcuxpressoide_10.2.1_795\ide\tools\arm-none-eabi\include\c++\7.2.1\bits\stl_list.h ****       // This is what actually destroys the list.
 441:c:\nxp\mcuxpressoide_10.2.1_795\ide\tools\arm-none-eabi\include\c++\7.2.1\bits\stl_list.h ****       ~_List_base() _GLIBCXX_NOEXCEPT
 442:c:\nxp\mcuxpressoide_10.2.1_795\ide\tools\arm-none-eabi\include\c++\7.2.1\bits\stl_list.h ****       { _M_clear(); }
 443:c:\nxp\mcuxpressoide_10.2.1_795\ide\tools\arm-none-eabi\include\c++\7.2.1\bits\stl_list.h **** 
 444:c:\nxp\mcuxpressoide_10.2.1_795\ide\tools\arm-none-eabi\include\c++\7.2.1\bits\stl_list.h ****       void
 445:c:\nxp\mcuxpressoide_10.2.1_795\ide\tools\arm-none-eabi\include\c++\7.2.1\bits\stl_list.h ****       _M_clear() _GLIBCXX_NOEXCEPT;
 446:c:\nxp\mcuxpressoide_10.2.1_795\ide\tools\arm-none-eabi\include\c++\7.2.1\bits\stl_list.h **** 
 447:c:\nxp\mcuxpressoide_10.2.1_795\ide\tools\arm-none-eabi\include\c++\7.2.1\bits\stl_list.h ****       void
 448:c:\nxp\mcuxpressoide_10.2.1_795\ide\tools\arm-none-eabi\include\c++\7.2.1\bits\stl_list.h ****       _M_init() _GLIBCXX_NOEXCEPT
 449:c:\nxp\mcuxpressoide_10.2.1_795\ide\tools\arm-none-eabi\include\c++\7.2.1\bits\stl_list.h ****       {
 450:c:\nxp\mcuxpressoide_10.2.1_795\ide\tools\arm-none-eabi\include\c++\7.2.1\bits\stl_list.h **** 	this->_M_impl._M_node._M_next = &this->_M_impl._M_node;
 451:c:\nxp\mcuxpressoide_10.2.1_795\ide\tools\arm-none-eabi\include\c++\7.2.1\bits\stl_list.h **** 	this->_M_impl._M_node._M_prev = &this->_M_impl._M_node;
ARM GAS  C:\Users\xavie\AppData\Local\Temp\ccUw5nyp.s 			page 23


 452:c:\nxp\mcuxpressoide_10.2.1_795\ide\tools\arm-none-eabi\include\c++\7.2.1\bits\stl_list.h **** 	_M_set_size(0);
 453:c:\nxp\mcuxpressoide_10.2.1_795\ide\tools\arm-none-eabi\include\c++\7.2.1\bits\stl_list.h ****       }
 454:c:\nxp\mcuxpressoide_10.2.1_795\ide\tools\arm-none-eabi\include\c++\7.2.1\bits\stl_list.h ****     };
 455:c:\nxp\mcuxpressoide_10.2.1_795\ide\tools\arm-none-eabi\include\c++\7.2.1\bits\stl_list.h **** 
 456:c:\nxp\mcuxpressoide_10.2.1_795\ide\tools\arm-none-eabi\include\c++\7.2.1\bits\stl_list.h ****   /**
 457:c:\nxp\mcuxpressoide_10.2.1_795\ide\tools\arm-none-eabi\include\c++\7.2.1\bits\stl_list.h ****    *  @brief A standard container with linear time access to elements,
 458:c:\nxp\mcuxpressoide_10.2.1_795\ide\tools\arm-none-eabi\include\c++\7.2.1\bits\stl_list.h ****    *  and fixed time insertion/deletion at any point in the sequence.
 459:c:\nxp\mcuxpressoide_10.2.1_795\ide\tools\arm-none-eabi\include\c++\7.2.1\bits\stl_list.h ****    *
 460:c:\nxp\mcuxpressoide_10.2.1_795\ide\tools\arm-none-eabi\include\c++\7.2.1\bits\stl_list.h ****    *  @ingroup sequences
 461:c:\nxp\mcuxpressoide_10.2.1_795\ide\tools\arm-none-eabi\include\c++\7.2.1\bits\stl_list.h ****    *
 462:c:\nxp\mcuxpressoide_10.2.1_795\ide\tools\arm-none-eabi\include\c++\7.2.1\bits\stl_list.h ****    *  @tparam _Tp  Type of element.
 463:c:\nxp\mcuxpressoide_10.2.1_795\ide\tools\arm-none-eabi\include\c++\7.2.1\bits\stl_list.h ****    *  @tparam _Alloc  Allocator type, defaults to allocator<_Tp>.
 464:c:\nxp\mcuxpressoide_10.2.1_795\ide\tools\arm-none-eabi\include\c++\7.2.1\bits\stl_list.h ****    *
 465:c:\nxp\mcuxpressoide_10.2.1_795\ide\tools\arm-none-eabi\include\c++\7.2.1\bits\stl_list.h ****    *  Meets the requirements of a <a href="tables.html#65">container</a>, a
 466:c:\nxp\mcuxpressoide_10.2.1_795\ide\tools\arm-none-eabi\include\c++\7.2.1\bits\stl_list.h ****    *  <a href="tables.html#66">reversible container</a>, and a
 467:c:\nxp\mcuxpressoide_10.2.1_795\ide\tools\arm-none-eabi\include\c++\7.2.1\bits\stl_list.h ****    *  <a href="tables.html#67">sequence</a>, including the
 468:c:\nxp\mcuxpressoide_10.2.1_795\ide\tools\arm-none-eabi\include\c++\7.2.1\bits\stl_list.h ****    *  <a href="tables.html#68">optional sequence requirements</a> with the
 469:c:\nxp\mcuxpressoide_10.2.1_795\ide\tools\arm-none-eabi\include\c++\7.2.1\bits\stl_list.h ****    *  %exception of @c at and @c operator[].
 470:c:\nxp\mcuxpressoide_10.2.1_795\ide\tools\arm-none-eabi\include\c++\7.2.1\bits\stl_list.h ****    *
 471:c:\nxp\mcuxpressoide_10.2.1_795\ide\tools\arm-none-eabi\include\c++\7.2.1\bits\stl_list.h ****    *  This is a @e doubly @e linked %list.  Traversal up and down the
 472:c:\nxp\mcuxpressoide_10.2.1_795\ide\tools\arm-none-eabi\include\c++\7.2.1\bits\stl_list.h ****    *  %list requires linear time, but adding and removing elements (or
 473:c:\nxp\mcuxpressoide_10.2.1_795\ide\tools\arm-none-eabi\include\c++\7.2.1\bits\stl_list.h ****    *  @e nodes) is done in constant time, regardless of where the
 474:c:\nxp\mcuxpressoide_10.2.1_795\ide\tools\arm-none-eabi\include\c++\7.2.1\bits\stl_list.h ****    *  change takes place.  Unlike std::vector and std::deque,
 475:c:\nxp\mcuxpressoide_10.2.1_795\ide\tools\arm-none-eabi\include\c++\7.2.1\bits\stl_list.h ****    *  random-access iterators are not provided, so subscripting ( @c
 476:c:\nxp\mcuxpressoide_10.2.1_795\ide\tools\arm-none-eabi\include\c++\7.2.1\bits\stl_list.h ****    *  [] ) access is not allowed.  For algorithms which only need
 477:c:\nxp\mcuxpressoide_10.2.1_795\ide\tools\arm-none-eabi\include\c++\7.2.1\bits\stl_list.h ****    *  sequential access, this lack makes no difference.
 478:c:\nxp\mcuxpressoide_10.2.1_795\ide\tools\arm-none-eabi\include\c++\7.2.1\bits\stl_list.h ****    *
 479:c:\nxp\mcuxpressoide_10.2.1_795\ide\tools\arm-none-eabi\include\c++\7.2.1\bits\stl_list.h ****    *  Also unlike the other standard containers, std::list provides
 480:c:\nxp\mcuxpressoide_10.2.1_795\ide\tools\arm-none-eabi\include\c++\7.2.1\bits\stl_list.h ****    *  specialized algorithms %unique to linked lists, such as
 481:c:\nxp\mcuxpressoide_10.2.1_795\ide\tools\arm-none-eabi\include\c++\7.2.1\bits\stl_list.h ****    *  splicing, sorting, and in-place reversal.
 482:c:\nxp\mcuxpressoide_10.2.1_795\ide\tools\arm-none-eabi\include\c++\7.2.1\bits\stl_list.h ****    *
 483:c:\nxp\mcuxpressoide_10.2.1_795\ide\tools\arm-none-eabi\include\c++\7.2.1\bits\stl_list.h ****    *  A couple points on memory allocation for list<Tp>:
 484:c:\nxp\mcuxpressoide_10.2.1_795\ide\tools\arm-none-eabi\include\c++\7.2.1\bits\stl_list.h ****    *
 485:c:\nxp\mcuxpressoide_10.2.1_795\ide\tools\arm-none-eabi\include\c++\7.2.1\bits\stl_list.h ****    *  First, we never actually allocate a Tp, we allocate
 486:c:\nxp\mcuxpressoide_10.2.1_795\ide\tools\arm-none-eabi\include\c++\7.2.1\bits\stl_list.h ****    *  List_node<Tp>'s and trust [20.1.5]/4 to DTRT.  This is to ensure
 487:c:\nxp\mcuxpressoide_10.2.1_795\ide\tools\arm-none-eabi\include\c++\7.2.1\bits\stl_list.h ****    *  that after elements from %list<X,Alloc1> are spliced into
 488:c:\nxp\mcuxpressoide_10.2.1_795\ide\tools\arm-none-eabi\include\c++\7.2.1\bits\stl_list.h ****    *  %list<X,Alloc2>, destroying the memory of the second %list is a
 489:c:\nxp\mcuxpressoide_10.2.1_795\ide\tools\arm-none-eabi\include\c++\7.2.1\bits\stl_list.h ****    *  valid operation, i.e., Alloc1 giveth and Alloc2 taketh away.
 490:c:\nxp\mcuxpressoide_10.2.1_795\ide\tools\arm-none-eabi\include\c++\7.2.1\bits\stl_list.h ****    *
 491:c:\nxp\mcuxpressoide_10.2.1_795\ide\tools\arm-none-eabi\include\c++\7.2.1\bits\stl_list.h ****    *  Second, a %list conceptually represented as
 492:c:\nxp\mcuxpressoide_10.2.1_795\ide\tools\arm-none-eabi\include\c++\7.2.1\bits\stl_list.h ****    *  @code
 493:c:\nxp\mcuxpressoide_10.2.1_795\ide\tools\arm-none-eabi\include\c++\7.2.1\bits\stl_list.h ****    *    A <---> B <---> C <---> D
 494:c:\nxp\mcuxpressoide_10.2.1_795\ide\tools\arm-none-eabi\include\c++\7.2.1\bits\stl_list.h ****    *  @endcode
 495:c:\nxp\mcuxpressoide_10.2.1_795\ide\tools\arm-none-eabi\include\c++\7.2.1\bits\stl_list.h ****    *  is actually circular; a link exists between A and D.  The %list
 496:c:\nxp\mcuxpressoide_10.2.1_795\ide\tools\arm-none-eabi\include\c++\7.2.1\bits\stl_list.h ****    *  class holds (as its only data member) a private list::iterator
 497:c:\nxp\mcuxpressoide_10.2.1_795\ide\tools\arm-none-eabi\include\c++\7.2.1\bits\stl_list.h ****    *  pointing to @e D, not to @e A!  To get to the head of the %list,
 498:c:\nxp\mcuxpressoide_10.2.1_795\ide\tools\arm-none-eabi\include\c++\7.2.1\bits\stl_list.h ****    *  we start at the tail and move forward by one.  When this member
 499:c:\nxp\mcuxpressoide_10.2.1_795\ide\tools\arm-none-eabi\include\c++\7.2.1\bits\stl_list.h ****    *  iterator's next/previous pointers refer to itself, the %list is
 500:c:\nxp\mcuxpressoide_10.2.1_795\ide\tools\arm-none-eabi\include\c++\7.2.1\bits\stl_list.h ****    *  %empty.
 501:c:\nxp\mcuxpressoide_10.2.1_795\ide\tools\arm-none-eabi\include\c++\7.2.1\bits\stl_list.h ****   */
 502:c:\nxp\mcuxpressoide_10.2.1_795\ide\tools\arm-none-eabi\include\c++\7.2.1\bits\stl_list.h ****   template<typename _Tp, typename _Alloc = std::allocator<_Tp> >
 503:c:\nxp\mcuxpressoide_10.2.1_795\ide\tools\arm-none-eabi\include\c++\7.2.1\bits\stl_list.h ****     class list : protected _List_base<_Tp, _Alloc>
 504:c:\nxp\mcuxpressoide_10.2.1_795\ide\tools\arm-none-eabi\include\c++\7.2.1\bits\stl_list.h ****     {
 505:c:\nxp\mcuxpressoide_10.2.1_795\ide\tools\arm-none-eabi\include\c++\7.2.1\bits\stl_list.h **** #ifdef _GLIBCXX_CONCEPT_CHECKS
 506:c:\nxp\mcuxpressoide_10.2.1_795\ide\tools\arm-none-eabi\include\c++\7.2.1\bits\stl_list.h ****       // concept requirements
 507:c:\nxp\mcuxpressoide_10.2.1_795\ide\tools\arm-none-eabi\include\c++\7.2.1\bits\stl_list.h ****       typedef typename _Alloc::value_type		_Alloc_value_type;
 508:c:\nxp\mcuxpressoide_10.2.1_795\ide\tools\arm-none-eabi\include\c++\7.2.1\bits\stl_list.h **** # if __cplusplus < 201103L
ARM GAS  C:\Users\xavie\AppData\Local\Temp\ccUw5nyp.s 			page 24


 509:c:\nxp\mcuxpressoide_10.2.1_795\ide\tools\arm-none-eabi\include\c++\7.2.1\bits\stl_list.h ****       __glibcxx_class_requires(_Tp, _SGIAssignableConcept)
 510:c:\nxp\mcuxpressoide_10.2.1_795\ide\tools\arm-none-eabi\include\c++\7.2.1\bits\stl_list.h **** # endif
 511:c:\nxp\mcuxpressoide_10.2.1_795\ide\tools\arm-none-eabi\include\c++\7.2.1\bits\stl_list.h ****       __glibcxx_class_requires2(_Tp, _Alloc_value_type, _SameTypeConcept)
 512:c:\nxp\mcuxpressoide_10.2.1_795\ide\tools\arm-none-eabi\include\c++\7.2.1\bits\stl_list.h **** #endif
 513:c:\nxp\mcuxpressoide_10.2.1_795\ide\tools\arm-none-eabi\include\c++\7.2.1\bits\stl_list.h **** 
 514:c:\nxp\mcuxpressoide_10.2.1_795\ide\tools\arm-none-eabi\include\c++\7.2.1\bits\stl_list.h ****       typedef _List_base<_Tp, _Alloc>			_Base;
 515:c:\nxp\mcuxpressoide_10.2.1_795\ide\tools\arm-none-eabi\include\c++\7.2.1\bits\stl_list.h ****       typedef typename _Base::_Tp_alloc_type		_Tp_alloc_type;
 516:c:\nxp\mcuxpressoide_10.2.1_795\ide\tools\arm-none-eabi\include\c++\7.2.1\bits\stl_list.h ****       typedef typename _Base::_Tp_alloc_traits		_Tp_alloc_traits;
 517:c:\nxp\mcuxpressoide_10.2.1_795\ide\tools\arm-none-eabi\include\c++\7.2.1\bits\stl_list.h ****       typedef typename _Base::_Node_alloc_type		_Node_alloc_type;
 518:c:\nxp\mcuxpressoide_10.2.1_795\ide\tools\arm-none-eabi\include\c++\7.2.1\bits\stl_list.h ****       typedef typename _Base::_Node_alloc_traits	_Node_alloc_traits;
 519:c:\nxp\mcuxpressoide_10.2.1_795\ide\tools\arm-none-eabi\include\c++\7.2.1\bits\stl_list.h **** 
 520:c:\nxp\mcuxpressoide_10.2.1_795\ide\tools\arm-none-eabi\include\c++\7.2.1\bits\stl_list.h ****     public:
 521:c:\nxp\mcuxpressoide_10.2.1_795\ide\tools\arm-none-eabi\include\c++\7.2.1\bits\stl_list.h ****       typedef _Tp					 value_type;
 522:c:\nxp\mcuxpressoide_10.2.1_795\ide\tools\arm-none-eabi\include\c++\7.2.1\bits\stl_list.h ****       typedef typename _Tp_alloc_traits::pointer	 pointer;
 523:c:\nxp\mcuxpressoide_10.2.1_795\ide\tools\arm-none-eabi\include\c++\7.2.1\bits\stl_list.h ****       typedef typename _Tp_alloc_traits::const_pointer	 const_pointer;
 524:c:\nxp\mcuxpressoide_10.2.1_795\ide\tools\arm-none-eabi\include\c++\7.2.1\bits\stl_list.h ****       typedef typename _Tp_alloc_traits::reference	 reference;
 525:c:\nxp\mcuxpressoide_10.2.1_795\ide\tools\arm-none-eabi\include\c++\7.2.1\bits\stl_list.h ****       typedef typename _Tp_alloc_traits::const_reference const_reference;
 526:c:\nxp\mcuxpressoide_10.2.1_795\ide\tools\arm-none-eabi\include\c++\7.2.1\bits\stl_list.h ****       typedef _List_iterator<_Tp>			 iterator;
 527:c:\nxp\mcuxpressoide_10.2.1_795\ide\tools\arm-none-eabi\include\c++\7.2.1\bits\stl_list.h ****       typedef _List_const_iterator<_Tp>			 const_iterator;
 528:c:\nxp\mcuxpressoide_10.2.1_795\ide\tools\arm-none-eabi\include\c++\7.2.1\bits\stl_list.h ****       typedef std::reverse_iterator<const_iterator>	 const_reverse_iterator;
 529:c:\nxp\mcuxpressoide_10.2.1_795\ide\tools\arm-none-eabi\include\c++\7.2.1\bits\stl_list.h ****       typedef std::reverse_iterator<iterator>		 reverse_iterator;
 530:c:\nxp\mcuxpressoide_10.2.1_795\ide\tools\arm-none-eabi\include\c++\7.2.1\bits\stl_list.h ****       typedef size_t					 size_type;
 531:c:\nxp\mcuxpressoide_10.2.1_795\ide\tools\arm-none-eabi\include\c++\7.2.1\bits\stl_list.h ****       typedef ptrdiff_t					 difference_type;
 532:c:\nxp\mcuxpressoide_10.2.1_795\ide\tools\arm-none-eabi\include\c++\7.2.1\bits\stl_list.h ****       typedef _Alloc					 allocator_type;
 533:c:\nxp\mcuxpressoide_10.2.1_795\ide\tools\arm-none-eabi\include\c++\7.2.1\bits\stl_list.h **** 
 534:c:\nxp\mcuxpressoide_10.2.1_795\ide\tools\arm-none-eabi\include\c++\7.2.1\bits\stl_list.h ****     protected:
 535:c:\nxp\mcuxpressoide_10.2.1_795\ide\tools\arm-none-eabi\include\c++\7.2.1\bits\stl_list.h ****       // Note that pointers-to-_Node's can be ctor-converted to
 536:c:\nxp\mcuxpressoide_10.2.1_795\ide\tools\arm-none-eabi\include\c++\7.2.1\bits\stl_list.h ****       // iterator types.
 537:c:\nxp\mcuxpressoide_10.2.1_795\ide\tools\arm-none-eabi\include\c++\7.2.1\bits\stl_list.h ****       typedef _List_node<_Tp>				 _Node;
 538:c:\nxp\mcuxpressoide_10.2.1_795\ide\tools\arm-none-eabi\include\c++\7.2.1\bits\stl_list.h **** 
 539:c:\nxp\mcuxpressoide_10.2.1_795\ide\tools\arm-none-eabi\include\c++\7.2.1\bits\stl_list.h ****       using _Base::_M_impl;
 540:c:\nxp\mcuxpressoide_10.2.1_795\ide\tools\arm-none-eabi\include\c++\7.2.1\bits\stl_list.h ****       using _Base::_M_put_node;
 541:c:\nxp\mcuxpressoide_10.2.1_795\ide\tools\arm-none-eabi\include\c++\7.2.1\bits\stl_list.h ****       using _Base::_M_get_node;
 542:c:\nxp\mcuxpressoide_10.2.1_795\ide\tools\arm-none-eabi\include\c++\7.2.1\bits\stl_list.h ****       using _Base::_M_get_Node_allocator;
 543:c:\nxp\mcuxpressoide_10.2.1_795\ide\tools\arm-none-eabi\include\c++\7.2.1\bits\stl_list.h **** 
 544:c:\nxp\mcuxpressoide_10.2.1_795\ide\tools\arm-none-eabi\include\c++\7.2.1\bits\stl_list.h ****       /**
 545:c:\nxp\mcuxpressoide_10.2.1_795\ide\tools\arm-none-eabi\include\c++\7.2.1\bits\stl_list.h ****        *  @param  __args  An instance of user data.
 546:c:\nxp\mcuxpressoide_10.2.1_795\ide\tools\arm-none-eabi\include\c++\7.2.1\bits\stl_list.h ****        *
 547:c:\nxp\mcuxpressoide_10.2.1_795\ide\tools\arm-none-eabi\include\c++\7.2.1\bits\stl_list.h ****        *  Allocates space for a new node and constructs a copy of
 548:c:\nxp\mcuxpressoide_10.2.1_795\ide\tools\arm-none-eabi\include\c++\7.2.1\bits\stl_list.h ****        *  @a __args in it.
 549:c:\nxp\mcuxpressoide_10.2.1_795\ide\tools\arm-none-eabi\include\c++\7.2.1\bits\stl_list.h ****        */
 550:c:\nxp\mcuxpressoide_10.2.1_795\ide\tools\arm-none-eabi\include\c++\7.2.1\bits\stl_list.h **** #if __cplusplus < 201103L
 551:c:\nxp\mcuxpressoide_10.2.1_795\ide\tools\arm-none-eabi\include\c++\7.2.1\bits\stl_list.h ****       _Node*
 552:c:\nxp\mcuxpressoide_10.2.1_795\ide\tools\arm-none-eabi\include\c++\7.2.1\bits\stl_list.h ****       _M_create_node(const value_type& __x)
 553:c:\nxp\mcuxpressoide_10.2.1_795\ide\tools\arm-none-eabi\include\c++\7.2.1\bits\stl_list.h ****       {
 554:c:\nxp\mcuxpressoide_10.2.1_795\ide\tools\arm-none-eabi\include\c++\7.2.1\bits\stl_list.h **** 	_Node* __p = this->_M_get_node();
 555:c:\nxp\mcuxpressoide_10.2.1_795\ide\tools\arm-none-eabi\include\c++\7.2.1\bits\stl_list.h **** 	__try
 556:c:\nxp\mcuxpressoide_10.2.1_795\ide\tools\arm-none-eabi\include\c++\7.2.1\bits\stl_list.h **** 	  {
 557:c:\nxp\mcuxpressoide_10.2.1_795\ide\tools\arm-none-eabi\include\c++\7.2.1\bits\stl_list.h **** 	    _Tp_alloc_type __alloc(_M_get_Node_allocator());
 558:c:\nxp\mcuxpressoide_10.2.1_795\ide\tools\arm-none-eabi\include\c++\7.2.1\bits\stl_list.h **** 	    __alloc.construct(__p->_M_valptr(), __x);
 559:c:\nxp\mcuxpressoide_10.2.1_795\ide\tools\arm-none-eabi\include\c++\7.2.1\bits\stl_list.h **** 	  }
 560:c:\nxp\mcuxpressoide_10.2.1_795\ide\tools\arm-none-eabi\include\c++\7.2.1\bits\stl_list.h **** 	__catch(...)
 561:c:\nxp\mcuxpressoide_10.2.1_795\ide\tools\arm-none-eabi\include\c++\7.2.1\bits\stl_list.h **** 	  {
 562:c:\nxp\mcuxpressoide_10.2.1_795\ide\tools\arm-none-eabi\include\c++\7.2.1\bits\stl_list.h **** 	    _M_put_node(__p);
 563:c:\nxp\mcuxpressoide_10.2.1_795\ide\tools\arm-none-eabi\include\c++\7.2.1\bits\stl_list.h **** 	    __throw_exception_again;
 564:c:\nxp\mcuxpressoide_10.2.1_795\ide\tools\arm-none-eabi\include\c++\7.2.1\bits\stl_list.h **** 	  }
 565:c:\nxp\mcuxpressoide_10.2.1_795\ide\tools\arm-none-eabi\include\c++\7.2.1\bits\stl_list.h **** 	return __p;
ARM GAS  C:\Users\xavie\AppData\Local\Temp\ccUw5nyp.s 			page 25


 566:c:\nxp\mcuxpressoide_10.2.1_795\ide\tools\arm-none-eabi\include\c++\7.2.1\bits\stl_list.h ****       }
 567:c:\nxp\mcuxpressoide_10.2.1_795\ide\tools\arm-none-eabi\include\c++\7.2.1\bits\stl_list.h **** #else
 568:c:\nxp\mcuxpressoide_10.2.1_795\ide\tools\arm-none-eabi\include\c++\7.2.1\bits\stl_list.h ****       template<typename... _Args>
 569:c:\nxp\mcuxpressoide_10.2.1_795\ide\tools\arm-none-eabi\include\c++\7.2.1\bits\stl_list.h **** 	_Node*
 570:c:\nxp\mcuxpressoide_10.2.1_795\ide\tools\arm-none-eabi\include\c++\7.2.1\bits\stl_list.h **** 	_M_create_node(_Args&&... __args)
 571:c:\nxp\mcuxpressoide_10.2.1_795\ide\tools\arm-none-eabi\include\c++\7.2.1\bits\stl_list.h **** 	{
 572:c:\nxp\mcuxpressoide_10.2.1_795\ide\tools\arm-none-eabi\include\c++\7.2.1\bits\stl_list.h **** 	  auto __p = this->_M_get_node();
 573:c:\nxp\mcuxpressoide_10.2.1_795\ide\tools\arm-none-eabi\include\c++\7.2.1\bits\stl_list.h **** 	  auto& __alloc = _M_get_Node_allocator();
 574:c:\nxp\mcuxpressoide_10.2.1_795\ide\tools\arm-none-eabi\include\c++\7.2.1\bits\stl_list.h **** 	  __allocated_ptr<_Node_alloc_type> __guard{__alloc, __p};
 575:c:\nxp\mcuxpressoide_10.2.1_795\ide\tools\arm-none-eabi\include\c++\7.2.1\bits\stl_list.h **** 	  _Node_alloc_traits::construct(__alloc, __p->_M_valptr(),
 576:c:\nxp\mcuxpressoide_10.2.1_795\ide\tools\arm-none-eabi\include\c++\7.2.1\bits\stl_list.h **** 					std::forward<_Args>(__args)...);
 577:c:\nxp\mcuxpressoide_10.2.1_795\ide\tools\arm-none-eabi\include\c++\7.2.1\bits\stl_list.h **** 	  __guard = nullptr;
 578:c:\nxp\mcuxpressoide_10.2.1_795\ide\tools\arm-none-eabi\include\c++\7.2.1\bits\stl_list.h **** 	  return __p;
 579:c:\nxp\mcuxpressoide_10.2.1_795\ide\tools\arm-none-eabi\include\c++\7.2.1\bits\stl_list.h **** 	}
 580:c:\nxp\mcuxpressoide_10.2.1_795\ide\tools\arm-none-eabi\include\c++\7.2.1\bits\stl_list.h **** #endif
 581:c:\nxp\mcuxpressoide_10.2.1_795\ide\tools\arm-none-eabi\include\c++\7.2.1\bits\stl_list.h **** 
 582:c:\nxp\mcuxpressoide_10.2.1_795\ide\tools\arm-none-eabi\include\c++\7.2.1\bits\stl_list.h ****     public:
 583:c:\nxp\mcuxpressoide_10.2.1_795\ide\tools\arm-none-eabi\include\c++\7.2.1\bits\stl_list.h ****       // [23.2.2.1] construct/copy/destroy
 584:c:\nxp\mcuxpressoide_10.2.1_795\ide\tools\arm-none-eabi\include\c++\7.2.1\bits\stl_list.h ****       // (assign() and get_allocator() are also listed in this section)
 585:c:\nxp\mcuxpressoide_10.2.1_795\ide\tools\arm-none-eabi\include\c++\7.2.1\bits\stl_list.h **** 
 586:c:\nxp\mcuxpressoide_10.2.1_795\ide\tools\arm-none-eabi\include\c++\7.2.1\bits\stl_list.h ****       /**
 587:c:\nxp\mcuxpressoide_10.2.1_795\ide\tools\arm-none-eabi\include\c++\7.2.1\bits\stl_list.h ****        *  @brief  Creates a %list with no elements.
 588:c:\nxp\mcuxpressoide_10.2.1_795\ide\tools\arm-none-eabi\include\c++\7.2.1\bits\stl_list.h ****        */
 589:c:\nxp\mcuxpressoide_10.2.1_795\ide\tools\arm-none-eabi\include\c++\7.2.1\bits\stl_list.h ****       list()
 377              		.loc 4 589 0
 378              		.cfi_startproc
 379              		@ args = 0, pretend = 0, frame = 8
 380              		@ frame_needed = 1, uses_anonymous_args = 0
 381 0000 80B5     		push	{r7, lr}
 382              		.cfi_def_cfa_offset 8
 383              		.cfi_offset 7, -8
 384              		.cfi_offset 14, -4
 385 0002 82B0     		sub	sp, sp, #8
 386              		.cfi_def_cfa_offset 16
 387 0004 00AF     		add	r7, sp, #0
 388              		.cfi_def_cfa_register 7
 389 0006 7860     		str	r0, [r7, #4]
 390              	.LBB3:
 590:c:\nxp\mcuxpressoide_10.2.1_795\ide\tools\arm-none-eabi\include\c++\7.2.1\bits\stl_list.h **** #if __cplusplus >= 201103L
 591:c:\nxp\mcuxpressoide_10.2.1_795\ide\tools\arm-none-eabi\include\c++\7.2.1\bits\stl_list.h ****       noexcept(is_nothrow_default_constructible<_Node_alloc_type>::value)
 592:c:\nxp\mcuxpressoide_10.2.1_795\ide\tools\arm-none-eabi\include\c++\7.2.1\bits\stl_list.h **** #endif
 593:c:\nxp\mcuxpressoide_10.2.1_795\ide\tools\arm-none-eabi\include\c++\7.2.1\bits\stl_list.h ****       : _Base() { }
 391              		.loc 4 593 0
 392 0008 7B68     		ldr	r3, [r7, #4]
 393 000a 1846     		mov	r0, r3
 394 000c FFF7FEFF 		bl	_ZNSt7__cxx1110_List_baseIP7IUpdateSaIS2_EEC2Ev
 395              	.LBE3:
 396 0010 7B68     		ldr	r3, [r7, #4]
 397 0012 1846     		mov	r0, r3
 398 0014 0837     		adds	r7, r7, #8
 399              		.cfi_def_cfa_offset 8
 400 0016 BD46     		mov	sp, r7
 401              		.cfi_def_cfa_register 13
 402              		@ sp needed
 403 0018 80BD     		pop	{r7, pc}
 404              		.cfi_endproc
 405              	.LFE1681:
ARM GAS  C:\Users\xavie\AppData\Local\Temp\ccUw5nyp.s 			page 26


 407              		.weak	_ZNSt7__cxx114listIP7IUpdateSaIS2_EEC1Ev
 408              		.thumb_set _ZNSt7__cxx114listIP7IUpdateSaIS2_EEC1Ev,_ZNSt7__cxx114listIP7IUpdateSaIS2_EEC2Ev
 409              		.section	.text._ZNSt7__cxx114listIP7IUpdateSaIS2_EE10push_frontERKS2_,"axG",%progbits,_ZNSt7__cxx1
 410              		.align	1
 411              		.weak	_ZNSt7__cxx114listIP7IUpdateSaIS2_EE10push_frontERKS2_
 412              		.syntax unified
 413              		.thumb
 414              		.thumb_func
 415              		.fpu softvfp
 417              	_ZNSt7__cxx114listIP7IUpdateSaIS2_EE10push_frontERKS2_:
 418              	.LFB1683:
 594:c:\nxp\mcuxpressoide_10.2.1_795\ide\tools\arm-none-eabi\include\c++\7.2.1\bits\stl_list.h **** 
 595:c:\nxp\mcuxpressoide_10.2.1_795\ide\tools\arm-none-eabi\include\c++\7.2.1\bits\stl_list.h ****       /**
 596:c:\nxp\mcuxpressoide_10.2.1_795\ide\tools\arm-none-eabi\include\c++\7.2.1\bits\stl_list.h ****        *  @brief  Creates a %list with no elements.
 597:c:\nxp\mcuxpressoide_10.2.1_795\ide\tools\arm-none-eabi\include\c++\7.2.1\bits\stl_list.h ****        *  @param  __a  An allocator object.
 598:c:\nxp\mcuxpressoide_10.2.1_795\ide\tools\arm-none-eabi\include\c++\7.2.1\bits\stl_list.h ****        */
 599:c:\nxp\mcuxpressoide_10.2.1_795\ide\tools\arm-none-eabi\include\c++\7.2.1\bits\stl_list.h ****       explicit
 600:c:\nxp\mcuxpressoide_10.2.1_795\ide\tools\arm-none-eabi\include\c++\7.2.1\bits\stl_list.h ****       list(const allocator_type& __a) _GLIBCXX_NOEXCEPT
 601:c:\nxp\mcuxpressoide_10.2.1_795\ide\tools\arm-none-eabi\include\c++\7.2.1\bits\stl_list.h ****       : _Base(_Node_alloc_type(__a)) { }
 602:c:\nxp\mcuxpressoide_10.2.1_795\ide\tools\arm-none-eabi\include\c++\7.2.1\bits\stl_list.h **** 
 603:c:\nxp\mcuxpressoide_10.2.1_795\ide\tools\arm-none-eabi\include\c++\7.2.1\bits\stl_list.h **** #if __cplusplus >= 201103L
 604:c:\nxp\mcuxpressoide_10.2.1_795\ide\tools\arm-none-eabi\include\c++\7.2.1\bits\stl_list.h ****       /**
 605:c:\nxp\mcuxpressoide_10.2.1_795\ide\tools\arm-none-eabi\include\c++\7.2.1\bits\stl_list.h ****        *  @brief  Creates a %list with default constructed elements.
 606:c:\nxp\mcuxpressoide_10.2.1_795\ide\tools\arm-none-eabi\include\c++\7.2.1\bits\stl_list.h ****        *  @param  __n  The number of elements to initially create.
 607:c:\nxp\mcuxpressoide_10.2.1_795\ide\tools\arm-none-eabi\include\c++\7.2.1\bits\stl_list.h ****        *  @param  __a  An allocator object.
 608:c:\nxp\mcuxpressoide_10.2.1_795\ide\tools\arm-none-eabi\include\c++\7.2.1\bits\stl_list.h ****        *
 609:c:\nxp\mcuxpressoide_10.2.1_795\ide\tools\arm-none-eabi\include\c++\7.2.1\bits\stl_list.h ****        *  This constructor fills the %list with @a __n default
 610:c:\nxp\mcuxpressoide_10.2.1_795\ide\tools\arm-none-eabi\include\c++\7.2.1\bits\stl_list.h ****        *  constructed elements.
 611:c:\nxp\mcuxpressoide_10.2.1_795\ide\tools\arm-none-eabi\include\c++\7.2.1\bits\stl_list.h ****        */
 612:c:\nxp\mcuxpressoide_10.2.1_795\ide\tools\arm-none-eabi\include\c++\7.2.1\bits\stl_list.h ****       explicit
 613:c:\nxp\mcuxpressoide_10.2.1_795\ide\tools\arm-none-eabi\include\c++\7.2.1\bits\stl_list.h ****       list(size_type __n, const allocator_type& __a = allocator_type())
 614:c:\nxp\mcuxpressoide_10.2.1_795\ide\tools\arm-none-eabi\include\c++\7.2.1\bits\stl_list.h ****       : _Base(_Node_alloc_type(__a))
 615:c:\nxp\mcuxpressoide_10.2.1_795\ide\tools\arm-none-eabi\include\c++\7.2.1\bits\stl_list.h ****       { _M_default_initialize(__n); }
 616:c:\nxp\mcuxpressoide_10.2.1_795\ide\tools\arm-none-eabi\include\c++\7.2.1\bits\stl_list.h **** 
 617:c:\nxp\mcuxpressoide_10.2.1_795\ide\tools\arm-none-eabi\include\c++\7.2.1\bits\stl_list.h ****       /**
 618:c:\nxp\mcuxpressoide_10.2.1_795\ide\tools\arm-none-eabi\include\c++\7.2.1\bits\stl_list.h ****        *  @brief  Creates a %list with copies of an exemplar element.
 619:c:\nxp\mcuxpressoide_10.2.1_795\ide\tools\arm-none-eabi\include\c++\7.2.1\bits\stl_list.h ****        *  @param  __n  The number of elements to initially create.
 620:c:\nxp\mcuxpressoide_10.2.1_795\ide\tools\arm-none-eabi\include\c++\7.2.1\bits\stl_list.h ****        *  @param  __value  An element to copy.
 621:c:\nxp\mcuxpressoide_10.2.1_795\ide\tools\arm-none-eabi\include\c++\7.2.1\bits\stl_list.h ****        *  @param  __a  An allocator object.
 622:c:\nxp\mcuxpressoide_10.2.1_795\ide\tools\arm-none-eabi\include\c++\7.2.1\bits\stl_list.h ****        *
 623:c:\nxp\mcuxpressoide_10.2.1_795\ide\tools\arm-none-eabi\include\c++\7.2.1\bits\stl_list.h ****        *  This constructor fills the %list with @a __n copies of @a __value.
 624:c:\nxp\mcuxpressoide_10.2.1_795\ide\tools\arm-none-eabi\include\c++\7.2.1\bits\stl_list.h ****        */
 625:c:\nxp\mcuxpressoide_10.2.1_795\ide\tools\arm-none-eabi\include\c++\7.2.1\bits\stl_list.h ****       list(size_type __n, const value_type& __value,
 626:c:\nxp\mcuxpressoide_10.2.1_795\ide\tools\arm-none-eabi\include\c++\7.2.1\bits\stl_list.h **** 	   const allocator_type& __a = allocator_type())
 627:c:\nxp\mcuxpressoide_10.2.1_795\ide\tools\arm-none-eabi\include\c++\7.2.1\bits\stl_list.h ****       : _Base(_Node_alloc_type(__a))
 628:c:\nxp\mcuxpressoide_10.2.1_795\ide\tools\arm-none-eabi\include\c++\7.2.1\bits\stl_list.h ****       { _M_fill_initialize(__n, __value); }
 629:c:\nxp\mcuxpressoide_10.2.1_795\ide\tools\arm-none-eabi\include\c++\7.2.1\bits\stl_list.h **** #else
 630:c:\nxp\mcuxpressoide_10.2.1_795\ide\tools\arm-none-eabi\include\c++\7.2.1\bits\stl_list.h ****       /**
 631:c:\nxp\mcuxpressoide_10.2.1_795\ide\tools\arm-none-eabi\include\c++\7.2.1\bits\stl_list.h ****        *  @brief  Creates a %list with copies of an exemplar element.
 632:c:\nxp\mcuxpressoide_10.2.1_795\ide\tools\arm-none-eabi\include\c++\7.2.1\bits\stl_list.h ****        *  @param  __n  The number of elements to initially create.
 633:c:\nxp\mcuxpressoide_10.2.1_795\ide\tools\arm-none-eabi\include\c++\7.2.1\bits\stl_list.h ****        *  @param  __value  An element to copy.
 634:c:\nxp\mcuxpressoide_10.2.1_795\ide\tools\arm-none-eabi\include\c++\7.2.1\bits\stl_list.h ****        *  @param  __a  An allocator object.
 635:c:\nxp\mcuxpressoide_10.2.1_795\ide\tools\arm-none-eabi\include\c++\7.2.1\bits\stl_list.h ****        *
 636:c:\nxp\mcuxpressoide_10.2.1_795\ide\tools\arm-none-eabi\include\c++\7.2.1\bits\stl_list.h ****        *  This constructor fills the %list with @a __n copies of @a __value.
 637:c:\nxp\mcuxpressoide_10.2.1_795\ide\tools\arm-none-eabi\include\c++\7.2.1\bits\stl_list.h ****        */
 638:c:\nxp\mcuxpressoide_10.2.1_795\ide\tools\arm-none-eabi\include\c++\7.2.1\bits\stl_list.h ****       explicit
 639:c:\nxp\mcuxpressoide_10.2.1_795\ide\tools\arm-none-eabi\include\c++\7.2.1\bits\stl_list.h ****       list(size_type __n, const value_type& __value = value_type(),
ARM GAS  C:\Users\xavie\AppData\Local\Temp\ccUw5nyp.s 			page 27


 640:c:\nxp\mcuxpressoide_10.2.1_795\ide\tools\arm-none-eabi\include\c++\7.2.1\bits\stl_list.h **** 	   const allocator_type& __a = allocator_type())
 641:c:\nxp\mcuxpressoide_10.2.1_795\ide\tools\arm-none-eabi\include\c++\7.2.1\bits\stl_list.h ****       : _Base(_Node_alloc_type(__a))
 642:c:\nxp\mcuxpressoide_10.2.1_795\ide\tools\arm-none-eabi\include\c++\7.2.1\bits\stl_list.h ****       { _M_fill_initialize(__n, __value); }
 643:c:\nxp\mcuxpressoide_10.2.1_795\ide\tools\arm-none-eabi\include\c++\7.2.1\bits\stl_list.h **** #endif
 644:c:\nxp\mcuxpressoide_10.2.1_795\ide\tools\arm-none-eabi\include\c++\7.2.1\bits\stl_list.h **** 
 645:c:\nxp\mcuxpressoide_10.2.1_795\ide\tools\arm-none-eabi\include\c++\7.2.1\bits\stl_list.h ****       /**
 646:c:\nxp\mcuxpressoide_10.2.1_795\ide\tools\arm-none-eabi\include\c++\7.2.1\bits\stl_list.h ****        *  @brief  %List copy constructor.
 647:c:\nxp\mcuxpressoide_10.2.1_795\ide\tools\arm-none-eabi\include\c++\7.2.1\bits\stl_list.h ****        *  @param  __x  A %list of identical element and allocator types.
 648:c:\nxp\mcuxpressoide_10.2.1_795\ide\tools\arm-none-eabi\include\c++\7.2.1\bits\stl_list.h ****        *
 649:c:\nxp\mcuxpressoide_10.2.1_795\ide\tools\arm-none-eabi\include\c++\7.2.1\bits\stl_list.h ****        *  The newly-created %list uses a copy of the allocation object used
 650:c:\nxp\mcuxpressoide_10.2.1_795\ide\tools\arm-none-eabi\include\c++\7.2.1\bits\stl_list.h ****        *  by @a __x (unless the allocator traits dictate a different object).
 651:c:\nxp\mcuxpressoide_10.2.1_795\ide\tools\arm-none-eabi\include\c++\7.2.1\bits\stl_list.h ****        */
 652:c:\nxp\mcuxpressoide_10.2.1_795\ide\tools\arm-none-eabi\include\c++\7.2.1\bits\stl_list.h ****       list(const list& __x)
 653:c:\nxp\mcuxpressoide_10.2.1_795\ide\tools\arm-none-eabi\include\c++\7.2.1\bits\stl_list.h ****       : _Base(_Node_alloc_traits::
 654:c:\nxp\mcuxpressoide_10.2.1_795\ide\tools\arm-none-eabi\include\c++\7.2.1\bits\stl_list.h **** 	      _S_select_on_copy(__x._M_get_Node_allocator()))
 655:c:\nxp\mcuxpressoide_10.2.1_795\ide\tools\arm-none-eabi\include\c++\7.2.1\bits\stl_list.h ****       { _M_initialize_dispatch(__x.begin(), __x.end(), __false_type()); }
 656:c:\nxp\mcuxpressoide_10.2.1_795\ide\tools\arm-none-eabi\include\c++\7.2.1\bits\stl_list.h **** 
 657:c:\nxp\mcuxpressoide_10.2.1_795\ide\tools\arm-none-eabi\include\c++\7.2.1\bits\stl_list.h **** #if __cplusplus >= 201103L
 658:c:\nxp\mcuxpressoide_10.2.1_795\ide\tools\arm-none-eabi\include\c++\7.2.1\bits\stl_list.h ****       /**
 659:c:\nxp\mcuxpressoide_10.2.1_795\ide\tools\arm-none-eabi\include\c++\7.2.1\bits\stl_list.h ****        *  @brief  %List move constructor.
 660:c:\nxp\mcuxpressoide_10.2.1_795\ide\tools\arm-none-eabi\include\c++\7.2.1\bits\stl_list.h ****        *  @param  __x  A %list of identical element and allocator types.
 661:c:\nxp\mcuxpressoide_10.2.1_795\ide\tools\arm-none-eabi\include\c++\7.2.1\bits\stl_list.h ****        *
 662:c:\nxp\mcuxpressoide_10.2.1_795\ide\tools\arm-none-eabi\include\c++\7.2.1\bits\stl_list.h ****        *  The newly-created %list contains the exact contents of @a __x.
 663:c:\nxp\mcuxpressoide_10.2.1_795\ide\tools\arm-none-eabi\include\c++\7.2.1\bits\stl_list.h ****        *  The contents of @a __x are a valid, but unspecified %list.
 664:c:\nxp\mcuxpressoide_10.2.1_795\ide\tools\arm-none-eabi\include\c++\7.2.1\bits\stl_list.h ****        */
 665:c:\nxp\mcuxpressoide_10.2.1_795\ide\tools\arm-none-eabi\include\c++\7.2.1\bits\stl_list.h ****       list(list&& __x) noexcept
 666:c:\nxp\mcuxpressoide_10.2.1_795\ide\tools\arm-none-eabi\include\c++\7.2.1\bits\stl_list.h ****       : _Base(std::move(__x)) { }
 667:c:\nxp\mcuxpressoide_10.2.1_795\ide\tools\arm-none-eabi\include\c++\7.2.1\bits\stl_list.h **** 
 668:c:\nxp\mcuxpressoide_10.2.1_795\ide\tools\arm-none-eabi\include\c++\7.2.1\bits\stl_list.h ****       /**
 669:c:\nxp\mcuxpressoide_10.2.1_795\ide\tools\arm-none-eabi\include\c++\7.2.1\bits\stl_list.h ****        *  @brief  Builds a %list from an initializer_list
 670:c:\nxp\mcuxpressoide_10.2.1_795\ide\tools\arm-none-eabi\include\c++\7.2.1\bits\stl_list.h ****        *  @param  __l  An initializer_list of value_type.
 671:c:\nxp\mcuxpressoide_10.2.1_795\ide\tools\arm-none-eabi\include\c++\7.2.1\bits\stl_list.h ****        *  @param  __a  An allocator object.
 672:c:\nxp\mcuxpressoide_10.2.1_795\ide\tools\arm-none-eabi\include\c++\7.2.1\bits\stl_list.h ****        *
 673:c:\nxp\mcuxpressoide_10.2.1_795\ide\tools\arm-none-eabi\include\c++\7.2.1\bits\stl_list.h ****        *  Create a %list consisting of copies of the elements in the
 674:c:\nxp\mcuxpressoide_10.2.1_795\ide\tools\arm-none-eabi\include\c++\7.2.1\bits\stl_list.h ****        *  initializer_list @a __l.  This is linear in __l.size().
 675:c:\nxp\mcuxpressoide_10.2.1_795\ide\tools\arm-none-eabi\include\c++\7.2.1\bits\stl_list.h ****        */
 676:c:\nxp\mcuxpressoide_10.2.1_795\ide\tools\arm-none-eabi\include\c++\7.2.1\bits\stl_list.h ****       list(initializer_list<value_type> __l,
 677:c:\nxp\mcuxpressoide_10.2.1_795\ide\tools\arm-none-eabi\include\c++\7.2.1\bits\stl_list.h **** 	   const allocator_type& __a = allocator_type())
 678:c:\nxp\mcuxpressoide_10.2.1_795\ide\tools\arm-none-eabi\include\c++\7.2.1\bits\stl_list.h ****       : _Base(_Node_alloc_type(__a))
 679:c:\nxp\mcuxpressoide_10.2.1_795\ide\tools\arm-none-eabi\include\c++\7.2.1\bits\stl_list.h ****       { _M_initialize_dispatch(__l.begin(), __l.end(), __false_type()); }
 680:c:\nxp\mcuxpressoide_10.2.1_795\ide\tools\arm-none-eabi\include\c++\7.2.1\bits\stl_list.h **** 
 681:c:\nxp\mcuxpressoide_10.2.1_795\ide\tools\arm-none-eabi\include\c++\7.2.1\bits\stl_list.h ****       list(const list& __x, const allocator_type& __a)
 682:c:\nxp\mcuxpressoide_10.2.1_795\ide\tools\arm-none-eabi\include\c++\7.2.1\bits\stl_list.h ****       : _Base(_Node_alloc_type(__a))
 683:c:\nxp\mcuxpressoide_10.2.1_795\ide\tools\arm-none-eabi\include\c++\7.2.1\bits\stl_list.h ****       { _M_initialize_dispatch(__x.begin(), __x.end(), __false_type()); }
 684:c:\nxp\mcuxpressoide_10.2.1_795\ide\tools\arm-none-eabi\include\c++\7.2.1\bits\stl_list.h **** 
 685:c:\nxp\mcuxpressoide_10.2.1_795\ide\tools\arm-none-eabi\include\c++\7.2.1\bits\stl_list.h ****       list(list&& __x, const allocator_type& __a)
 686:c:\nxp\mcuxpressoide_10.2.1_795\ide\tools\arm-none-eabi\include\c++\7.2.1\bits\stl_list.h ****       noexcept(_Node_alloc_traits::_S_always_equal())
 687:c:\nxp\mcuxpressoide_10.2.1_795\ide\tools\arm-none-eabi\include\c++\7.2.1\bits\stl_list.h ****       : _Base(std::move(__x), _Node_alloc_type(__a))
 688:c:\nxp\mcuxpressoide_10.2.1_795\ide\tools\arm-none-eabi\include\c++\7.2.1\bits\stl_list.h ****       {
 689:c:\nxp\mcuxpressoide_10.2.1_795\ide\tools\arm-none-eabi\include\c++\7.2.1\bits\stl_list.h **** 	// If __x is not empty it means its allocator is not equal to __a,
 690:c:\nxp\mcuxpressoide_10.2.1_795\ide\tools\arm-none-eabi\include\c++\7.2.1\bits\stl_list.h **** 	// so we need to move from each element individually.
 691:c:\nxp\mcuxpressoide_10.2.1_795\ide\tools\arm-none-eabi\include\c++\7.2.1\bits\stl_list.h **** 	insert(begin(), std::__make_move_if_noexcept_iterator(__x.begin()),
 692:c:\nxp\mcuxpressoide_10.2.1_795\ide\tools\arm-none-eabi\include\c++\7.2.1\bits\stl_list.h **** 			std::__make_move_if_noexcept_iterator(__x.end()));
 693:c:\nxp\mcuxpressoide_10.2.1_795\ide\tools\arm-none-eabi\include\c++\7.2.1\bits\stl_list.h ****       }
 694:c:\nxp\mcuxpressoide_10.2.1_795\ide\tools\arm-none-eabi\include\c++\7.2.1\bits\stl_list.h **** #endif
 695:c:\nxp\mcuxpressoide_10.2.1_795\ide\tools\arm-none-eabi\include\c++\7.2.1\bits\stl_list.h **** 
 696:c:\nxp\mcuxpressoide_10.2.1_795\ide\tools\arm-none-eabi\include\c++\7.2.1\bits\stl_list.h ****       /**
ARM GAS  C:\Users\xavie\AppData\Local\Temp\ccUw5nyp.s 			page 28


 697:c:\nxp\mcuxpressoide_10.2.1_795\ide\tools\arm-none-eabi\include\c++\7.2.1\bits\stl_list.h ****        *  @brief  Builds a %list from a range.
 698:c:\nxp\mcuxpressoide_10.2.1_795\ide\tools\arm-none-eabi\include\c++\7.2.1\bits\stl_list.h ****        *  @param  __first  An input iterator.
 699:c:\nxp\mcuxpressoide_10.2.1_795\ide\tools\arm-none-eabi\include\c++\7.2.1\bits\stl_list.h ****        *  @param  __last  An input iterator.
 700:c:\nxp\mcuxpressoide_10.2.1_795\ide\tools\arm-none-eabi\include\c++\7.2.1\bits\stl_list.h ****        *  @param  __a  An allocator object.
 701:c:\nxp\mcuxpressoide_10.2.1_795\ide\tools\arm-none-eabi\include\c++\7.2.1\bits\stl_list.h ****        *
 702:c:\nxp\mcuxpressoide_10.2.1_795\ide\tools\arm-none-eabi\include\c++\7.2.1\bits\stl_list.h ****        *  Create a %list consisting of copies of the elements from
 703:c:\nxp\mcuxpressoide_10.2.1_795\ide\tools\arm-none-eabi\include\c++\7.2.1\bits\stl_list.h ****        *  [@a __first,@a __last).  This is linear in N (where N is
 704:c:\nxp\mcuxpressoide_10.2.1_795\ide\tools\arm-none-eabi\include\c++\7.2.1\bits\stl_list.h ****        *  distance(@a __first,@a __last)).
 705:c:\nxp\mcuxpressoide_10.2.1_795\ide\tools\arm-none-eabi\include\c++\7.2.1\bits\stl_list.h ****        */
 706:c:\nxp\mcuxpressoide_10.2.1_795\ide\tools\arm-none-eabi\include\c++\7.2.1\bits\stl_list.h **** #if __cplusplus >= 201103L
 707:c:\nxp\mcuxpressoide_10.2.1_795\ide\tools\arm-none-eabi\include\c++\7.2.1\bits\stl_list.h ****       template<typename _InputIterator,
 708:c:\nxp\mcuxpressoide_10.2.1_795\ide\tools\arm-none-eabi\include\c++\7.2.1\bits\stl_list.h **** 	       typename = std::_RequireInputIter<_InputIterator>>
 709:c:\nxp\mcuxpressoide_10.2.1_795\ide\tools\arm-none-eabi\include\c++\7.2.1\bits\stl_list.h **** 	list(_InputIterator __first, _InputIterator __last,
 710:c:\nxp\mcuxpressoide_10.2.1_795\ide\tools\arm-none-eabi\include\c++\7.2.1\bits\stl_list.h **** 	     const allocator_type& __a = allocator_type())
 711:c:\nxp\mcuxpressoide_10.2.1_795\ide\tools\arm-none-eabi\include\c++\7.2.1\bits\stl_list.h **** 	: _Base(_Node_alloc_type(__a))
 712:c:\nxp\mcuxpressoide_10.2.1_795\ide\tools\arm-none-eabi\include\c++\7.2.1\bits\stl_list.h **** 	{ _M_initialize_dispatch(__first, __last, __false_type()); }
 713:c:\nxp\mcuxpressoide_10.2.1_795\ide\tools\arm-none-eabi\include\c++\7.2.1\bits\stl_list.h **** #else
 714:c:\nxp\mcuxpressoide_10.2.1_795\ide\tools\arm-none-eabi\include\c++\7.2.1\bits\stl_list.h ****       template<typename _InputIterator>
 715:c:\nxp\mcuxpressoide_10.2.1_795\ide\tools\arm-none-eabi\include\c++\7.2.1\bits\stl_list.h **** 	list(_InputIterator __first, _InputIterator __last,
 716:c:\nxp\mcuxpressoide_10.2.1_795\ide\tools\arm-none-eabi\include\c++\7.2.1\bits\stl_list.h **** 	     const allocator_type& __a = allocator_type())
 717:c:\nxp\mcuxpressoide_10.2.1_795\ide\tools\arm-none-eabi\include\c++\7.2.1\bits\stl_list.h **** 	: _Base(_Node_alloc_type(__a))
 718:c:\nxp\mcuxpressoide_10.2.1_795\ide\tools\arm-none-eabi\include\c++\7.2.1\bits\stl_list.h **** 	{
 719:c:\nxp\mcuxpressoide_10.2.1_795\ide\tools\arm-none-eabi\include\c++\7.2.1\bits\stl_list.h **** 	  // Check whether it's an integral type.  If so, it's not an iterator.
 720:c:\nxp\mcuxpressoide_10.2.1_795\ide\tools\arm-none-eabi\include\c++\7.2.1\bits\stl_list.h **** 	  typedef typename std::__is_integer<_InputIterator>::__type _Integral;
 721:c:\nxp\mcuxpressoide_10.2.1_795\ide\tools\arm-none-eabi\include\c++\7.2.1\bits\stl_list.h **** 	  _M_initialize_dispatch(__first, __last, _Integral());
 722:c:\nxp\mcuxpressoide_10.2.1_795\ide\tools\arm-none-eabi\include\c++\7.2.1\bits\stl_list.h **** 	}
 723:c:\nxp\mcuxpressoide_10.2.1_795\ide\tools\arm-none-eabi\include\c++\7.2.1\bits\stl_list.h **** #endif
 724:c:\nxp\mcuxpressoide_10.2.1_795\ide\tools\arm-none-eabi\include\c++\7.2.1\bits\stl_list.h **** 
 725:c:\nxp\mcuxpressoide_10.2.1_795\ide\tools\arm-none-eabi\include\c++\7.2.1\bits\stl_list.h **** #if __cplusplus >= 201103L
 726:c:\nxp\mcuxpressoide_10.2.1_795\ide\tools\arm-none-eabi\include\c++\7.2.1\bits\stl_list.h ****       /**
 727:c:\nxp\mcuxpressoide_10.2.1_795\ide\tools\arm-none-eabi\include\c++\7.2.1\bits\stl_list.h ****        *  No explicit dtor needed as the _Base dtor takes care of
 728:c:\nxp\mcuxpressoide_10.2.1_795\ide\tools\arm-none-eabi\include\c++\7.2.1\bits\stl_list.h ****        *  things.  The _Base dtor only erases the elements, and note
 729:c:\nxp\mcuxpressoide_10.2.1_795\ide\tools\arm-none-eabi\include\c++\7.2.1\bits\stl_list.h ****        *  that if the elements themselves are pointers, the pointed-to
 730:c:\nxp\mcuxpressoide_10.2.1_795\ide\tools\arm-none-eabi\include\c++\7.2.1\bits\stl_list.h ****        *  memory is not touched in any way.  Managing the pointer is
 731:c:\nxp\mcuxpressoide_10.2.1_795\ide\tools\arm-none-eabi\include\c++\7.2.1\bits\stl_list.h ****        *  the user's responsibility.
 732:c:\nxp\mcuxpressoide_10.2.1_795\ide\tools\arm-none-eabi\include\c++\7.2.1\bits\stl_list.h ****        */
 733:c:\nxp\mcuxpressoide_10.2.1_795\ide\tools\arm-none-eabi\include\c++\7.2.1\bits\stl_list.h ****       ~list() = default;
 734:c:\nxp\mcuxpressoide_10.2.1_795\ide\tools\arm-none-eabi\include\c++\7.2.1\bits\stl_list.h **** #endif
 735:c:\nxp\mcuxpressoide_10.2.1_795\ide\tools\arm-none-eabi\include\c++\7.2.1\bits\stl_list.h **** 
 736:c:\nxp\mcuxpressoide_10.2.1_795\ide\tools\arm-none-eabi\include\c++\7.2.1\bits\stl_list.h ****       /**
 737:c:\nxp\mcuxpressoide_10.2.1_795\ide\tools\arm-none-eabi\include\c++\7.2.1\bits\stl_list.h ****        *  @brief  %List assignment operator.
 738:c:\nxp\mcuxpressoide_10.2.1_795\ide\tools\arm-none-eabi\include\c++\7.2.1\bits\stl_list.h ****        *  @param  __x  A %list of identical element and allocator types.
 739:c:\nxp\mcuxpressoide_10.2.1_795\ide\tools\arm-none-eabi\include\c++\7.2.1\bits\stl_list.h ****        *
 740:c:\nxp\mcuxpressoide_10.2.1_795\ide\tools\arm-none-eabi\include\c++\7.2.1\bits\stl_list.h ****        *  All the elements of @a __x are copied.
 741:c:\nxp\mcuxpressoide_10.2.1_795\ide\tools\arm-none-eabi\include\c++\7.2.1\bits\stl_list.h ****        *
 742:c:\nxp\mcuxpressoide_10.2.1_795\ide\tools\arm-none-eabi\include\c++\7.2.1\bits\stl_list.h ****        *  Whether the allocator is copied depends on the allocator traits.
 743:c:\nxp\mcuxpressoide_10.2.1_795\ide\tools\arm-none-eabi\include\c++\7.2.1\bits\stl_list.h ****        */
 744:c:\nxp\mcuxpressoide_10.2.1_795\ide\tools\arm-none-eabi\include\c++\7.2.1\bits\stl_list.h ****       list&
 745:c:\nxp\mcuxpressoide_10.2.1_795\ide\tools\arm-none-eabi\include\c++\7.2.1\bits\stl_list.h ****       operator=(const list& __x);
 746:c:\nxp\mcuxpressoide_10.2.1_795\ide\tools\arm-none-eabi\include\c++\7.2.1\bits\stl_list.h **** 
 747:c:\nxp\mcuxpressoide_10.2.1_795\ide\tools\arm-none-eabi\include\c++\7.2.1\bits\stl_list.h **** #if __cplusplus >= 201103L
 748:c:\nxp\mcuxpressoide_10.2.1_795\ide\tools\arm-none-eabi\include\c++\7.2.1\bits\stl_list.h ****       /**
 749:c:\nxp\mcuxpressoide_10.2.1_795\ide\tools\arm-none-eabi\include\c++\7.2.1\bits\stl_list.h ****        *  @brief  %List move assignment operator.
 750:c:\nxp\mcuxpressoide_10.2.1_795\ide\tools\arm-none-eabi\include\c++\7.2.1\bits\stl_list.h ****        *  @param  __x  A %list of identical element and allocator types.
 751:c:\nxp\mcuxpressoide_10.2.1_795\ide\tools\arm-none-eabi\include\c++\7.2.1\bits\stl_list.h ****        *
 752:c:\nxp\mcuxpressoide_10.2.1_795\ide\tools\arm-none-eabi\include\c++\7.2.1\bits\stl_list.h ****        *  The contents of @a __x are moved into this %list (without copying).
 753:c:\nxp\mcuxpressoide_10.2.1_795\ide\tools\arm-none-eabi\include\c++\7.2.1\bits\stl_list.h ****        *
ARM GAS  C:\Users\xavie\AppData\Local\Temp\ccUw5nyp.s 			page 29


 754:c:\nxp\mcuxpressoide_10.2.1_795\ide\tools\arm-none-eabi\include\c++\7.2.1\bits\stl_list.h ****        *  Afterwards @a __x is a valid, but unspecified %list
 755:c:\nxp\mcuxpressoide_10.2.1_795\ide\tools\arm-none-eabi\include\c++\7.2.1\bits\stl_list.h ****        *
 756:c:\nxp\mcuxpressoide_10.2.1_795\ide\tools\arm-none-eabi\include\c++\7.2.1\bits\stl_list.h ****        *  Whether the allocator is moved depends on the allocator traits.
 757:c:\nxp\mcuxpressoide_10.2.1_795\ide\tools\arm-none-eabi\include\c++\7.2.1\bits\stl_list.h ****        */
 758:c:\nxp\mcuxpressoide_10.2.1_795\ide\tools\arm-none-eabi\include\c++\7.2.1\bits\stl_list.h ****       list&
 759:c:\nxp\mcuxpressoide_10.2.1_795\ide\tools\arm-none-eabi\include\c++\7.2.1\bits\stl_list.h ****       operator=(list&& __x)
 760:c:\nxp\mcuxpressoide_10.2.1_795\ide\tools\arm-none-eabi\include\c++\7.2.1\bits\stl_list.h ****       noexcept(_Node_alloc_traits::_S_nothrow_move())
 761:c:\nxp\mcuxpressoide_10.2.1_795\ide\tools\arm-none-eabi\include\c++\7.2.1\bits\stl_list.h ****       {
 762:c:\nxp\mcuxpressoide_10.2.1_795\ide\tools\arm-none-eabi\include\c++\7.2.1\bits\stl_list.h **** 	constexpr bool __move_storage =
 763:c:\nxp\mcuxpressoide_10.2.1_795\ide\tools\arm-none-eabi\include\c++\7.2.1\bits\stl_list.h **** 	  _Node_alloc_traits::_S_propagate_on_move_assign()
 764:c:\nxp\mcuxpressoide_10.2.1_795\ide\tools\arm-none-eabi\include\c++\7.2.1\bits\stl_list.h **** 	  || _Node_alloc_traits::_S_always_equal();
 765:c:\nxp\mcuxpressoide_10.2.1_795\ide\tools\arm-none-eabi\include\c++\7.2.1\bits\stl_list.h **** 	_M_move_assign(std::move(__x), __bool_constant<__move_storage>());
 766:c:\nxp\mcuxpressoide_10.2.1_795\ide\tools\arm-none-eabi\include\c++\7.2.1\bits\stl_list.h **** 	return *this;
 767:c:\nxp\mcuxpressoide_10.2.1_795\ide\tools\arm-none-eabi\include\c++\7.2.1\bits\stl_list.h ****       }
 768:c:\nxp\mcuxpressoide_10.2.1_795\ide\tools\arm-none-eabi\include\c++\7.2.1\bits\stl_list.h **** 
 769:c:\nxp\mcuxpressoide_10.2.1_795\ide\tools\arm-none-eabi\include\c++\7.2.1\bits\stl_list.h ****       /**
 770:c:\nxp\mcuxpressoide_10.2.1_795\ide\tools\arm-none-eabi\include\c++\7.2.1\bits\stl_list.h ****        *  @brief  %List initializer list assignment operator.
 771:c:\nxp\mcuxpressoide_10.2.1_795\ide\tools\arm-none-eabi\include\c++\7.2.1\bits\stl_list.h ****        *  @param  __l  An initializer_list of value_type.
 772:c:\nxp\mcuxpressoide_10.2.1_795\ide\tools\arm-none-eabi\include\c++\7.2.1\bits\stl_list.h ****        *
 773:c:\nxp\mcuxpressoide_10.2.1_795\ide\tools\arm-none-eabi\include\c++\7.2.1\bits\stl_list.h ****        *  Replace the contents of the %list with copies of the elements
 774:c:\nxp\mcuxpressoide_10.2.1_795\ide\tools\arm-none-eabi\include\c++\7.2.1\bits\stl_list.h ****        *  in the initializer_list @a __l.  This is linear in l.size().
 775:c:\nxp\mcuxpressoide_10.2.1_795\ide\tools\arm-none-eabi\include\c++\7.2.1\bits\stl_list.h ****        */
 776:c:\nxp\mcuxpressoide_10.2.1_795\ide\tools\arm-none-eabi\include\c++\7.2.1\bits\stl_list.h ****       list&
 777:c:\nxp\mcuxpressoide_10.2.1_795\ide\tools\arm-none-eabi\include\c++\7.2.1\bits\stl_list.h ****       operator=(initializer_list<value_type> __l)
 778:c:\nxp\mcuxpressoide_10.2.1_795\ide\tools\arm-none-eabi\include\c++\7.2.1\bits\stl_list.h ****       {
 779:c:\nxp\mcuxpressoide_10.2.1_795\ide\tools\arm-none-eabi\include\c++\7.2.1\bits\stl_list.h **** 	this->assign(__l.begin(), __l.end());
 780:c:\nxp\mcuxpressoide_10.2.1_795\ide\tools\arm-none-eabi\include\c++\7.2.1\bits\stl_list.h **** 	return *this;
 781:c:\nxp\mcuxpressoide_10.2.1_795\ide\tools\arm-none-eabi\include\c++\7.2.1\bits\stl_list.h ****       }
 782:c:\nxp\mcuxpressoide_10.2.1_795\ide\tools\arm-none-eabi\include\c++\7.2.1\bits\stl_list.h **** #endif
 783:c:\nxp\mcuxpressoide_10.2.1_795\ide\tools\arm-none-eabi\include\c++\7.2.1\bits\stl_list.h **** 
 784:c:\nxp\mcuxpressoide_10.2.1_795\ide\tools\arm-none-eabi\include\c++\7.2.1\bits\stl_list.h ****       /**
 785:c:\nxp\mcuxpressoide_10.2.1_795\ide\tools\arm-none-eabi\include\c++\7.2.1\bits\stl_list.h ****        *  @brief  Assigns a given value to a %list.
 786:c:\nxp\mcuxpressoide_10.2.1_795\ide\tools\arm-none-eabi\include\c++\7.2.1\bits\stl_list.h ****        *  @param  __n  Number of elements to be assigned.
 787:c:\nxp\mcuxpressoide_10.2.1_795\ide\tools\arm-none-eabi\include\c++\7.2.1\bits\stl_list.h ****        *  @param  __val  Value to be assigned.
 788:c:\nxp\mcuxpressoide_10.2.1_795\ide\tools\arm-none-eabi\include\c++\7.2.1\bits\stl_list.h ****        *
 789:c:\nxp\mcuxpressoide_10.2.1_795\ide\tools\arm-none-eabi\include\c++\7.2.1\bits\stl_list.h ****        *  This function fills a %list with @a __n copies of the given
 790:c:\nxp\mcuxpressoide_10.2.1_795\ide\tools\arm-none-eabi\include\c++\7.2.1\bits\stl_list.h ****        *  value.  Note that the assignment completely changes the %list
 791:c:\nxp\mcuxpressoide_10.2.1_795\ide\tools\arm-none-eabi\include\c++\7.2.1\bits\stl_list.h ****        *  and that the resulting %list's size is the same as the number
 792:c:\nxp\mcuxpressoide_10.2.1_795\ide\tools\arm-none-eabi\include\c++\7.2.1\bits\stl_list.h ****        *  of elements assigned.
 793:c:\nxp\mcuxpressoide_10.2.1_795\ide\tools\arm-none-eabi\include\c++\7.2.1\bits\stl_list.h ****        */
 794:c:\nxp\mcuxpressoide_10.2.1_795\ide\tools\arm-none-eabi\include\c++\7.2.1\bits\stl_list.h ****       void
 795:c:\nxp\mcuxpressoide_10.2.1_795\ide\tools\arm-none-eabi\include\c++\7.2.1\bits\stl_list.h ****       assign(size_type __n, const value_type& __val)
 796:c:\nxp\mcuxpressoide_10.2.1_795\ide\tools\arm-none-eabi\include\c++\7.2.1\bits\stl_list.h ****       { _M_fill_assign(__n, __val); }
 797:c:\nxp\mcuxpressoide_10.2.1_795\ide\tools\arm-none-eabi\include\c++\7.2.1\bits\stl_list.h **** 
 798:c:\nxp\mcuxpressoide_10.2.1_795\ide\tools\arm-none-eabi\include\c++\7.2.1\bits\stl_list.h ****       /**
 799:c:\nxp\mcuxpressoide_10.2.1_795\ide\tools\arm-none-eabi\include\c++\7.2.1\bits\stl_list.h ****        *  @brief  Assigns a range to a %list.
 800:c:\nxp\mcuxpressoide_10.2.1_795\ide\tools\arm-none-eabi\include\c++\7.2.1\bits\stl_list.h ****        *  @param  __first  An input iterator.
 801:c:\nxp\mcuxpressoide_10.2.1_795\ide\tools\arm-none-eabi\include\c++\7.2.1\bits\stl_list.h ****        *  @param  __last   An input iterator.
 802:c:\nxp\mcuxpressoide_10.2.1_795\ide\tools\arm-none-eabi\include\c++\7.2.1\bits\stl_list.h ****        *
 803:c:\nxp\mcuxpressoide_10.2.1_795\ide\tools\arm-none-eabi\include\c++\7.2.1\bits\stl_list.h ****        *  This function fills a %list with copies of the elements in the
 804:c:\nxp\mcuxpressoide_10.2.1_795\ide\tools\arm-none-eabi\include\c++\7.2.1\bits\stl_list.h ****        *  range [@a __first,@a __last).
 805:c:\nxp\mcuxpressoide_10.2.1_795\ide\tools\arm-none-eabi\include\c++\7.2.1\bits\stl_list.h ****        *
 806:c:\nxp\mcuxpressoide_10.2.1_795\ide\tools\arm-none-eabi\include\c++\7.2.1\bits\stl_list.h ****        *  Note that the assignment completely changes the %list and
 807:c:\nxp\mcuxpressoide_10.2.1_795\ide\tools\arm-none-eabi\include\c++\7.2.1\bits\stl_list.h ****        *  that the resulting %list's size is the same as the number of
 808:c:\nxp\mcuxpressoide_10.2.1_795\ide\tools\arm-none-eabi\include\c++\7.2.1\bits\stl_list.h ****        *  elements assigned.
 809:c:\nxp\mcuxpressoide_10.2.1_795\ide\tools\arm-none-eabi\include\c++\7.2.1\bits\stl_list.h ****        */
 810:c:\nxp\mcuxpressoide_10.2.1_795\ide\tools\arm-none-eabi\include\c++\7.2.1\bits\stl_list.h **** #if __cplusplus >= 201103L
ARM GAS  C:\Users\xavie\AppData\Local\Temp\ccUw5nyp.s 			page 30


 811:c:\nxp\mcuxpressoide_10.2.1_795\ide\tools\arm-none-eabi\include\c++\7.2.1\bits\stl_list.h ****       template<typename _InputIterator,
 812:c:\nxp\mcuxpressoide_10.2.1_795\ide\tools\arm-none-eabi\include\c++\7.2.1\bits\stl_list.h **** 	       typename = std::_RequireInputIter<_InputIterator>>
 813:c:\nxp\mcuxpressoide_10.2.1_795\ide\tools\arm-none-eabi\include\c++\7.2.1\bits\stl_list.h **** 	void
 814:c:\nxp\mcuxpressoide_10.2.1_795\ide\tools\arm-none-eabi\include\c++\7.2.1\bits\stl_list.h **** 	assign(_InputIterator __first, _InputIterator __last)
 815:c:\nxp\mcuxpressoide_10.2.1_795\ide\tools\arm-none-eabi\include\c++\7.2.1\bits\stl_list.h **** 	{ _M_assign_dispatch(__first, __last, __false_type()); }
 816:c:\nxp\mcuxpressoide_10.2.1_795\ide\tools\arm-none-eabi\include\c++\7.2.1\bits\stl_list.h **** #else
 817:c:\nxp\mcuxpressoide_10.2.1_795\ide\tools\arm-none-eabi\include\c++\7.2.1\bits\stl_list.h ****       template<typename _InputIterator>
 818:c:\nxp\mcuxpressoide_10.2.1_795\ide\tools\arm-none-eabi\include\c++\7.2.1\bits\stl_list.h **** 	void
 819:c:\nxp\mcuxpressoide_10.2.1_795\ide\tools\arm-none-eabi\include\c++\7.2.1\bits\stl_list.h **** 	assign(_InputIterator __first, _InputIterator __last)
 820:c:\nxp\mcuxpressoide_10.2.1_795\ide\tools\arm-none-eabi\include\c++\7.2.1\bits\stl_list.h **** 	{
 821:c:\nxp\mcuxpressoide_10.2.1_795\ide\tools\arm-none-eabi\include\c++\7.2.1\bits\stl_list.h **** 	  // Check whether it's an integral type.  If so, it's not an iterator.
 822:c:\nxp\mcuxpressoide_10.2.1_795\ide\tools\arm-none-eabi\include\c++\7.2.1\bits\stl_list.h **** 	  typedef typename std::__is_integer<_InputIterator>::__type _Integral;
 823:c:\nxp\mcuxpressoide_10.2.1_795\ide\tools\arm-none-eabi\include\c++\7.2.1\bits\stl_list.h **** 	  _M_assign_dispatch(__first, __last, _Integral());
 824:c:\nxp\mcuxpressoide_10.2.1_795\ide\tools\arm-none-eabi\include\c++\7.2.1\bits\stl_list.h **** 	}
 825:c:\nxp\mcuxpressoide_10.2.1_795\ide\tools\arm-none-eabi\include\c++\7.2.1\bits\stl_list.h **** #endif
 826:c:\nxp\mcuxpressoide_10.2.1_795\ide\tools\arm-none-eabi\include\c++\7.2.1\bits\stl_list.h **** 
 827:c:\nxp\mcuxpressoide_10.2.1_795\ide\tools\arm-none-eabi\include\c++\7.2.1\bits\stl_list.h **** #if __cplusplus >= 201103L
 828:c:\nxp\mcuxpressoide_10.2.1_795\ide\tools\arm-none-eabi\include\c++\7.2.1\bits\stl_list.h ****       /**
 829:c:\nxp\mcuxpressoide_10.2.1_795\ide\tools\arm-none-eabi\include\c++\7.2.1\bits\stl_list.h ****        *  @brief  Assigns an initializer_list to a %list.
 830:c:\nxp\mcuxpressoide_10.2.1_795\ide\tools\arm-none-eabi\include\c++\7.2.1\bits\stl_list.h ****        *  @param  __l  An initializer_list of value_type.
 831:c:\nxp\mcuxpressoide_10.2.1_795\ide\tools\arm-none-eabi\include\c++\7.2.1\bits\stl_list.h ****        *
 832:c:\nxp\mcuxpressoide_10.2.1_795\ide\tools\arm-none-eabi\include\c++\7.2.1\bits\stl_list.h ****        *  Replace the contents of the %list with copies of the elements
 833:c:\nxp\mcuxpressoide_10.2.1_795\ide\tools\arm-none-eabi\include\c++\7.2.1\bits\stl_list.h ****        *  in the initializer_list @a __l.  This is linear in __l.size().
 834:c:\nxp\mcuxpressoide_10.2.1_795\ide\tools\arm-none-eabi\include\c++\7.2.1\bits\stl_list.h ****        */
 835:c:\nxp\mcuxpressoide_10.2.1_795\ide\tools\arm-none-eabi\include\c++\7.2.1\bits\stl_list.h ****       void
 836:c:\nxp\mcuxpressoide_10.2.1_795\ide\tools\arm-none-eabi\include\c++\7.2.1\bits\stl_list.h ****       assign(initializer_list<value_type> __l)
 837:c:\nxp\mcuxpressoide_10.2.1_795\ide\tools\arm-none-eabi\include\c++\7.2.1\bits\stl_list.h ****       { this->_M_assign_dispatch(__l.begin(), __l.end(), __false_type()); }
 838:c:\nxp\mcuxpressoide_10.2.1_795\ide\tools\arm-none-eabi\include\c++\7.2.1\bits\stl_list.h **** #endif
 839:c:\nxp\mcuxpressoide_10.2.1_795\ide\tools\arm-none-eabi\include\c++\7.2.1\bits\stl_list.h **** 
 840:c:\nxp\mcuxpressoide_10.2.1_795\ide\tools\arm-none-eabi\include\c++\7.2.1\bits\stl_list.h ****       /// Get a copy of the memory allocation object.
 841:c:\nxp\mcuxpressoide_10.2.1_795\ide\tools\arm-none-eabi\include\c++\7.2.1\bits\stl_list.h ****       allocator_type
 842:c:\nxp\mcuxpressoide_10.2.1_795\ide\tools\arm-none-eabi\include\c++\7.2.1\bits\stl_list.h ****       get_allocator() const _GLIBCXX_NOEXCEPT
 843:c:\nxp\mcuxpressoide_10.2.1_795\ide\tools\arm-none-eabi\include\c++\7.2.1\bits\stl_list.h ****       { return allocator_type(_Base::_M_get_Node_allocator()); }
 844:c:\nxp\mcuxpressoide_10.2.1_795\ide\tools\arm-none-eabi\include\c++\7.2.1\bits\stl_list.h **** 
 845:c:\nxp\mcuxpressoide_10.2.1_795\ide\tools\arm-none-eabi\include\c++\7.2.1\bits\stl_list.h ****       // iterators
 846:c:\nxp\mcuxpressoide_10.2.1_795\ide\tools\arm-none-eabi\include\c++\7.2.1\bits\stl_list.h ****       /**
 847:c:\nxp\mcuxpressoide_10.2.1_795\ide\tools\arm-none-eabi\include\c++\7.2.1\bits\stl_list.h ****        *  Returns a read/write iterator that points to the first element in the
 848:c:\nxp\mcuxpressoide_10.2.1_795\ide\tools\arm-none-eabi\include\c++\7.2.1\bits\stl_list.h ****        *  %list.  Iteration is done in ordinary element order.
 849:c:\nxp\mcuxpressoide_10.2.1_795\ide\tools\arm-none-eabi\include\c++\7.2.1\bits\stl_list.h ****        */
 850:c:\nxp\mcuxpressoide_10.2.1_795\ide\tools\arm-none-eabi\include\c++\7.2.1\bits\stl_list.h ****       iterator
 851:c:\nxp\mcuxpressoide_10.2.1_795\ide\tools\arm-none-eabi\include\c++\7.2.1\bits\stl_list.h ****       begin() _GLIBCXX_NOEXCEPT
 852:c:\nxp\mcuxpressoide_10.2.1_795\ide\tools\arm-none-eabi\include\c++\7.2.1\bits\stl_list.h ****       { return iterator(this->_M_impl._M_node._M_next); }
 853:c:\nxp\mcuxpressoide_10.2.1_795\ide\tools\arm-none-eabi\include\c++\7.2.1\bits\stl_list.h **** 
 854:c:\nxp\mcuxpressoide_10.2.1_795\ide\tools\arm-none-eabi\include\c++\7.2.1\bits\stl_list.h ****       /**
 855:c:\nxp\mcuxpressoide_10.2.1_795\ide\tools\arm-none-eabi\include\c++\7.2.1\bits\stl_list.h ****        *  Returns a read-only (constant) iterator that points to the
 856:c:\nxp\mcuxpressoide_10.2.1_795\ide\tools\arm-none-eabi\include\c++\7.2.1\bits\stl_list.h ****        *  first element in the %list.  Iteration is done in ordinary
 857:c:\nxp\mcuxpressoide_10.2.1_795\ide\tools\arm-none-eabi\include\c++\7.2.1\bits\stl_list.h ****        *  element order.
 858:c:\nxp\mcuxpressoide_10.2.1_795\ide\tools\arm-none-eabi\include\c++\7.2.1\bits\stl_list.h ****        */
 859:c:\nxp\mcuxpressoide_10.2.1_795\ide\tools\arm-none-eabi\include\c++\7.2.1\bits\stl_list.h ****       const_iterator
 860:c:\nxp\mcuxpressoide_10.2.1_795\ide\tools\arm-none-eabi\include\c++\7.2.1\bits\stl_list.h ****       begin() const _GLIBCXX_NOEXCEPT
 861:c:\nxp\mcuxpressoide_10.2.1_795\ide\tools\arm-none-eabi\include\c++\7.2.1\bits\stl_list.h ****       { return const_iterator(this->_M_impl._M_node._M_next); }
 862:c:\nxp\mcuxpressoide_10.2.1_795\ide\tools\arm-none-eabi\include\c++\7.2.1\bits\stl_list.h **** 
 863:c:\nxp\mcuxpressoide_10.2.1_795\ide\tools\arm-none-eabi\include\c++\7.2.1\bits\stl_list.h ****       /**
 864:c:\nxp\mcuxpressoide_10.2.1_795\ide\tools\arm-none-eabi\include\c++\7.2.1\bits\stl_list.h ****        *  Returns a read/write iterator that points one past the last
 865:c:\nxp\mcuxpressoide_10.2.1_795\ide\tools\arm-none-eabi\include\c++\7.2.1\bits\stl_list.h ****        *  element in the %list.  Iteration is done in ordinary element
 866:c:\nxp\mcuxpressoide_10.2.1_795\ide\tools\arm-none-eabi\include\c++\7.2.1\bits\stl_list.h ****        *  order.
 867:c:\nxp\mcuxpressoide_10.2.1_795\ide\tools\arm-none-eabi\include\c++\7.2.1\bits\stl_list.h ****        */
ARM GAS  C:\Users\xavie\AppData\Local\Temp\ccUw5nyp.s 			page 31


 868:c:\nxp\mcuxpressoide_10.2.1_795\ide\tools\arm-none-eabi\include\c++\7.2.1\bits\stl_list.h ****       iterator
 869:c:\nxp\mcuxpressoide_10.2.1_795\ide\tools\arm-none-eabi\include\c++\7.2.1\bits\stl_list.h ****       end() _GLIBCXX_NOEXCEPT
 870:c:\nxp\mcuxpressoide_10.2.1_795\ide\tools\arm-none-eabi\include\c++\7.2.1\bits\stl_list.h ****       { return iterator(&this->_M_impl._M_node); }
 871:c:\nxp\mcuxpressoide_10.2.1_795\ide\tools\arm-none-eabi\include\c++\7.2.1\bits\stl_list.h **** 
 872:c:\nxp\mcuxpressoide_10.2.1_795\ide\tools\arm-none-eabi\include\c++\7.2.1\bits\stl_list.h ****       /**
 873:c:\nxp\mcuxpressoide_10.2.1_795\ide\tools\arm-none-eabi\include\c++\7.2.1\bits\stl_list.h ****        *  Returns a read-only (constant) iterator that points one past
 874:c:\nxp\mcuxpressoide_10.2.1_795\ide\tools\arm-none-eabi\include\c++\7.2.1\bits\stl_list.h ****        *  the last element in the %list.  Iteration is done in ordinary
 875:c:\nxp\mcuxpressoide_10.2.1_795\ide\tools\arm-none-eabi\include\c++\7.2.1\bits\stl_list.h ****        *  element order.
 876:c:\nxp\mcuxpressoide_10.2.1_795\ide\tools\arm-none-eabi\include\c++\7.2.1\bits\stl_list.h ****        */
 877:c:\nxp\mcuxpressoide_10.2.1_795\ide\tools\arm-none-eabi\include\c++\7.2.1\bits\stl_list.h ****       const_iterator
 878:c:\nxp\mcuxpressoide_10.2.1_795\ide\tools\arm-none-eabi\include\c++\7.2.1\bits\stl_list.h ****       end() const _GLIBCXX_NOEXCEPT
 879:c:\nxp\mcuxpressoide_10.2.1_795\ide\tools\arm-none-eabi\include\c++\7.2.1\bits\stl_list.h ****       { return const_iterator(&this->_M_impl._M_node); }
 880:c:\nxp\mcuxpressoide_10.2.1_795\ide\tools\arm-none-eabi\include\c++\7.2.1\bits\stl_list.h **** 
 881:c:\nxp\mcuxpressoide_10.2.1_795\ide\tools\arm-none-eabi\include\c++\7.2.1\bits\stl_list.h ****       /**
 882:c:\nxp\mcuxpressoide_10.2.1_795\ide\tools\arm-none-eabi\include\c++\7.2.1\bits\stl_list.h ****        *  Returns a read/write reverse iterator that points to the last
 883:c:\nxp\mcuxpressoide_10.2.1_795\ide\tools\arm-none-eabi\include\c++\7.2.1\bits\stl_list.h ****        *  element in the %list.  Iteration is done in reverse element
 884:c:\nxp\mcuxpressoide_10.2.1_795\ide\tools\arm-none-eabi\include\c++\7.2.1\bits\stl_list.h ****        *  order.
 885:c:\nxp\mcuxpressoide_10.2.1_795\ide\tools\arm-none-eabi\include\c++\7.2.1\bits\stl_list.h ****        */
 886:c:\nxp\mcuxpressoide_10.2.1_795\ide\tools\arm-none-eabi\include\c++\7.2.1\bits\stl_list.h ****       reverse_iterator
 887:c:\nxp\mcuxpressoide_10.2.1_795\ide\tools\arm-none-eabi\include\c++\7.2.1\bits\stl_list.h ****       rbegin() _GLIBCXX_NOEXCEPT
 888:c:\nxp\mcuxpressoide_10.2.1_795\ide\tools\arm-none-eabi\include\c++\7.2.1\bits\stl_list.h ****       { return reverse_iterator(end()); }
 889:c:\nxp\mcuxpressoide_10.2.1_795\ide\tools\arm-none-eabi\include\c++\7.2.1\bits\stl_list.h **** 
 890:c:\nxp\mcuxpressoide_10.2.1_795\ide\tools\arm-none-eabi\include\c++\7.2.1\bits\stl_list.h ****       /**
 891:c:\nxp\mcuxpressoide_10.2.1_795\ide\tools\arm-none-eabi\include\c++\7.2.1\bits\stl_list.h ****        *  Returns a read-only (constant) reverse iterator that points to
 892:c:\nxp\mcuxpressoide_10.2.1_795\ide\tools\arm-none-eabi\include\c++\7.2.1\bits\stl_list.h ****        *  the last element in the %list.  Iteration is done in reverse
 893:c:\nxp\mcuxpressoide_10.2.1_795\ide\tools\arm-none-eabi\include\c++\7.2.1\bits\stl_list.h ****        *  element order.
 894:c:\nxp\mcuxpressoide_10.2.1_795\ide\tools\arm-none-eabi\include\c++\7.2.1\bits\stl_list.h ****        */
 895:c:\nxp\mcuxpressoide_10.2.1_795\ide\tools\arm-none-eabi\include\c++\7.2.1\bits\stl_list.h ****       const_reverse_iterator
 896:c:\nxp\mcuxpressoide_10.2.1_795\ide\tools\arm-none-eabi\include\c++\7.2.1\bits\stl_list.h ****       rbegin() const _GLIBCXX_NOEXCEPT
 897:c:\nxp\mcuxpressoide_10.2.1_795\ide\tools\arm-none-eabi\include\c++\7.2.1\bits\stl_list.h ****       { return const_reverse_iterator(end()); }
 898:c:\nxp\mcuxpressoide_10.2.1_795\ide\tools\arm-none-eabi\include\c++\7.2.1\bits\stl_list.h **** 
 899:c:\nxp\mcuxpressoide_10.2.1_795\ide\tools\arm-none-eabi\include\c++\7.2.1\bits\stl_list.h ****       /**
 900:c:\nxp\mcuxpressoide_10.2.1_795\ide\tools\arm-none-eabi\include\c++\7.2.1\bits\stl_list.h ****        *  Returns a read/write reverse iterator that points to one
 901:c:\nxp\mcuxpressoide_10.2.1_795\ide\tools\arm-none-eabi\include\c++\7.2.1\bits\stl_list.h ****        *  before the first element in the %list.  Iteration is done in
 902:c:\nxp\mcuxpressoide_10.2.1_795\ide\tools\arm-none-eabi\include\c++\7.2.1\bits\stl_list.h ****        *  reverse element order.
 903:c:\nxp\mcuxpressoide_10.2.1_795\ide\tools\arm-none-eabi\include\c++\7.2.1\bits\stl_list.h ****        */
 904:c:\nxp\mcuxpressoide_10.2.1_795\ide\tools\arm-none-eabi\include\c++\7.2.1\bits\stl_list.h ****       reverse_iterator
 905:c:\nxp\mcuxpressoide_10.2.1_795\ide\tools\arm-none-eabi\include\c++\7.2.1\bits\stl_list.h ****       rend() _GLIBCXX_NOEXCEPT
 906:c:\nxp\mcuxpressoide_10.2.1_795\ide\tools\arm-none-eabi\include\c++\7.2.1\bits\stl_list.h ****       { return reverse_iterator(begin()); }
 907:c:\nxp\mcuxpressoide_10.2.1_795\ide\tools\arm-none-eabi\include\c++\7.2.1\bits\stl_list.h **** 
 908:c:\nxp\mcuxpressoide_10.2.1_795\ide\tools\arm-none-eabi\include\c++\7.2.1\bits\stl_list.h ****       /**
 909:c:\nxp\mcuxpressoide_10.2.1_795\ide\tools\arm-none-eabi\include\c++\7.2.1\bits\stl_list.h ****        *  Returns a read-only (constant) reverse iterator that points to one
 910:c:\nxp\mcuxpressoide_10.2.1_795\ide\tools\arm-none-eabi\include\c++\7.2.1\bits\stl_list.h ****        *  before the first element in the %list.  Iteration is done in reverse
 911:c:\nxp\mcuxpressoide_10.2.1_795\ide\tools\arm-none-eabi\include\c++\7.2.1\bits\stl_list.h ****        *  element order.
 912:c:\nxp\mcuxpressoide_10.2.1_795\ide\tools\arm-none-eabi\include\c++\7.2.1\bits\stl_list.h ****        */
 913:c:\nxp\mcuxpressoide_10.2.1_795\ide\tools\arm-none-eabi\include\c++\7.2.1\bits\stl_list.h ****       const_reverse_iterator
 914:c:\nxp\mcuxpressoide_10.2.1_795\ide\tools\arm-none-eabi\include\c++\7.2.1\bits\stl_list.h ****       rend() const _GLIBCXX_NOEXCEPT
 915:c:\nxp\mcuxpressoide_10.2.1_795\ide\tools\arm-none-eabi\include\c++\7.2.1\bits\stl_list.h ****       { return const_reverse_iterator(begin()); }
 916:c:\nxp\mcuxpressoide_10.2.1_795\ide\tools\arm-none-eabi\include\c++\7.2.1\bits\stl_list.h **** 
 917:c:\nxp\mcuxpressoide_10.2.1_795\ide\tools\arm-none-eabi\include\c++\7.2.1\bits\stl_list.h **** #if __cplusplus >= 201103L
 918:c:\nxp\mcuxpressoide_10.2.1_795\ide\tools\arm-none-eabi\include\c++\7.2.1\bits\stl_list.h ****       /**
 919:c:\nxp\mcuxpressoide_10.2.1_795\ide\tools\arm-none-eabi\include\c++\7.2.1\bits\stl_list.h ****        *  Returns a read-only (constant) iterator that points to the
 920:c:\nxp\mcuxpressoide_10.2.1_795\ide\tools\arm-none-eabi\include\c++\7.2.1\bits\stl_list.h ****        *  first element in the %list.  Iteration is done in ordinary
 921:c:\nxp\mcuxpressoide_10.2.1_795\ide\tools\arm-none-eabi\include\c++\7.2.1\bits\stl_list.h ****        *  element order.
 922:c:\nxp\mcuxpressoide_10.2.1_795\ide\tools\arm-none-eabi\include\c++\7.2.1\bits\stl_list.h ****        */
 923:c:\nxp\mcuxpressoide_10.2.1_795\ide\tools\arm-none-eabi\include\c++\7.2.1\bits\stl_list.h ****       const_iterator
 924:c:\nxp\mcuxpressoide_10.2.1_795\ide\tools\arm-none-eabi\include\c++\7.2.1\bits\stl_list.h ****       cbegin() const noexcept
ARM GAS  C:\Users\xavie\AppData\Local\Temp\ccUw5nyp.s 			page 32


 925:c:\nxp\mcuxpressoide_10.2.1_795\ide\tools\arm-none-eabi\include\c++\7.2.1\bits\stl_list.h ****       { return const_iterator(this->_M_impl._M_node._M_next); }
 926:c:\nxp\mcuxpressoide_10.2.1_795\ide\tools\arm-none-eabi\include\c++\7.2.1\bits\stl_list.h **** 
 927:c:\nxp\mcuxpressoide_10.2.1_795\ide\tools\arm-none-eabi\include\c++\7.2.1\bits\stl_list.h ****       /**
 928:c:\nxp\mcuxpressoide_10.2.1_795\ide\tools\arm-none-eabi\include\c++\7.2.1\bits\stl_list.h ****        *  Returns a read-only (constant) iterator that points one past
 929:c:\nxp\mcuxpressoide_10.2.1_795\ide\tools\arm-none-eabi\include\c++\7.2.1\bits\stl_list.h ****        *  the last element in the %list.  Iteration is done in ordinary
 930:c:\nxp\mcuxpressoide_10.2.1_795\ide\tools\arm-none-eabi\include\c++\7.2.1\bits\stl_list.h ****        *  element order.
 931:c:\nxp\mcuxpressoide_10.2.1_795\ide\tools\arm-none-eabi\include\c++\7.2.1\bits\stl_list.h ****        */
 932:c:\nxp\mcuxpressoide_10.2.1_795\ide\tools\arm-none-eabi\include\c++\7.2.1\bits\stl_list.h ****       const_iterator
 933:c:\nxp\mcuxpressoide_10.2.1_795\ide\tools\arm-none-eabi\include\c++\7.2.1\bits\stl_list.h ****       cend() const noexcept
 934:c:\nxp\mcuxpressoide_10.2.1_795\ide\tools\arm-none-eabi\include\c++\7.2.1\bits\stl_list.h ****       { return const_iterator(&this->_M_impl._M_node); }
 935:c:\nxp\mcuxpressoide_10.2.1_795\ide\tools\arm-none-eabi\include\c++\7.2.1\bits\stl_list.h **** 
 936:c:\nxp\mcuxpressoide_10.2.1_795\ide\tools\arm-none-eabi\include\c++\7.2.1\bits\stl_list.h ****       /**
 937:c:\nxp\mcuxpressoide_10.2.1_795\ide\tools\arm-none-eabi\include\c++\7.2.1\bits\stl_list.h ****        *  Returns a read-only (constant) reverse iterator that points to
 938:c:\nxp\mcuxpressoide_10.2.1_795\ide\tools\arm-none-eabi\include\c++\7.2.1\bits\stl_list.h ****        *  the last element in the %list.  Iteration is done in reverse
 939:c:\nxp\mcuxpressoide_10.2.1_795\ide\tools\arm-none-eabi\include\c++\7.2.1\bits\stl_list.h ****        *  element order.
 940:c:\nxp\mcuxpressoide_10.2.1_795\ide\tools\arm-none-eabi\include\c++\7.2.1\bits\stl_list.h ****        */
 941:c:\nxp\mcuxpressoide_10.2.1_795\ide\tools\arm-none-eabi\include\c++\7.2.1\bits\stl_list.h ****       const_reverse_iterator
 942:c:\nxp\mcuxpressoide_10.2.1_795\ide\tools\arm-none-eabi\include\c++\7.2.1\bits\stl_list.h ****       crbegin() const noexcept
 943:c:\nxp\mcuxpressoide_10.2.1_795\ide\tools\arm-none-eabi\include\c++\7.2.1\bits\stl_list.h ****       { return const_reverse_iterator(end()); }
 944:c:\nxp\mcuxpressoide_10.2.1_795\ide\tools\arm-none-eabi\include\c++\7.2.1\bits\stl_list.h **** 
 945:c:\nxp\mcuxpressoide_10.2.1_795\ide\tools\arm-none-eabi\include\c++\7.2.1\bits\stl_list.h ****       /**
 946:c:\nxp\mcuxpressoide_10.2.1_795\ide\tools\arm-none-eabi\include\c++\7.2.1\bits\stl_list.h ****        *  Returns a read-only (constant) reverse iterator that points to one
 947:c:\nxp\mcuxpressoide_10.2.1_795\ide\tools\arm-none-eabi\include\c++\7.2.1\bits\stl_list.h ****        *  before the first element in the %list.  Iteration is done in reverse
 948:c:\nxp\mcuxpressoide_10.2.1_795\ide\tools\arm-none-eabi\include\c++\7.2.1\bits\stl_list.h ****        *  element order.
 949:c:\nxp\mcuxpressoide_10.2.1_795\ide\tools\arm-none-eabi\include\c++\7.2.1\bits\stl_list.h ****        */
 950:c:\nxp\mcuxpressoide_10.2.1_795\ide\tools\arm-none-eabi\include\c++\7.2.1\bits\stl_list.h ****       const_reverse_iterator
 951:c:\nxp\mcuxpressoide_10.2.1_795\ide\tools\arm-none-eabi\include\c++\7.2.1\bits\stl_list.h ****       crend() const noexcept
 952:c:\nxp\mcuxpressoide_10.2.1_795\ide\tools\arm-none-eabi\include\c++\7.2.1\bits\stl_list.h ****       { return const_reverse_iterator(begin()); }
 953:c:\nxp\mcuxpressoide_10.2.1_795\ide\tools\arm-none-eabi\include\c++\7.2.1\bits\stl_list.h **** #endif
 954:c:\nxp\mcuxpressoide_10.2.1_795\ide\tools\arm-none-eabi\include\c++\7.2.1\bits\stl_list.h **** 
 955:c:\nxp\mcuxpressoide_10.2.1_795\ide\tools\arm-none-eabi\include\c++\7.2.1\bits\stl_list.h ****       // [23.2.2.2] capacity
 956:c:\nxp\mcuxpressoide_10.2.1_795\ide\tools\arm-none-eabi\include\c++\7.2.1\bits\stl_list.h ****       /**
 957:c:\nxp\mcuxpressoide_10.2.1_795\ide\tools\arm-none-eabi\include\c++\7.2.1\bits\stl_list.h ****        *  Returns true if the %list is empty.  (Thus begin() would equal
 958:c:\nxp\mcuxpressoide_10.2.1_795\ide\tools\arm-none-eabi\include\c++\7.2.1\bits\stl_list.h ****        *  end().)
 959:c:\nxp\mcuxpressoide_10.2.1_795\ide\tools\arm-none-eabi\include\c++\7.2.1\bits\stl_list.h ****        */
 960:c:\nxp\mcuxpressoide_10.2.1_795\ide\tools\arm-none-eabi\include\c++\7.2.1\bits\stl_list.h ****       bool
 961:c:\nxp\mcuxpressoide_10.2.1_795\ide\tools\arm-none-eabi\include\c++\7.2.1\bits\stl_list.h ****       empty() const _GLIBCXX_NOEXCEPT
 962:c:\nxp\mcuxpressoide_10.2.1_795\ide\tools\arm-none-eabi\include\c++\7.2.1\bits\stl_list.h ****       { return this->_M_impl._M_node._M_next == &this->_M_impl._M_node; }
 963:c:\nxp\mcuxpressoide_10.2.1_795\ide\tools\arm-none-eabi\include\c++\7.2.1\bits\stl_list.h **** 
 964:c:\nxp\mcuxpressoide_10.2.1_795\ide\tools\arm-none-eabi\include\c++\7.2.1\bits\stl_list.h ****       /**  Returns the number of elements in the %list.  */
 965:c:\nxp\mcuxpressoide_10.2.1_795\ide\tools\arm-none-eabi\include\c++\7.2.1\bits\stl_list.h ****       size_type
 966:c:\nxp\mcuxpressoide_10.2.1_795\ide\tools\arm-none-eabi\include\c++\7.2.1\bits\stl_list.h ****       size() const _GLIBCXX_NOEXCEPT
 967:c:\nxp\mcuxpressoide_10.2.1_795\ide\tools\arm-none-eabi\include\c++\7.2.1\bits\stl_list.h ****       { return this->_M_node_count(); }
 968:c:\nxp\mcuxpressoide_10.2.1_795\ide\tools\arm-none-eabi\include\c++\7.2.1\bits\stl_list.h **** 
 969:c:\nxp\mcuxpressoide_10.2.1_795\ide\tools\arm-none-eabi\include\c++\7.2.1\bits\stl_list.h ****       /**  Returns the size() of the largest possible %list.  */
 970:c:\nxp\mcuxpressoide_10.2.1_795\ide\tools\arm-none-eabi\include\c++\7.2.1\bits\stl_list.h ****       size_type
 971:c:\nxp\mcuxpressoide_10.2.1_795\ide\tools\arm-none-eabi\include\c++\7.2.1\bits\stl_list.h ****       max_size() const _GLIBCXX_NOEXCEPT
 972:c:\nxp\mcuxpressoide_10.2.1_795\ide\tools\arm-none-eabi\include\c++\7.2.1\bits\stl_list.h ****       { return _Node_alloc_traits::max_size(_M_get_Node_allocator()); }
 973:c:\nxp\mcuxpressoide_10.2.1_795\ide\tools\arm-none-eabi\include\c++\7.2.1\bits\stl_list.h **** 
 974:c:\nxp\mcuxpressoide_10.2.1_795\ide\tools\arm-none-eabi\include\c++\7.2.1\bits\stl_list.h **** #if __cplusplus >= 201103L
 975:c:\nxp\mcuxpressoide_10.2.1_795\ide\tools\arm-none-eabi\include\c++\7.2.1\bits\stl_list.h ****       /**
 976:c:\nxp\mcuxpressoide_10.2.1_795\ide\tools\arm-none-eabi\include\c++\7.2.1\bits\stl_list.h ****        *  @brief Resizes the %list to the specified number of elements.
 977:c:\nxp\mcuxpressoide_10.2.1_795\ide\tools\arm-none-eabi\include\c++\7.2.1\bits\stl_list.h ****        *  @param __new_size Number of elements the %list should contain.
 978:c:\nxp\mcuxpressoide_10.2.1_795\ide\tools\arm-none-eabi\include\c++\7.2.1\bits\stl_list.h ****        *
 979:c:\nxp\mcuxpressoide_10.2.1_795\ide\tools\arm-none-eabi\include\c++\7.2.1\bits\stl_list.h ****        *  This function will %resize the %list to the specified number
 980:c:\nxp\mcuxpressoide_10.2.1_795\ide\tools\arm-none-eabi\include\c++\7.2.1\bits\stl_list.h ****        *  of elements.  If the number is smaller than the %list's
 981:c:\nxp\mcuxpressoide_10.2.1_795\ide\tools\arm-none-eabi\include\c++\7.2.1\bits\stl_list.h ****        *  current size the %list is truncated, otherwise default
ARM GAS  C:\Users\xavie\AppData\Local\Temp\ccUw5nyp.s 			page 33


 982:c:\nxp\mcuxpressoide_10.2.1_795\ide\tools\arm-none-eabi\include\c++\7.2.1\bits\stl_list.h ****        *  constructed elements are appended.
 983:c:\nxp\mcuxpressoide_10.2.1_795\ide\tools\arm-none-eabi\include\c++\7.2.1\bits\stl_list.h ****        */
 984:c:\nxp\mcuxpressoide_10.2.1_795\ide\tools\arm-none-eabi\include\c++\7.2.1\bits\stl_list.h ****       void
 985:c:\nxp\mcuxpressoide_10.2.1_795\ide\tools\arm-none-eabi\include\c++\7.2.1\bits\stl_list.h ****       resize(size_type __new_size);
 986:c:\nxp\mcuxpressoide_10.2.1_795\ide\tools\arm-none-eabi\include\c++\7.2.1\bits\stl_list.h **** 
 987:c:\nxp\mcuxpressoide_10.2.1_795\ide\tools\arm-none-eabi\include\c++\7.2.1\bits\stl_list.h ****       /**
 988:c:\nxp\mcuxpressoide_10.2.1_795\ide\tools\arm-none-eabi\include\c++\7.2.1\bits\stl_list.h ****        *  @brief Resizes the %list to the specified number of elements.
 989:c:\nxp\mcuxpressoide_10.2.1_795\ide\tools\arm-none-eabi\include\c++\7.2.1\bits\stl_list.h ****        *  @param __new_size Number of elements the %list should contain.
 990:c:\nxp\mcuxpressoide_10.2.1_795\ide\tools\arm-none-eabi\include\c++\7.2.1\bits\stl_list.h ****        *  @param __x Data with which new elements should be populated.
 991:c:\nxp\mcuxpressoide_10.2.1_795\ide\tools\arm-none-eabi\include\c++\7.2.1\bits\stl_list.h ****        *
 992:c:\nxp\mcuxpressoide_10.2.1_795\ide\tools\arm-none-eabi\include\c++\7.2.1\bits\stl_list.h ****        *  This function will %resize the %list to the specified number
 993:c:\nxp\mcuxpressoide_10.2.1_795\ide\tools\arm-none-eabi\include\c++\7.2.1\bits\stl_list.h ****        *  of elements.  If the number is smaller than the %list's
 994:c:\nxp\mcuxpressoide_10.2.1_795\ide\tools\arm-none-eabi\include\c++\7.2.1\bits\stl_list.h ****        *  current size the %list is truncated, otherwise the %list is
 995:c:\nxp\mcuxpressoide_10.2.1_795\ide\tools\arm-none-eabi\include\c++\7.2.1\bits\stl_list.h ****        *  extended and new elements are populated with given data.
 996:c:\nxp\mcuxpressoide_10.2.1_795\ide\tools\arm-none-eabi\include\c++\7.2.1\bits\stl_list.h ****        */
 997:c:\nxp\mcuxpressoide_10.2.1_795\ide\tools\arm-none-eabi\include\c++\7.2.1\bits\stl_list.h ****       void
 998:c:\nxp\mcuxpressoide_10.2.1_795\ide\tools\arm-none-eabi\include\c++\7.2.1\bits\stl_list.h ****       resize(size_type __new_size, const value_type& __x);
 999:c:\nxp\mcuxpressoide_10.2.1_795\ide\tools\arm-none-eabi\include\c++\7.2.1\bits\stl_list.h **** #else
1000:c:\nxp\mcuxpressoide_10.2.1_795\ide\tools\arm-none-eabi\include\c++\7.2.1\bits\stl_list.h ****       /**
1001:c:\nxp\mcuxpressoide_10.2.1_795\ide\tools\arm-none-eabi\include\c++\7.2.1\bits\stl_list.h ****        *  @brief Resizes the %list to the specified number of elements.
1002:c:\nxp\mcuxpressoide_10.2.1_795\ide\tools\arm-none-eabi\include\c++\7.2.1\bits\stl_list.h ****        *  @param __new_size Number of elements the %list should contain.
1003:c:\nxp\mcuxpressoide_10.2.1_795\ide\tools\arm-none-eabi\include\c++\7.2.1\bits\stl_list.h ****        *  @param __x Data with which new elements should be populated.
1004:c:\nxp\mcuxpressoide_10.2.1_795\ide\tools\arm-none-eabi\include\c++\7.2.1\bits\stl_list.h ****        *
1005:c:\nxp\mcuxpressoide_10.2.1_795\ide\tools\arm-none-eabi\include\c++\7.2.1\bits\stl_list.h ****        *  This function will %resize the %list to the specified number
1006:c:\nxp\mcuxpressoide_10.2.1_795\ide\tools\arm-none-eabi\include\c++\7.2.1\bits\stl_list.h ****        *  of elements.  If the number is smaller than the %list's
1007:c:\nxp\mcuxpressoide_10.2.1_795\ide\tools\arm-none-eabi\include\c++\7.2.1\bits\stl_list.h ****        *  current size the %list is truncated, otherwise the %list is
1008:c:\nxp\mcuxpressoide_10.2.1_795\ide\tools\arm-none-eabi\include\c++\7.2.1\bits\stl_list.h ****        *  extended and new elements are populated with given data.
1009:c:\nxp\mcuxpressoide_10.2.1_795\ide\tools\arm-none-eabi\include\c++\7.2.1\bits\stl_list.h ****        */
1010:c:\nxp\mcuxpressoide_10.2.1_795\ide\tools\arm-none-eabi\include\c++\7.2.1\bits\stl_list.h ****       void
1011:c:\nxp\mcuxpressoide_10.2.1_795\ide\tools\arm-none-eabi\include\c++\7.2.1\bits\stl_list.h ****       resize(size_type __new_size, value_type __x = value_type());
1012:c:\nxp\mcuxpressoide_10.2.1_795\ide\tools\arm-none-eabi\include\c++\7.2.1\bits\stl_list.h **** #endif
1013:c:\nxp\mcuxpressoide_10.2.1_795\ide\tools\arm-none-eabi\include\c++\7.2.1\bits\stl_list.h **** 
1014:c:\nxp\mcuxpressoide_10.2.1_795\ide\tools\arm-none-eabi\include\c++\7.2.1\bits\stl_list.h ****       // element access
1015:c:\nxp\mcuxpressoide_10.2.1_795\ide\tools\arm-none-eabi\include\c++\7.2.1\bits\stl_list.h ****       /**
1016:c:\nxp\mcuxpressoide_10.2.1_795\ide\tools\arm-none-eabi\include\c++\7.2.1\bits\stl_list.h ****        *  Returns a read/write reference to the data at the first
1017:c:\nxp\mcuxpressoide_10.2.1_795\ide\tools\arm-none-eabi\include\c++\7.2.1\bits\stl_list.h ****        *  element of the %list.
1018:c:\nxp\mcuxpressoide_10.2.1_795\ide\tools\arm-none-eabi\include\c++\7.2.1\bits\stl_list.h ****        */
1019:c:\nxp\mcuxpressoide_10.2.1_795\ide\tools\arm-none-eabi\include\c++\7.2.1\bits\stl_list.h ****       reference
1020:c:\nxp\mcuxpressoide_10.2.1_795\ide\tools\arm-none-eabi\include\c++\7.2.1\bits\stl_list.h ****       front() _GLIBCXX_NOEXCEPT
1021:c:\nxp\mcuxpressoide_10.2.1_795\ide\tools\arm-none-eabi\include\c++\7.2.1\bits\stl_list.h ****       { return *begin(); }
1022:c:\nxp\mcuxpressoide_10.2.1_795\ide\tools\arm-none-eabi\include\c++\7.2.1\bits\stl_list.h **** 
1023:c:\nxp\mcuxpressoide_10.2.1_795\ide\tools\arm-none-eabi\include\c++\7.2.1\bits\stl_list.h ****       /**
1024:c:\nxp\mcuxpressoide_10.2.1_795\ide\tools\arm-none-eabi\include\c++\7.2.1\bits\stl_list.h ****        *  Returns a read-only (constant) reference to the data at the first
1025:c:\nxp\mcuxpressoide_10.2.1_795\ide\tools\arm-none-eabi\include\c++\7.2.1\bits\stl_list.h ****        *  element of the %list.
1026:c:\nxp\mcuxpressoide_10.2.1_795\ide\tools\arm-none-eabi\include\c++\7.2.1\bits\stl_list.h ****        */
1027:c:\nxp\mcuxpressoide_10.2.1_795\ide\tools\arm-none-eabi\include\c++\7.2.1\bits\stl_list.h ****       const_reference
1028:c:\nxp\mcuxpressoide_10.2.1_795\ide\tools\arm-none-eabi\include\c++\7.2.1\bits\stl_list.h ****       front() const _GLIBCXX_NOEXCEPT
1029:c:\nxp\mcuxpressoide_10.2.1_795\ide\tools\arm-none-eabi\include\c++\7.2.1\bits\stl_list.h ****       { return *begin(); }
1030:c:\nxp\mcuxpressoide_10.2.1_795\ide\tools\arm-none-eabi\include\c++\7.2.1\bits\stl_list.h **** 
1031:c:\nxp\mcuxpressoide_10.2.1_795\ide\tools\arm-none-eabi\include\c++\7.2.1\bits\stl_list.h ****       /**
1032:c:\nxp\mcuxpressoide_10.2.1_795\ide\tools\arm-none-eabi\include\c++\7.2.1\bits\stl_list.h ****        *  Returns a read/write reference to the data at the last element
1033:c:\nxp\mcuxpressoide_10.2.1_795\ide\tools\arm-none-eabi\include\c++\7.2.1\bits\stl_list.h ****        *  of the %list.
1034:c:\nxp\mcuxpressoide_10.2.1_795\ide\tools\arm-none-eabi\include\c++\7.2.1\bits\stl_list.h ****        */
1035:c:\nxp\mcuxpressoide_10.2.1_795\ide\tools\arm-none-eabi\include\c++\7.2.1\bits\stl_list.h ****       reference
1036:c:\nxp\mcuxpressoide_10.2.1_795\ide\tools\arm-none-eabi\include\c++\7.2.1\bits\stl_list.h ****       back() _GLIBCXX_NOEXCEPT
1037:c:\nxp\mcuxpressoide_10.2.1_795\ide\tools\arm-none-eabi\include\c++\7.2.1\bits\stl_list.h ****       {
1038:c:\nxp\mcuxpressoide_10.2.1_795\ide\tools\arm-none-eabi\include\c++\7.2.1\bits\stl_list.h **** 	iterator __tmp = end();
ARM GAS  C:\Users\xavie\AppData\Local\Temp\ccUw5nyp.s 			page 34


1039:c:\nxp\mcuxpressoide_10.2.1_795\ide\tools\arm-none-eabi\include\c++\7.2.1\bits\stl_list.h **** 	--__tmp;
1040:c:\nxp\mcuxpressoide_10.2.1_795\ide\tools\arm-none-eabi\include\c++\7.2.1\bits\stl_list.h **** 	return *__tmp;
1041:c:\nxp\mcuxpressoide_10.2.1_795\ide\tools\arm-none-eabi\include\c++\7.2.1\bits\stl_list.h ****       }
1042:c:\nxp\mcuxpressoide_10.2.1_795\ide\tools\arm-none-eabi\include\c++\7.2.1\bits\stl_list.h **** 
1043:c:\nxp\mcuxpressoide_10.2.1_795\ide\tools\arm-none-eabi\include\c++\7.2.1\bits\stl_list.h ****       /**
1044:c:\nxp\mcuxpressoide_10.2.1_795\ide\tools\arm-none-eabi\include\c++\7.2.1\bits\stl_list.h ****        *  Returns a read-only (constant) reference to the data at the last
1045:c:\nxp\mcuxpressoide_10.2.1_795\ide\tools\arm-none-eabi\include\c++\7.2.1\bits\stl_list.h ****        *  element of the %list.
1046:c:\nxp\mcuxpressoide_10.2.1_795\ide\tools\arm-none-eabi\include\c++\7.2.1\bits\stl_list.h ****        */
1047:c:\nxp\mcuxpressoide_10.2.1_795\ide\tools\arm-none-eabi\include\c++\7.2.1\bits\stl_list.h ****       const_reference
1048:c:\nxp\mcuxpressoide_10.2.1_795\ide\tools\arm-none-eabi\include\c++\7.2.1\bits\stl_list.h ****       back() const _GLIBCXX_NOEXCEPT
1049:c:\nxp\mcuxpressoide_10.2.1_795\ide\tools\arm-none-eabi\include\c++\7.2.1\bits\stl_list.h ****       {
1050:c:\nxp\mcuxpressoide_10.2.1_795\ide\tools\arm-none-eabi\include\c++\7.2.1\bits\stl_list.h **** 	const_iterator __tmp = end();
1051:c:\nxp\mcuxpressoide_10.2.1_795\ide\tools\arm-none-eabi\include\c++\7.2.1\bits\stl_list.h **** 	--__tmp;
1052:c:\nxp\mcuxpressoide_10.2.1_795\ide\tools\arm-none-eabi\include\c++\7.2.1\bits\stl_list.h **** 	return *__tmp;
1053:c:\nxp\mcuxpressoide_10.2.1_795\ide\tools\arm-none-eabi\include\c++\7.2.1\bits\stl_list.h ****       }
1054:c:\nxp\mcuxpressoide_10.2.1_795\ide\tools\arm-none-eabi\include\c++\7.2.1\bits\stl_list.h **** 
1055:c:\nxp\mcuxpressoide_10.2.1_795\ide\tools\arm-none-eabi\include\c++\7.2.1\bits\stl_list.h ****       // [23.2.2.3] modifiers
1056:c:\nxp\mcuxpressoide_10.2.1_795\ide\tools\arm-none-eabi\include\c++\7.2.1\bits\stl_list.h ****       /**
1057:c:\nxp\mcuxpressoide_10.2.1_795\ide\tools\arm-none-eabi\include\c++\7.2.1\bits\stl_list.h ****        *  @brief  Add data to the front of the %list.
1058:c:\nxp\mcuxpressoide_10.2.1_795\ide\tools\arm-none-eabi\include\c++\7.2.1\bits\stl_list.h ****        *  @param  __x  Data to be added.
1059:c:\nxp\mcuxpressoide_10.2.1_795\ide\tools\arm-none-eabi\include\c++\7.2.1\bits\stl_list.h ****        *
1060:c:\nxp\mcuxpressoide_10.2.1_795\ide\tools\arm-none-eabi\include\c++\7.2.1\bits\stl_list.h ****        *  This is a typical stack operation.  The function creates an
1061:c:\nxp\mcuxpressoide_10.2.1_795\ide\tools\arm-none-eabi\include\c++\7.2.1\bits\stl_list.h ****        *  element at the front of the %list and assigns the given data
1062:c:\nxp\mcuxpressoide_10.2.1_795\ide\tools\arm-none-eabi\include\c++\7.2.1\bits\stl_list.h ****        *  to it.  Due to the nature of a %list this operation can be
1063:c:\nxp\mcuxpressoide_10.2.1_795\ide\tools\arm-none-eabi\include\c++\7.2.1\bits\stl_list.h ****        *  done in constant time, and does not invalidate iterators and
1064:c:\nxp\mcuxpressoide_10.2.1_795\ide\tools\arm-none-eabi\include\c++\7.2.1\bits\stl_list.h ****        *  references.
1065:c:\nxp\mcuxpressoide_10.2.1_795\ide\tools\arm-none-eabi\include\c++\7.2.1\bits\stl_list.h ****        */
1066:c:\nxp\mcuxpressoide_10.2.1_795\ide\tools\arm-none-eabi\include\c++\7.2.1\bits\stl_list.h ****       void
1067:c:\nxp\mcuxpressoide_10.2.1_795\ide\tools\arm-none-eabi\include\c++\7.2.1\bits\stl_list.h ****       push_front(const value_type& __x)
 419              		.loc 4 1067 0
 420              		.cfi_startproc
 421              		@ args = 0, pretend = 0, frame = 8
 422              		@ frame_needed = 1, uses_anonymous_args = 0
 423 0000 80B5     		push	{r7, lr}
 424              		.cfi_def_cfa_offset 8
 425              		.cfi_offset 7, -8
 426              		.cfi_offset 14, -4
 427 0002 82B0     		sub	sp, sp, #8
 428              		.cfi_def_cfa_offset 16
 429 0004 00AF     		add	r7, sp, #0
 430              		.cfi_def_cfa_register 7
 431 0006 7860     		str	r0, [r7, #4]
 432 0008 3960     		str	r1, [r7]
1068:c:\nxp\mcuxpressoide_10.2.1_795\ide\tools\arm-none-eabi\include\c++\7.2.1\bits\stl_list.h ****       { this->_M_insert(begin(), __x); }
 433              		.loc 4 1068 0
 434 000a 7868     		ldr	r0, [r7, #4]
 435 000c FFF7FEFF 		bl	_ZNSt7__cxx114listIP7IUpdateSaIS2_EE5beginEv
 436 0010 0346     		mov	r3, r0
 437 0012 3A68     		ldr	r2, [r7]
 438 0014 1946     		mov	r1, r3
 439 0016 7868     		ldr	r0, [r7, #4]
 440 0018 FFF7FEFF 		bl	_ZNSt7__cxx114listIP7IUpdateSaIS2_EE9_M_insertIJRKS2_EEEvSt14_List_iteratorIS2_EDpOT_
 441 001c 00BF     		nop
 442 001e 0837     		adds	r7, r7, #8
 443              		.cfi_def_cfa_offset 8
 444 0020 BD46     		mov	sp, r7
 445              		.cfi_def_cfa_register 13
ARM GAS  C:\Users\xavie\AppData\Local\Temp\ccUw5nyp.s 			page 35


 446              		@ sp needed
 447 0022 80BD     		pop	{r7, pc}
 448              		.cfi_endproc
 449              	.LFE1683:
 451              		.section	.text._ZNSt7__cxx114listIP7IUpdateSaIS2_EE9pop_frontEv,"axG",%progbits,_ZNSt7__cxx114list
 452              		.align	1
 453              		.weak	_ZNSt7__cxx114listIP7IUpdateSaIS2_EE9pop_frontEv
 454              		.syntax unified
 455              		.thumb
 456              		.thumb_func
 457              		.fpu softvfp
 459              	_ZNSt7__cxx114listIP7IUpdateSaIS2_EE9pop_frontEv:
 460              	.LFB1684:
1069:c:\nxp\mcuxpressoide_10.2.1_795\ide\tools\arm-none-eabi\include\c++\7.2.1\bits\stl_list.h **** 
1070:c:\nxp\mcuxpressoide_10.2.1_795\ide\tools\arm-none-eabi\include\c++\7.2.1\bits\stl_list.h **** #if __cplusplus >= 201103L
1071:c:\nxp\mcuxpressoide_10.2.1_795\ide\tools\arm-none-eabi\include\c++\7.2.1\bits\stl_list.h ****       void
1072:c:\nxp\mcuxpressoide_10.2.1_795\ide\tools\arm-none-eabi\include\c++\7.2.1\bits\stl_list.h ****       push_front(value_type&& __x)
1073:c:\nxp\mcuxpressoide_10.2.1_795\ide\tools\arm-none-eabi\include\c++\7.2.1\bits\stl_list.h ****       { this->_M_insert(begin(), std::move(__x)); }
1074:c:\nxp\mcuxpressoide_10.2.1_795\ide\tools\arm-none-eabi\include\c++\7.2.1\bits\stl_list.h **** 
1075:c:\nxp\mcuxpressoide_10.2.1_795\ide\tools\arm-none-eabi\include\c++\7.2.1\bits\stl_list.h ****       template<typename... _Args>
1076:c:\nxp\mcuxpressoide_10.2.1_795\ide\tools\arm-none-eabi\include\c++\7.2.1\bits\stl_list.h **** #if __cplusplus > 201402L
1077:c:\nxp\mcuxpressoide_10.2.1_795\ide\tools\arm-none-eabi\include\c++\7.2.1\bits\stl_list.h **** 	reference
1078:c:\nxp\mcuxpressoide_10.2.1_795\ide\tools\arm-none-eabi\include\c++\7.2.1\bits\stl_list.h **** #else
1079:c:\nxp\mcuxpressoide_10.2.1_795\ide\tools\arm-none-eabi\include\c++\7.2.1\bits\stl_list.h **** 	void
1080:c:\nxp\mcuxpressoide_10.2.1_795\ide\tools\arm-none-eabi\include\c++\7.2.1\bits\stl_list.h **** #endif
1081:c:\nxp\mcuxpressoide_10.2.1_795\ide\tools\arm-none-eabi\include\c++\7.2.1\bits\stl_list.h **** 	emplace_front(_Args&&... __args)
1082:c:\nxp\mcuxpressoide_10.2.1_795\ide\tools\arm-none-eabi\include\c++\7.2.1\bits\stl_list.h **** 	{
1083:c:\nxp\mcuxpressoide_10.2.1_795\ide\tools\arm-none-eabi\include\c++\7.2.1\bits\stl_list.h **** 	  this->_M_insert(begin(), std::forward<_Args>(__args)...);
1084:c:\nxp\mcuxpressoide_10.2.1_795\ide\tools\arm-none-eabi\include\c++\7.2.1\bits\stl_list.h **** #if __cplusplus > 201402L
1085:c:\nxp\mcuxpressoide_10.2.1_795\ide\tools\arm-none-eabi\include\c++\7.2.1\bits\stl_list.h **** 	  return front();
1086:c:\nxp\mcuxpressoide_10.2.1_795\ide\tools\arm-none-eabi\include\c++\7.2.1\bits\stl_list.h **** #endif
1087:c:\nxp\mcuxpressoide_10.2.1_795\ide\tools\arm-none-eabi\include\c++\7.2.1\bits\stl_list.h **** 	}
1088:c:\nxp\mcuxpressoide_10.2.1_795\ide\tools\arm-none-eabi\include\c++\7.2.1\bits\stl_list.h **** #endif
1089:c:\nxp\mcuxpressoide_10.2.1_795\ide\tools\arm-none-eabi\include\c++\7.2.1\bits\stl_list.h **** 
1090:c:\nxp\mcuxpressoide_10.2.1_795\ide\tools\arm-none-eabi\include\c++\7.2.1\bits\stl_list.h ****       /**
1091:c:\nxp\mcuxpressoide_10.2.1_795\ide\tools\arm-none-eabi\include\c++\7.2.1\bits\stl_list.h ****        *  @brief  Removes first element.
1092:c:\nxp\mcuxpressoide_10.2.1_795\ide\tools\arm-none-eabi\include\c++\7.2.1\bits\stl_list.h ****        *
1093:c:\nxp\mcuxpressoide_10.2.1_795\ide\tools\arm-none-eabi\include\c++\7.2.1\bits\stl_list.h ****        *  This is a typical stack operation.  It shrinks the %list by
1094:c:\nxp\mcuxpressoide_10.2.1_795\ide\tools\arm-none-eabi\include\c++\7.2.1\bits\stl_list.h ****        *  one.  Due to the nature of a %list this operation can be done
1095:c:\nxp\mcuxpressoide_10.2.1_795\ide\tools\arm-none-eabi\include\c++\7.2.1\bits\stl_list.h ****        *  in constant time, and only invalidates iterators/references to
1096:c:\nxp\mcuxpressoide_10.2.1_795\ide\tools\arm-none-eabi\include\c++\7.2.1\bits\stl_list.h ****        *  the element being removed.
1097:c:\nxp\mcuxpressoide_10.2.1_795\ide\tools\arm-none-eabi\include\c++\7.2.1\bits\stl_list.h ****        *
1098:c:\nxp\mcuxpressoide_10.2.1_795\ide\tools\arm-none-eabi\include\c++\7.2.1\bits\stl_list.h ****        *  Note that no data is returned, and if the first element's data
1099:c:\nxp\mcuxpressoide_10.2.1_795\ide\tools\arm-none-eabi\include\c++\7.2.1\bits\stl_list.h ****        *  is needed, it should be retrieved before pop_front() is
1100:c:\nxp\mcuxpressoide_10.2.1_795\ide\tools\arm-none-eabi\include\c++\7.2.1\bits\stl_list.h ****        *  called.
1101:c:\nxp\mcuxpressoide_10.2.1_795\ide\tools\arm-none-eabi\include\c++\7.2.1\bits\stl_list.h ****        */
1102:c:\nxp\mcuxpressoide_10.2.1_795\ide\tools\arm-none-eabi\include\c++\7.2.1\bits\stl_list.h ****       void
1103:c:\nxp\mcuxpressoide_10.2.1_795\ide\tools\arm-none-eabi\include\c++\7.2.1\bits\stl_list.h ****       pop_front() _GLIBCXX_NOEXCEPT
 461              		.loc 4 1103 0
 462              		.cfi_startproc
 463              		@ args = 0, pretend = 0, frame = 8
 464              		@ frame_needed = 1, uses_anonymous_args = 0
 465 0000 80B5     		push	{r7, lr}
 466              		.cfi_def_cfa_offset 8
 467              		.cfi_offset 7, -8
 468              		.cfi_offset 14, -4
 469 0002 82B0     		sub	sp, sp, #8
ARM GAS  C:\Users\xavie\AppData\Local\Temp\ccUw5nyp.s 			page 36


 470              		.cfi_def_cfa_offset 16
 471 0004 00AF     		add	r7, sp, #0
 472              		.cfi_def_cfa_register 7
 473 0006 7860     		str	r0, [r7, #4]
1104:c:\nxp\mcuxpressoide_10.2.1_795\ide\tools\arm-none-eabi\include\c++\7.2.1\bits\stl_list.h ****       { this->_M_erase(begin()); }
 474              		.loc 4 1104 0
 475 0008 7868     		ldr	r0, [r7, #4]
 476 000a FFF7FEFF 		bl	_ZNSt7__cxx114listIP7IUpdateSaIS2_EE5beginEv
 477 000e 0346     		mov	r3, r0
 478 0010 1946     		mov	r1, r3
 479 0012 7868     		ldr	r0, [r7, #4]
 480 0014 FFF7FEFF 		bl	_ZNSt7__cxx114listIP7IUpdateSaIS2_EE8_M_eraseESt14_List_iteratorIS2_E
 481 0018 00BF     		nop
 482 001a 0837     		adds	r7, r7, #8
 483              		.cfi_def_cfa_offset 8
 484 001c BD46     		mov	sp, r7
 485              		.cfi_def_cfa_register 13
 486              		@ sp needed
 487 001e 80BD     		pop	{r7, pc}
 488              		.cfi_endproc
 489              	.LFE1684:
 491              		.section	.text._ZNKSt7__cxx114listIP7IUpdateSaIS2_EE4sizeEv,"axG",%progbits,_ZNKSt7__cxx114listIP7
 492              		.align	1
 493              		.weak	_ZNKSt7__cxx114listIP7IUpdateSaIS2_EE4sizeEv
 494              		.syntax unified
 495              		.thumb
 496              		.thumb_func
 497              		.fpu softvfp
 499              	_ZNKSt7__cxx114listIP7IUpdateSaIS2_EE4sizeEv:
 500              	.LFB1685:
 966:c:\nxp\mcuxpressoide_10.2.1_795\ide\tools\arm-none-eabi\include\c++\7.2.1\bits\stl_list.h ****       { return this->_M_node_count(); }
 501              		.loc 4 966 0
 502              		.cfi_startproc
 503              		@ args = 0, pretend = 0, frame = 8
 504              		@ frame_needed = 1, uses_anonymous_args = 0
 505 0000 80B5     		push	{r7, lr}
 506              		.cfi_def_cfa_offset 8
 507              		.cfi_offset 7, -8
 508              		.cfi_offset 14, -4
 509 0002 82B0     		sub	sp, sp, #8
 510              		.cfi_def_cfa_offset 16
 511 0004 00AF     		add	r7, sp, #0
 512              		.cfi_def_cfa_register 7
 513 0006 7860     		str	r0, [r7, #4]
 967:c:\nxp\mcuxpressoide_10.2.1_795\ide\tools\arm-none-eabi\include\c++\7.2.1\bits\stl_list.h **** 
 514              		.loc 4 967 0
 515 0008 7B68     		ldr	r3, [r7, #4]
 516 000a 1846     		mov	r0, r3
 517 000c FFF7FEFF 		bl	_ZNKSt7__cxx1110_List_baseIP7IUpdateSaIS2_EE13_M_node_countEv
 518 0010 0346     		mov	r3, r0
 519 0012 1846     		mov	r0, r3
 520 0014 0837     		adds	r7, r7, #8
 521              		.cfi_def_cfa_offset 8
 522 0016 BD46     		mov	sp, r7
 523              		.cfi_def_cfa_register 13
 524              		@ sp needed
 525 0018 80BD     		pop	{r7, pc}
ARM GAS  C:\Users\xavie\AppData\Local\Temp\ccUw5nyp.s 			page 37


 526              		.cfi_endproc
 527              	.LFE1685:
 529              		.section	.text._ZNSt7__cxx114listIP7IUpdateSaIS2_EE5beginEv,"axG",%progbits,_ZNSt7__cxx114listIP7I
 530              		.align	1
 531              		.weak	_ZNSt7__cxx114listIP7IUpdateSaIS2_EE5beginEv
 532              		.syntax unified
 533              		.thumb
 534              		.thumb_func
 535              		.fpu softvfp
 537              	_ZNSt7__cxx114listIP7IUpdateSaIS2_EE5beginEv:
 538              	.LFB1686:
 851:c:\nxp\mcuxpressoide_10.2.1_795\ide\tools\arm-none-eabi\include\c++\7.2.1\bits\stl_list.h ****       { return iterator(this->_M_impl._M_node._M_next); }
 539              		.loc 4 851 0
 540              		.cfi_startproc
 541              		@ args = 0, pretend = 0, frame = 16
 542              		@ frame_needed = 1, uses_anonymous_args = 0
 543 0000 80B5     		push	{r7, lr}
 544              		.cfi_def_cfa_offset 8
 545              		.cfi_offset 7, -8
 546              		.cfi_offset 14, -4
 547 0002 84B0     		sub	sp, sp, #16
 548              		.cfi_def_cfa_offset 24
 549 0004 00AF     		add	r7, sp, #0
 550              		.cfi_def_cfa_register 7
 551 0006 7860     		str	r0, [r7, #4]
 852:c:\nxp\mcuxpressoide_10.2.1_795\ide\tools\arm-none-eabi\include\c++\7.2.1\bits\stl_list.h **** 
 552              		.loc 4 852 0
 553 0008 7B68     		ldr	r3, [r7, #4]
 554 000a 1A68     		ldr	r2, [r3]
 555 000c 07F10C03 		add	r3, r7, #12
 556 0010 1146     		mov	r1, r2
 557 0012 1846     		mov	r0, r3
 558 0014 FFF7FEFF 		bl	_ZNSt14_List_iteratorIP7IUpdateEC1EPNSt8__detail15_List_node_baseE
 559 0018 FB68     		ldr	r3, [r7, #12]
 560 001a 1846     		mov	r0, r3
 561 001c 1037     		adds	r7, r7, #16
 562              		.cfi_def_cfa_offset 8
 563 001e BD46     		mov	sp, r7
 564              		.cfi_def_cfa_register 13
 565              		@ sp needed
 566 0020 80BD     		pop	{r7, pc}
 567              		.cfi_endproc
 568              	.LFE1686:
 570              		.section	.text._ZNKSt14_List_iteratorIP7IUpdateEdeEv,"axG",%progbits,_ZNKSt14_List_iteratorIP7IUpd
 571              		.align	1
 572              		.weak	_ZNKSt14_List_iteratorIP7IUpdateEdeEv
 573              		.syntax unified
 574              		.thumb
 575              		.thumb_func
 576              		.fpu softvfp
 578              	_ZNKSt14_List_iteratorIP7IUpdateEdeEv:
 579              	.LFB1687:
 152:c:\nxp\mcuxpressoide_10.2.1_795\ide\tools\arm-none-eabi\include\c++\7.2.1\bits\stl_list.h ****       { return *static_cast<_Node*>(_M_node)->_M_valptr(); }
 580              		.loc 4 152 0
 581              		.cfi_startproc
 582              		@ args = 0, pretend = 0, frame = 8
 583              		@ frame_needed = 1, uses_anonymous_args = 0
ARM GAS  C:\Users\xavie\AppData\Local\Temp\ccUw5nyp.s 			page 38


 584 0000 80B5     		push	{r7, lr}
 585              		.cfi_def_cfa_offset 8
 586              		.cfi_offset 7, -8
 587              		.cfi_offset 14, -4
 588 0002 82B0     		sub	sp, sp, #8
 589              		.cfi_def_cfa_offset 16
 590 0004 00AF     		add	r7, sp, #0
 591              		.cfi_def_cfa_register 7
 592 0006 7860     		str	r0, [r7, #4]
 153:c:\nxp\mcuxpressoide_10.2.1_795\ide\tools\arm-none-eabi\include\c++\7.2.1\bits\stl_list.h **** 
 593              		.loc 4 153 0
 594 0008 7B68     		ldr	r3, [r7, #4]
 595 000a 1B68     		ldr	r3, [r3]
 596 000c 1846     		mov	r0, r3
 597 000e FFF7FEFF 		bl	_ZNSt10_List_nodeIP7IUpdateE9_M_valptrEv
 598 0012 0346     		mov	r3, r0
 599 0014 1846     		mov	r0, r3
 600 0016 0837     		adds	r7, r7, #8
 601              		.cfi_def_cfa_offset 8
 602 0018 BD46     		mov	sp, r7
 603              		.cfi_def_cfa_register 13
 604              		@ sp needed
 605 001a 80BD     		pop	{r7, pc}
 606              		.cfi_endproc
 607              	.LFE1687:
 609              		.section	.text._ZNSt7__cxx1110_List_baseIP7IUpdateSaIS2_EE10_List_implD2Ev,"axG",%progbits,_ZNSt7_
 610              		.align	1
 611              		.weak	_ZNSt7__cxx1110_List_baseIP7IUpdateSaIS2_EE10_List_implD2Ev
 612              		.syntax unified
 613              		.thumb
 614              		.thumb_func
 615              		.fpu softvfp
 617              	_ZNSt7__cxx1110_List_baseIP7IUpdateSaIS2_EE10_List_implD2Ev:
 618              	.LFB1788:
 323:c:\nxp\mcuxpressoide_10.2.1_795\ide\tools\arm-none-eabi\include\c++\7.2.1\bits\stl_list.h ****       : public _Node_alloc_type
 619              		.loc 4 323 0
 620              		.cfi_startproc
 621              		@ args = 0, pretend = 0, frame = 8
 622              		@ frame_needed = 1, uses_anonymous_args = 0
 623 0000 80B5     		push	{r7, lr}
 624              		.cfi_def_cfa_offset 8
 625              		.cfi_offset 7, -8
 626              		.cfi_offset 14, -4
 627 0002 82B0     		sub	sp, sp, #8
 628              		.cfi_def_cfa_offset 16
 629 0004 00AF     		add	r7, sp, #0
 630              		.cfi_def_cfa_register 7
 631 0006 7860     		str	r0, [r7, #4]
 632              	.LBB4:
 323:c:\nxp\mcuxpressoide_10.2.1_795\ide\tools\arm-none-eabi\include\c++\7.2.1\bits\stl_list.h ****       : public _Node_alloc_type
 633              		.loc 4 323 0
 634 0008 7868     		ldr	r0, [r7, #4]
 635 000a FFF7FEFF 		bl	_ZNSaISt10_List_nodeIP7IUpdateEED2Ev
 636              	.LBE4:
 637 000e 7B68     		ldr	r3, [r7, #4]
 638 0010 1846     		mov	r0, r3
 639 0012 0837     		adds	r7, r7, #8
ARM GAS  C:\Users\xavie\AppData\Local\Temp\ccUw5nyp.s 			page 39


 640              		.cfi_def_cfa_offset 8
 641 0014 BD46     		mov	sp, r7
 642              		.cfi_def_cfa_register 13
 643              		@ sp needed
 644 0016 80BD     		pop	{r7, pc}
 645              		.cfi_endproc
 646              	.LFE1788:
 648              		.weak	_ZNSt7__cxx1110_List_baseIP7IUpdateSaIS2_EE10_List_implD1Ev
 649              		.thumb_set _ZNSt7__cxx1110_List_baseIP7IUpdateSaIS2_EE10_List_implD1Ev,_ZNSt7__cxx1110_List_baseIP
 650              		.section	.text._ZNSt7__cxx1110_List_baseIP7IUpdateSaIS2_EEC2Ev,"axG",%progbits,_ZNSt7__cxx1110_Lis
 651              		.align	1
 652              		.weak	_ZNSt7__cxx1110_List_baseIP7IUpdateSaIS2_EEC2Ev
 653              		.syntax unified
 654              		.thumb
 655              		.thumb_func
 656              		.fpu softvfp
 658              	_ZNSt7__cxx1110_List_baseIP7IUpdateSaIS2_EEC2Ev:
 659              	.LFB1790:
 400:c:\nxp\mcuxpressoide_10.2.1_795\ide\tools\arm-none-eabi\include\c++\7.2.1\bits\stl_list.h ****       : _M_impl()
 660              		.loc 4 400 0
 661              		.cfi_startproc
 662              		@ args = 0, pretend = 0, frame = 8
 663              		@ frame_needed = 1, uses_anonymous_args = 0
 664 0000 80B5     		push	{r7, lr}
 665              		.cfi_def_cfa_offset 8
 666              		.cfi_offset 7, -8
 667              		.cfi_offset 14, -4
 668 0002 82B0     		sub	sp, sp, #8
 669              		.cfi_def_cfa_offset 16
 670 0004 00AF     		add	r7, sp, #0
 671              		.cfi_def_cfa_register 7
 672 0006 7860     		str	r0, [r7, #4]
 673              	.LBB5:
 401:c:\nxp\mcuxpressoide_10.2.1_795\ide\tools\arm-none-eabi\include\c++\7.2.1\bits\stl_list.h ****       { _M_init(); }
 674              		.loc 4 401 0
 675 0008 7B68     		ldr	r3, [r7, #4]
 676 000a 1846     		mov	r0, r3
 677 000c FFF7FEFF 		bl	_ZNSt7__cxx1110_List_baseIP7IUpdateSaIS2_EE10_List_implC1Ev
 402:c:\nxp\mcuxpressoide_10.2.1_795\ide\tools\arm-none-eabi\include\c++\7.2.1\bits\stl_list.h **** 
 678              		.loc 4 402 0
 679 0010 7868     		ldr	r0, [r7, #4]
 680 0012 FFF7FEFF 		bl	_ZNSt7__cxx1110_List_baseIP7IUpdateSaIS2_EE7_M_initEv
 681              	.LBE5:
 682 0016 7B68     		ldr	r3, [r7, #4]
 683 0018 1846     		mov	r0, r3
 684 001a 0837     		adds	r7, r7, #8
 685              		.cfi_def_cfa_offset 8
 686 001c BD46     		mov	sp, r7
 687              		.cfi_def_cfa_register 13
 688              		@ sp needed
 689 001e 80BD     		pop	{r7, pc}
 690              		.cfi_endproc
 691              	.LFE1790:
 693              		.weak	_ZNSt7__cxx1110_List_baseIP7IUpdateSaIS2_EEC1Ev
 694              		.thumb_set _ZNSt7__cxx1110_List_baseIP7IUpdateSaIS2_EEC1Ev,_ZNSt7__cxx1110_List_baseIP7IUpdateSaIS
 695              		.section	.text._ZNSt7__cxx1110_List_baseIP7IUpdateSaIS2_EED2Ev,"axG",%progbits,_ZNSt7__cxx1110_Lis
 696              		.align	1
ARM GAS  C:\Users\xavie\AppData\Local\Temp\ccUw5nyp.s 			page 40


 697              		.weak	_ZNSt7__cxx1110_List_baseIP7IUpdateSaIS2_EED2Ev
 698              		.syntax unified
 699              		.thumb
 700              		.thumb_func
 701              		.fpu softvfp
 703              	_ZNSt7__cxx1110_List_baseIP7IUpdateSaIS2_EED2Ev:
 704              	.LFB1793:
 441:c:\nxp\mcuxpressoide_10.2.1_795\ide\tools\arm-none-eabi\include\c++\7.2.1\bits\stl_list.h ****       { _M_clear(); }
 705              		.loc 4 441 0
 706              		.cfi_startproc
 707              		@ args = 0, pretend = 0, frame = 8
 708              		@ frame_needed = 1, uses_anonymous_args = 0
 709 0000 80B5     		push	{r7, lr}
 710              		.cfi_def_cfa_offset 8
 711              		.cfi_offset 7, -8
 712              		.cfi_offset 14, -4
 713 0002 82B0     		sub	sp, sp, #8
 714              		.cfi_def_cfa_offset 16
 715 0004 00AF     		add	r7, sp, #0
 716              		.cfi_def_cfa_register 7
 717 0006 7860     		str	r0, [r7, #4]
 718              	.LBB6:
 442:c:\nxp\mcuxpressoide_10.2.1_795\ide\tools\arm-none-eabi\include\c++\7.2.1\bits\stl_list.h **** 
 719              		.loc 4 442 0
 720 0008 7868     		ldr	r0, [r7, #4]
 721 000a FFF7FEFF 		bl	_ZNSt7__cxx1110_List_baseIP7IUpdateSaIS2_EE8_M_clearEv
 722 000e 7B68     		ldr	r3, [r7, #4]
 723 0010 1846     		mov	r0, r3
 724 0012 FFF7FEFF 		bl	_ZNSt7__cxx1110_List_baseIP7IUpdateSaIS2_EE10_List_implD1Ev
 725              	.LBE6:
 726 0016 7B68     		ldr	r3, [r7, #4]
 727 0018 1846     		mov	r0, r3
 728 001a 0837     		adds	r7, r7, #8
 729              		.cfi_def_cfa_offset 8
 730 001c BD46     		mov	sp, r7
 731              		.cfi_def_cfa_register 13
 732              		@ sp needed
 733 001e 80BD     		pop	{r7, pc}
 734              		.cfi_endproc
 735              	.LFE1793:
 737              		.weak	_ZNSt7__cxx1110_List_baseIP7IUpdateSaIS2_EED1Ev
 738              		.thumb_set _ZNSt7__cxx1110_List_baseIP7IUpdateSaIS2_EED1Ev,_ZNSt7__cxx1110_List_baseIP7IUpdateSaIS
 739              		.section	.text._ZSt7forwardIRKP7IUpdateEOT_RNSt16remove_referenceIS4_E4typeE,"axG",%progbits,_ZSt7
 740              		.align	1
 741              		.weak	_ZSt7forwardIRKP7IUpdateEOT_RNSt16remove_referenceIS4_E4typeE
 742              		.syntax unified
 743              		.thumb
 744              		.thumb_func
 745              		.fpu softvfp
 747              	_ZSt7forwardIRKP7IUpdateEOT_RNSt16remove_referenceIS4_E4typeE:
 748              	.LFB1796:
 749              		.file 5 "c:\\nxp\\mcuxpressoide_10.2.1_795\\ide\\tools\\arm-none-eabi\\include\\c++\\7.2.1\\bits\\
   1:c:\nxp\mcuxpressoide_10.2.1_795\ide\tools\arm-none-eabi\include\c++\7.2.1\bits\move.h **** // Move, forward and identity for C++11 + swap -*- C++ -*-
   2:c:\nxp\mcuxpressoide_10.2.1_795\ide\tools\arm-none-eabi\include\c++\7.2.1\bits\move.h **** 
   3:c:\nxp\mcuxpressoide_10.2.1_795\ide\tools\arm-none-eabi\include\c++\7.2.1\bits\move.h **** // Copyright (C) 2007-2017 Free Software Foundation, Inc.
   4:c:\nxp\mcuxpressoide_10.2.1_795\ide\tools\arm-none-eabi\include\c++\7.2.1\bits\move.h **** //
   5:c:\nxp\mcuxpressoide_10.2.1_795\ide\tools\arm-none-eabi\include\c++\7.2.1\bits\move.h **** // This file is part of the GNU ISO C++ Library.  This library is free
ARM GAS  C:\Users\xavie\AppData\Local\Temp\ccUw5nyp.s 			page 41


   6:c:\nxp\mcuxpressoide_10.2.1_795\ide\tools\arm-none-eabi\include\c++\7.2.1\bits\move.h **** // software; you can redistribute it and/or modify it under the
   7:c:\nxp\mcuxpressoide_10.2.1_795\ide\tools\arm-none-eabi\include\c++\7.2.1\bits\move.h **** // terms of the GNU General Public License as published by the
   8:c:\nxp\mcuxpressoide_10.2.1_795\ide\tools\arm-none-eabi\include\c++\7.2.1\bits\move.h **** // Free Software Foundation; either version 3, or (at your option)
   9:c:\nxp\mcuxpressoide_10.2.1_795\ide\tools\arm-none-eabi\include\c++\7.2.1\bits\move.h **** // any later version.
  10:c:\nxp\mcuxpressoide_10.2.1_795\ide\tools\arm-none-eabi\include\c++\7.2.1\bits\move.h **** 
  11:c:\nxp\mcuxpressoide_10.2.1_795\ide\tools\arm-none-eabi\include\c++\7.2.1\bits\move.h **** // This library is distributed in the hope that it will be useful,
  12:c:\nxp\mcuxpressoide_10.2.1_795\ide\tools\arm-none-eabi\include\c++\7.2.1\bits\move.h **** // but WITHOUT ANY WARRANTY; without even the implied warranty of
  13:c:\nxp\mcuxpressoide_10.2.1_795\ide\tools\arm-none-eabi\include\c++\7.2.1\bits\move.h **** // MERCHANTABILITY or FITNESS FOR A PARTICULAR PURPOSE.  See the
  14:c:\nxp\mcuxpressoide_10.2.1_795\ide\tools\arm-none-eabi\include\c++\7.2.1\bits\move.h **** // GNU General Public License for more details.
  15:c:\nxp\mcuxpressoide_10.2.1_795\ide\tools\arm-none-eabi\include\c++\7.2.1\bits\move.h **** 
  16:c:\nxp\mcuxpressoide_10.2.1_795\ide\tools\arm-none-eabi\include\c++\7.2.1\bits\move.h **** // Under Section 7 of GPL version 3, you are granted additional
  17:c:\nxp\mcuxpressoide_10.2.1_795\ide\tools\arm-none-eabi\include\c++\7.2.1\bits\move.h **** // permissions described in the GCC Runtime Library Exception, version
  18:c:\nxp\mcuxpressoide_10.2.1_795\ide\tools\arm-none-eabi\include\c++\7.2.1\bits\move.h **** // 3.1, as published by the Free Software Foundation.
  19:c:\nxp\mcuxpressoide_10.2.1_795\ide\tools\arm-none-eabi\include\c++\7.2.1\bits\move.h **** 
  20:c:\nxp\mcuxpressoide_10.2.1_795\ide\tools\arm-none-eabi\include\c++\7.2.1\bits\move.h **** // You should have received a copy of the GNU General Public License and
  21:c:\nxp\mcuxpressoide_10.2.1_795\ide\tools\arm-none-eabi\include\c++\7.2.1\bits\move.h **** // a copy of the GCC Runtime Library Exception along with this program;
  22:c:\nxp\mcuxpressoide_10.2.1_795\ide\tools\arm-none-eabi\include\c++\7.2.1\bits\move.h **** // see the files COPYING3 and COPYING.RUNTIME respectively.  If not, see
  23:c:\nxp\mcuxpressoide_10.2.1_795\ide\tools\arm-none-eabi\include\c++\7.2.1\bits\move.h **** // <http://www.gnu.org/licenses/>.
  24:c:\nxp\mcuxpressoide_10.2.1_795\ide\tools\arm-none-eabi\include\c++\7.2.1\bits\move.h **** 
  25:c:\nxp\mcuxpressoide_10.2.1_795\ide\tools\arm-none-eabi\include\c++\7.2.1\bits\move.h **** /** @file bits/move.h
  26:c:\nxp\mcuxpressoide_10.2.1_795\ide\tools\arm-none-eabi\include\c++\7.2.1\bits\move.h ****  *  This is an internal header file, included by other library headers.
  27:c:\nxp\mcuxpressoide_10.2.1_795\ide\tools\arm-none-eabi\include\c++\7.2.1\bits\move.h ****  *  Do not attempt to use it directly. @headername{utility}
  28:c:\nxp\mcuxpressoide_10.2.1_795\ide\tools\arm-none-eabi\include\c++\7.2.1\bits\move.h ****  */
  29:c:\nxp\mcuxpressoide_10.2.1_795\ide\tools\arm-none-eabi\include\c++\7.2.1\bits\move.h **** 
  30:c:\nxp\mcuxpressoide_10.2.1_795\ide\tools\arm-none-eabi\include\c++\7.2.1\bits\move.h **** #ifndef _MOVE_H
  31:c:\nxp\mcuxpressoide_10.2.1_795\ide\tools\arm-none-eabi\include\c++\7.2.1\bits\move.h **** #define _MOVE_H 1
  32:c:\nxp\mcuxpressoide_10.2.1_795\ide\tools\arm-none-eabi\include\c++\7.2.1\bits\move.h **** 
  33:c:\nxp\mcuxpressoide_10.2.1_795\ide\tools\arm-none-eabi\include\c++\7.2.1\bits\move.h **** #include <bits/c++config.h>
  34:c:\nxp\mcuxpressoide_10.2.1_795\ide\tools\arm-none-eabi\include\c++\7.2.1\bits\move.h **** #include <bits/concept_check.h>
  35:c:\nxp\mcuxpressoide_10.2.1_795\ide\tools\arm-none-eabi\include\c++\7.2.1\bits\move.h **** 
  36:c:\nxp\mcuxpressoide_10.2.1_795\ide\tools\arm-none-eabi\include\c++\7.2.1\bits\move.h **** namespace std _GLIBCXX_VISIBILITY(default)
  37:c:\nxp\mcuxpressoide_10.2.1_795\ide\tools\arm-none-eabi\include\c++\7.2.1\bits\move.h **** {
  38:c:\nxp\mcuxpressoide_10.2.1_795\ide\tools\arm-none-eabi\include\c++\7.2.1\bits\move.h **** _GLIBCXX_BEGIN_NAMESPACE_VERSION
  39:c:\nxp\mcuxpressoide_10.2.1_795\ide\tools\arm-none-eabi\include\c++\7.2.1\bits\move.h **** 
  40:c:\nxp\mcuxpressoide_10.2.1_795\ide\tools\arm-none-eabi\include\c++\7.2.1\bits\move.h ****   // Used, in C++03 mode too, by allocators, etc.
  41:c:\nxp\mcuxpressoide_10.2.1_795\ide\tools\arm-none-eabi\include\c++\7.2.1\bits\move.h ****   /**
  42:c:\nxp\mcuxpressoide_10.2.1_795\ide\tools\arm-none-eabi\include\c++\7.2.1\bits\move.h ****    *  @brief Same as C++11 std::addressof
  43:c:\nxp\mcuxpressoide_10.2.1_795\ide\tools\arm-none-eabi\include\c++\7.2.1\bits\move.h ****    *  @ingroup utilities
  44:c:\nxp\mcuxpressoide_10.2.1_795\ide\tools\arm-none-eabi\include\c++\7.2.1\bits\move.h ****    */
  45:c:\nxp\mcuxpressoide_10.2.1_795\ide\tools\arm-none-eabi\include\c++\7.2.1\bits\move.h ****   template<typename _Tp>
  46:c:\nxp\mcuxpressoide_10.2.1_795\ide\tools\arm-none-eabi\include\c++\7.2.1\bits\move.h ****     inline _GLIBCXX_CONSTEXPR _Tp*
  47:c:\nxp\mcuxpressoide_10.2.1_795\ide\tools\arm-none-eabi\include\c++\7.2.1\bits\move.h ****     __addressof(_Tp& __r) _GLIBCXX_NOEXCEPT
  48:c:\nxp\mcuxpressoide_10.2.1_795\ide\tools\arm-none-eabi\include\c++\7.2.1\bits\move.h ****     { return __builtin_addressof(__r); }
  49:c:\nxp\mcuxpressoide_10.2.1_795\ide\tools\arm-none-eabi\include\c++\7.2.1\bits\move.h **** 
  50:c:\nxp\mcuxpressoide_10.2.1_795\ide\tools\arm-none-eabi\include\c++\7.2.1\bits\move.h **** _GLIBCXX_END_NAMESPACE_VERSION
  51:c:\nxp\mcuxpressoide_10.2.1_795\ide\tools\arm-none-eabi\include\c++\7.2.1\bits\move.h **** } // namespace
  52:c:\nxp\mcuxpressoide_10.2.1_795\ide\tools\arm-none-eabi\include\c++\7.2.1\bits\move.h **** 
  53:c:\nxp\mcuxpressoide_10.2.1_795\ide\tools\arm-none-eabi\include\c++\7.2.1\bits\move.h **** #if __cplusplus >= 201103L
  54:c:\nxp\mcuxpressoide_10.2.1_795\ide\tools\arm-none-eabi\include\c++\7.2.1\bits\move.h **** #include <type_traits> // Brings in std::declval too.
  55:c:\nxp\mcuxpressoide_10.2.1_795\ide\tools\arm-none-eabi\include\c++\7.2.1\bits\move.h **** 
  56:c:\nxp\mcuxpressoide_10.2.1_795\ide\tools\arm-none-eabi\include\c++\7.2.1\bits\move.h **** namespace std _GLIBCXX_VISIBILITY(default)
  57:c:\nxp\mcuxpressoide_10.2.1_795\ide\tools\arm-none-eabi\include\c++\7.2.1\bits\move.h **** {
  58:c:\nxp\mcuxpressoide_10.2.1_795\ide\tools\arm-none-eabi\include\c++\7.2.1\bits\move.h **** _GLIBCXX_BEGIN_NAMESPACE_VERSION
  59:c:\nxp\mcuxpressoide_10.2.1_795\ide\tools\arm-none-eabi\include\c++\7.2.1\bits\move.h **** 
  60:c:\nxp\mcuxpressoide_10.2.1_795\ide\tools\arm-none-eabi\include\c++\7.2.1\bits\move.h ****   /**
  61:c:\nxp\mcuxpressoide_10.2.1_795\ide\tools\arm-none-eabi\include\c++\7.2.1\bits\move.h ****    *  @addtogroup utilities
  62:c:\nxp\mcuxpressoide_10.2.1_795\ide\tools\arm-none-eabi\include\c++\7.2.1\bits\move.h ****    *  @{
ARM GAS  C:\Users\xavie\AppData\Local\Temp\ccUw5nyp.s 			page 42


  63:c:\nxp\mcuxpressoide_10.2.1_795\ide\tools\arm-none-eabi\include\c++\7.2.1\bits\move.h ****    */
  64:c:\nxp\mcuxpressoide_10.2.1_795\ide\tools\arm-none-eabi\include\c++\7.2.1\bits\move.h **** 
  65:c:\nxp\mcuxpressoide_10.2.1_795\ide\tools\arm-none-eabi\include\c++\7.2.1\bits\move.h ****   /**
  66:c:\nxp\mcuxpressoide_10.2.1_795\ide\tools\arm-none-eabi\include\c++\7.2.1\bits\move.h ****    *  @brief  Forward an lvalue.
  67:c:\nxp\mcuxpressoide_10.2.1_795\ide\tools\arm-none-eabi\include\c++\7.2.1\bits\move.h ****    *  @return The parameter cast to the specified type.
  68:c:\nxp\mcuxpressoide_10.2.1_795\ide\tools\arm-none-eabi\include\c++\7.2.1\bits\move.h ****    *
  69:c:\nxp\mcuxpressoide_10.2.1_795\ide\tools\arm-none-eabi\include\c++\7.2.1\bits\move.h ****    *  This function is used to implement "perfect forwarding".
  70:c:\nxp\mcuxpressoide_10.2.1_795\ide\tools\arm-none-eabi\include\c++\7.2.1\bits\move.h ****    */
  71:c:\nxp\mcuxpressoide_10.2.1_795\ide\tools\arm-none-eabi\include\c++\7.2.1\bits\move.h ****   template<typename _Tp>
  72:c:\nxp\mcuxpressoide_10.2.1_795\ide\tools\arm-none-eabi\include\c++\7.2.1\bits\move.h ****     constexpr _Tp&&
  73:c:\nxp\mcuxpressoide_10.2.1_795\ide\tools\arm-none-eabi\include\c++\7.2.1\bits\move.h ****     forward(typename std::remove_reference<_Tp>::type& __t) noexcept
 750              		.loc 5 73 0
 751              		.cfi_startproc
 752              		@ args = 0, pretend = 0, frame = 8
