ARM GAS  C:\Users\xavie\AppData\Local\Temp\ccbd98DL.s 			page 1


   1              		.cpu cortex-m3
   2              		.eabi_attribute 20, 1
   3              		.eabi_attribute 21, 1
   4              		.eabi_attribute 23, 3
   5              		.eabi_attribute 24, 1
   6              		.eabi_attribute 25, 1
   7              		.eabi_attribute 26, 1
   8              		.eabi_attribute 30, 6
   9              		.eabi_attribute 34, 1
  10              		.eabi_attribute 18, 4
  11              		.file	"game.cpp"
  12              		.text
  13              	.Ltext0:
  14              		.cfi_sections	.debug_frame
  15              		.section	.rodata._ZStL19piecewise_construct,"a",%progbits
  16              		.align	2
  19              	_ZStL19piecewise_construct:
  20 0000 00       		.space	1
  21              		.section	.text._ZL20__gthread_key_deletei,"ax",%progbits
  22              		.align	1
  23              		.syntax unified
  24              		.thumb
  25              		.thumb_func
  26              		.fpu softvfp
  28              	_ZL20__gthread_key_deletei:
  29              	.LFB620:
  30              		.file 1 "c:\\nxp\\mcuxpressoide_10.2.1_795\\ide\\tools\\arm-none-eabi\\include\\c++\\7.2.1\\arm-no
   1:c:\nxp\mcuxpressoide_10.2.1_795\ide\tools\arm-none-eabi\include\c++\7.2.1\arm-none-eabi\thumb\v7-m\bits\gthr-default.h **** /* Threads compatibility routines for libgcc2 and libobjc.  */
   2:c:\nxp\mcuxpressoide_10.2.1_795\ide\tools\arm-none-eabi\include\c++\7.2.1\arm-none-eabi\thumb\v7-m\bits\gthr-default.h **** /* Compile this one with gcc.  */
   3:c:\nxp\mcuxpressoide_10.2.1_795\ide\tools\arm-none-eabi\include\c++\7.2.1\arm-none-eabi\thumb\v7-m\bits\gthr-default.h **** /* Copyright (C) 1997-2017 Free Software Foundation, Inc.
   4:c:\nxp\mcuxpressoide_10.2.1_795\ide\tools\arm-none-eabi\include\c++\7.2.1\arm-none-eabi\thumb\v7-m\bits\gthr-default.h **** 
   5:c:\nxp\mcuxpressoide_10.2.1_795\ide\tools\arm-none-eabi\include\c++\7.2.1\arm-none-eabi\thumb\v7-m\bits\gthr-default.h **** This file is part of GCC.
   6:c:\nxp\mcuxpressoide_10.2.1_795\ide\tools\arm-none-eabi\include\c++\7.2.1\arm-none-eabi\thumb\v7-m\bits\gthr-default.h **** 
   7:c:\nxp\mcuxpressoide_10.2.1_795\ide\tools\arm-none-eabi\include\c++\7.2.1\arm-none-eabi\thumb\v7-m\bits\gthr-default.h **** GCC is free software; you can redistribute it and/or modify it under
   8:c:\nxp\mcuxpressoide_10.2.1_795\ide\tools\arm-none-eabi\include\c++\7.2.1\arm-none-eabi\thumb\v7-m\bits\gthr-default.h **** the terms of the GNU General Public License as published by the Free
   9:c:\nxp\mcuxpressoide_10.2.1_795\ide\tools\arm-none-eabi\include\c++\7.2.1\arm-none-eabi\thumb\v7-m\bits\gthr-default.h **** Software Foundation; either version 3, or (at your option) any later
  10:c:\nxp\mcuxpressoide_10.2.1_795\ide\tools\arm-none-eabi\include\c++\7.2.1\arm-none-eabi\thumb\v7-m\bits\gthr-default.h **** version.
  11:c:\nxp\mcuxpressoide_10.2.1_795\ide\tools\arm-none-eabi\include\c++\7.2.1\arm-none-eabi\thumb\v7-m\bits\gthr-default.h **** 
  12:c:\nxp\mcuxpressoide_10.2.1_795\ide\tools\arm-none-eabi\include\c++\7.2.1\arm-none-eabi\thumb\v7-m\bits\gthr-default.h **** GCC is distributed in the hope that it will be useful, but WITHOUT ANY
  13:c:\nxp\mcuxpressoide_10.2.1_795\ide\tools\arm-none-eabi\include\c++\7.2.1\arm-none-eabi\thumb\v7-m\bits\gthr-default.h **** WARRANTY; without even the implied warranty of MERCHANTABILITY or
  14:c:\nxp\mcuxpressoide_10.2.1_795\ide\tools\arm-none-eabi\include\c++\7.2.1\arm-none-eabi\thumb\v7-m\bits\gthr-default.h **** FITNESS FOR A PARTICULAR PURPOSE.  See the GNU General Public License
  15:c:\nxp\mcuxpressoide_10.2.1_795\ide\tools\arm-none-eabi\include\c++\7.2.1\arm-none-eabi\thumb\v7-m\bits\gthr-default.h **** for more details.
  16:c:\nxp\mcuxpressoide_10.2.1_795\ide\tools\arm-none-eabi\include\c++\7.2.1\arm-none-eabi\thumb\v7-m\bits\gthr-default.h **** 
  17:c:\nxp\mcuxpressoide_10.2.1_795\ide\tools\arm-none-eabi\include\c++\7.2.1\arm-none-eabi\thumb\v7-m\bits\gthr-default.h **** Under Section 7 of GPL version 3, you are granted additional
  18:c:\nxp\mcuxpressoide_10.2.1_795\ide\tools\arm-none-eabi\include\c++\7.2.1\arm-none-eabi\thumb\v7-m\bits\gthr-default.h **** permissions described in the GCC Runtime Library Exception, version
  19:c:\nxp\mcuxpressoide_10.2.1_795\ide\tools\arm-none-eabi\include\c++\7.2.1\arm-none-eabi\thumb\v7-m\bits\gthr-default.h **** 3.1, as published by the Free Software Foundation.
  20:c:\nxp\mcuxpressoide_10.2.1_795\ide\tools\arm-none-eabi\include\c++\7.2.1\arm-none-eabi\thumb\v7-m\bits\gthr-default.h **** 
  21:c:\nxp\mcuxpressoide_10.2.1_795\ide\tools\arm-none-eabi\include\c++\7.2.1\arm-none-eabi\thumb\v7-m\bits\gthr-default.h **** You should have received a copy of the GNU General Public License and
  22:c:\nxp\mcuxpressoide_10.2.1_795\ide\tools\arm-none-eabi\include\c++\7.2.1\arm-none-eabi\thumb\v7-m\bits\gthr-default.h **** a copy of the GCC Runtime Library Exception along with this program;
  23:c:\nxp\mcuxpressoide_10.2.1_795\ide\tools\arm-none-eabi\include\c++\7.2.1\arm-none-eabi\thumb\v7-m\bits\gthr-default.h **** see the files COPYING3 and COPYING.RUNTIME respectively.  If not, see
  24:c:\nxp\mcuxpressoide_10.2.1_795\ide\tools\arm-none-eabi\include\c++\7.2.1\arm-none-eabi\thumb\v7-m\bits\gthr-default.h **** <http://www.gnu.org/licenses/>.  */
  25:c:\nxp\mcuxpressoide_10.2.1_795\ide\tools\arm-none-eabi\include\c++\7.2.1\arm-none-eabi\thumb\v7-m\bits\gthr-default.h **** 
  26:c:\nxp\mcuxpressoide_10.2.1_795\ide\tools\arm-none-eabi\include\c++\7.2.1\arm-none-eabi\thumb\v7-m\bits\gthr-default.h **** #ifndef _GLIBCXX_GCC_GTHR_SINGLE_H
  27:c:\nxp\mcuxpressoide_10.2.1_795\ide\tools\arm-none-eabi\include\c++\7.2.1\arm-none-eabi\thumb\v7-m\bits\gthr-default.h **** #define _GLIBCXX_GCC_GTHR_SINGLE_H
  28:c:\nxp\mcuxpressoide_10.2.1_795\ide\tools\arm-none-eabi\include\c++\7.2.1\arm-none-eabi\thumb\v7-m\bits\gthr-default.h **** 
  29:c:\nxp\mcuxpressoide_10.2.1_795\ide\tools\arm-none-eabi\include\c++\7.2.1\arm-none-eabi\thumb\v7-m\bits\gthr-default.h **** /* Just provide compatibility for mutex handling.  */
  30:c:\nxp\mcuxpressoide_10.2.1_795\ide\tools\arm-none-eabi\include\c++\7.2.1\arm-none-eabi\thumb\v7-m\bits\gthr-default.h **** 
ARM GAS  C:\Users\xavie\AppData\Local\Temp\ccbd98DL.s 			page 2


  31:c:\nxp\mcuxpressoide_10.2.1_795\ide\tools\arm-none-eabi\include\c++\7.2.1\arm-none-eabi\thumb\v7-m\bits\gthr-default.h **** typedef int __gthread_key_t;
  32:c:\nxp\mcuxpressoide_10.2.1_795\ide\tools\arm-none-eabi\include\c++\7.2.1\arm-none-eabi\thumb\v7-m\bits\gthr-default.h **** typedef int __gthread_once_t;
  33:c:\nxp\mcuxpressoide_10.2.1_795\ide\tools\arm-none-eabi\include\c++\7.2.1\arm-none-eabi\thumb\v7-m\bits\gthr-default.h **** typedef int __gthread_mutex_t;
  34:c:\nxp\mcuxpressoide_10.2.1_795\ide\tools\arm-none-eabi\include\c++\7.2.1\arm-none-eabi\thumb\v7-m\bits\gthr-default.h **** typedef int __gthread_recursive_mutex_t;
  35:c:\nxp\mcuxpressoide_10.2.1_795\ide\tools\arm-none-eabi\include\c++\7.2.1\arm-none-eabi\thumb\v7-m\bits\gthr-default.h **** 
  36:c:\nxp\mcuxpressoide_10.2.1_795\ide\tools\arm-none-eabi\include\c++\7.2.1\arm-none-eabi\thumb\v7-m\bits\gthr-default.h **** #define __GTHREAD_ONCE_INIT 0
  37:c:\nxp\mcuxpressoide_10.2.1_795\ide\tools\arm-none-eabi\include\c++\7.2.1\arm-none-eabi\thumb\v7-m\bits\gthr-default.h **** #define __GTHREAD_MUTEX_INIT 0
  38:c:\nxp\mcuxpressoide_10.2.1_795\ide\tools\arm-none-eabi\include\c++\7.2.1\arm-none-eabi\thumb\v7-m\bits\gthr-default.h **** #define __GTHREAD_MUTEX_INIT_FUNCTION(mx) do {} while (0)
  39:c:\nxp\mcuxpressoide_10.2.1_795\ide\tools\arm-none-eabi\include\c++\7.2.1\arm-none-eabi\thumb\v7-m\bits\gthr-default.h **** #define __GTHREAD_RECURSIVE_MUTEX_INIT 0
  40:c:\nxp\mcuxpressoide_10.2.1_795\ide\tools\arm-none-eabi\include\c++\7.2.1\arm-none-eabi\thumb\v7-m\bits\gthr-default.h **** 
  41:c:\nxp\mcuxpressoide_10.2.1_795\ide\tools\arm-none-eabi\include\c++\7.2.1\arm-none-eabi\thumb\v7-m\bits\gthr-default.h **** #define _GLIBCXX_UNUSED __attribute__((__unused__))
  42:c:\nxp\mcuxpressoide_10.2.1_795\ide\tools\arm-none-eabi\include\c++\7.2.1\arm-none-eabi\thumb\v7-m\bits\gthr-default.h **** 
  43:c:\nxp\mcuxpressoide_10.2.1_795\ide\tools\arm-none-eabi\include\c++\7.2.1\arm-none-eabi\thumb\v7-m\bits\gthr-default.h **** #ifdef _LIBOBJC
  44:c:\nxp\mcuxpressoide_10.2.1_795\ide\tools\arm-none-eabi\include\c++\7.2.1\arm-none-eabi\thumb\v7-m\bits\gthr-default.h **** 
  45:c:\nxp\mcuxpressoide_10.2.1_795\ide\tools\arm-none-eabi\include\c++\7.2.1\arm-none-eabi\thumb\v7-m\bits\gthr-default.h **** /* Thread local storage for a single thread */
  46:c:\nxp\mcuxpressoide_10.2.1_795\ide\tools\arm-none-eabi\include\c++\7.2.1\arm-none-eabi\thumb\v7-m\bits\gthr-default.h **** static void *thread_local_storage = NULL;
  47:c:\nxp\mcuxpressoide_10.2.1_795\ide\tools\arm-none-eabi\include\c++\7.2.1\arm-none-eabi\thumb\v7-m\bits\gthr-default.h **** 
  48:c:\nxp\mcuxpressoide_10.2.1_795\ide\tools\arm-none-eabi\include\c++\7.2.1\arm-none-eabi\thumb\v7-m\bits\gthr-default.h **** /* Backend initialization functions */
  49:c:\nxp\mcuxpressoide_10.2.1_795\ide\tools\arm-none-eabi\include\c++\7.2.1\arm-none-eabi\thumb\v7-m\bits\gthr-default.h **** 
  50:c:\nxp\mcuxpressoide_10.2.1_795\ide\tools\arm-none-eabi\include\c++\7.2.1\arm-none-eabi\thumb\v7-m\bits\gthr-default.h **** /* Initialize the threads subsystem.  */
  51:c:\nxp\mcuxpressoide_10.2.1_795\ide\tools\arm-none-eabi\include\c++\7.2.1\arm-none-eabi\thumb\v7-m\bits\gthr-default.h **** static inline int
  52:c:\nxp\mcuxpressoide_10.2.1_795\ide\tools\arm-none-eabi\include\c++\7.2.1\arm-none-eabi\thumb\v7-m\bits\gthr-default.h **** __gthread_objc_init_thread_system (void)
  53:c:\nxp\mcuxpressoide_10.2.1_795\ide\tools\arm-none-eabi\include\c++\7.2.1\arm-none-eabi\thumb\v7-m\bits\gthr-default.h **** {
  54:c:\nxp\mcuxpressoide_10.2.1_795\ide\tools\arm-none-eabi\include\c++\7.2.1\arm-none-eabi\thumb\v7-m\bits\gthr-default.h ****   /* No thread support available */
  55:c:\nxp\mcuxpressoide_10.2.1_795\ide\tools\arm-none-eabi\include\c++\7.2.1\arm-none-eabi\thumb\v7-m\bits\gthr-default.h ****   return -1;
  56:c:\nxp\mcuxpressoide_10.2.1_795\ide\tools\arm-none-eabi\include\c++\7.2.1\arm-none-eabi\thumb\v7-m\bits\gthr-default.h **** }
  57:c:\nxp\mcuxpressoide_10.2.1_795\ide\tools\arm-none-eabi\include\c++\7.2.1\arm-none-eabi\thumb\v7-m\bits\gthr-default.h **** 
  58:c:\nxp\mcuxpressoide_10.2.1_795\ide\tools\arm-none-eabi\include\c++\7.2.1\arm-none-eabi\thumb\v7-m\bits\gthr-default.h **** /* Close the threads subsystem.  */
  59:c:\nxp\mcuxpressoide_10.2.1_795\ide\tools\arm-none-eabi\include\c++\7.2.1\arm-none-eabi\thumb\v7-m\bits\gthr-default.h **** static inline int
  60:c:\nxp\mcuxpressoide_10.2.1_795\ide\tools\arm-none-eabi\include\c++\7.2.1\arm-none-eabi\thumb\v7-m\bits\gthr-default.h **** __gthread_objc_close_thread_system (void)
  61:c:\nxp\mcuxpressoide_10.2.1_795\ide\tools\arm-none-eabi\include\c++\7.2.1\arm-none-eabi\thumb\v7-m\bits\gthr-default.h **** {
  62:c:\nxp\mcuxpressoide_10.2.1_795\ide\tools\arm-none-eabi\include\c++\7.2.1\arm-none-eabi\thumb\v7-m\bits\gthr-default.h ****   /* No thread support available */
  63:c:\nxp\mcuxpressoide_10.2.1_795\ide\tools\arm-none-eabi\include\c++\7.2.1\arm-none-eabi\thumb\v7-m\bits\gthr-default.h ****   return -1;
  64:c:\nxp\mcuxpressoide_10.2.1_795\ide\tools\arm-none-eabi\include\c++\7.2.1\arm-none-eabi\thumb\v7-m\bits\gthr-default.h **** }
  65:c:\nxp\mcuxpressoide_10.2.1_795\ide\tools\arm-none-eabi\include\c++\7.2.1\arm-none-eabi\thumb\v7-m\bits\gthr-default.h **** 
  66:c:\nxp\mcuxpressoide_10.2.1_795\ide\tools\arm-none-eabi\include\c++\7.2.1\arm-none-eabi\thumb\v7-m\bits\gthr-default.h **** /* Backend thread functions */
  67:c:\nxp\mcuxpressoide_10.2.1_795\ide\tools\arm-none-eabi\include\c++\7.2.1\arm-none-eabi\thumb\v7-m\bits\gthr-default.h **** 
  68:c:\nxp\mcuxpressoide_10.2.1_795\ide\tools\arm-none-eabi\include\c++\7.2.1\arm-none-eabi\thumb\v7-m\bits\gthr-default.h **** /* Create a new thread of execution.  */
  69:c:\nxp\mcuxpressoide_10.2.1_795\ide\tools\arm-none-eabi\include\c++\7.2.1\arm-none-eabi\thumb\v7-m\bits\gthr-default.h **** static inline objc_thread_t
  70:c:\nxp\mcuxpressoide_10.2.1_795\ide\tools\arm-none-eabi\include\c++\7.2.1\arm-none-eabi\thumb\v7-m\bits\gthr-default.h **** __gthread_objc_thread_detach (void (* func)(void *), void * arg _GLIBCXX_UNUSED)
  71:c:\nxp\mcuxpressoide_10.2.1_795\ide\tools\arm-none-eabi\include\c++\7.2.1\arm-none-eabi\thumb\v7-m\bits\gthr-default.h **** {
  72:c:\nxp\mcuxpressoide_10.2.1_795\ide\tools\arm-none-eabi\include\c++\7.2.1\arm-none-eabi\thumb\v7-m\bits\gthr-default.h ****   /* No thread support available */
  73:c:\nxp\mcuxpressoide_10.2.1_795\ide\tools\arm-none-eabi\include\c++\7.2.1\arm-none-eabi\thumb\v7-m\bits\gthr-default.h ****   return NULL;
  74:c:\nxp\mcuxpressoide_10.2.1_795\ide\tools\arm-none-eabi\include\c++\7.2.1\arm-none-eabi\thumb\v7-m\bits\gthr-default.h **** }
  75:c:\nxp\mcuxpressoide_10.2.1_795\ide\tools\arm-none-eabi\include\c++\7.2.1\arm-none-eabi\thumb\v7-m\bits\gthr-default.h **** 
  76:c:\nxp\mcuxpressoide_10.2.1_795\ide\tools\arm-none-eabi\include\c++\7.2.1\arm-none-eabi\thumb\v7-m\bits\gthr-default.h **** /* Set the current thread's priority.  */
  77:c:\nxp\mcuxpressoide_10.2.1_795\ide\tools\arm-none-eabi\include\c++\7.2.1\arm-none-eabi\thumb\v7-m\bits\gthr-default.h **** static inline int
  78:c:\nxp\mcuxpressoide_10.2.1_795\ide\tools\arm-none-eabi\include\c++\7.2.1\arm-none-eabi\thumb\v7-m\bits\gthr-default.h **** __gthread_objc_thread_set_priority (int priority _GLIBCXX_UNUSED)
  79:c:\nxp\mcuxpressoide_10.2.1_795\ide\tools\arm-none-eabi\include\c++\7.2.1\arm-none-eabi\thumb\v7-m\bits\gthr-default.h **** {
  80:c:\nxp\mcuxpressoide_10.2.1_795\ide\tools\arm-none-eabi\include\c++\7.2.1\arm-none-eabi\thumb\v7-m\bits\gthr-default.h ****   /* No thread support available */
  81:c:\nxp\mcuxpressoide_10.2.1_795\ide\tools\arm-none-eabi\include\c++\7.2.1\arm-none-eabi\thumb\v7-m\bits\gthr-default.h ****   return -1;
  82:c:\nxp\mcuxpressoide_10.2.1_795\ide\tools\arm-none-eabi\include\c++\7.2.1\arm-none-eabi\thumb\v7-m\bits\gthr-default.h **** }
  83:c:\nxp\mcuxpressoide_10.2.1_795\ide\tools\arm-none-eabi\include\c++\7.2.1\arm-none-eabi\thumb\v7-m\bits\gthr-default.h **** 
  84:c:\nxp\mcuxpressoide_10.2.1_795\ide\tools\arm-none-eabi\include\c++\7.2.1\arm-none-eabi\thumb\v7-m\bits\gthr-default.h **** /* Return the current thread's priority.  */
  85:c:\nxp\mcuxpressoide_10.2.1_795\ide\tools\arm-none-eabi\include\c++\7.2.1\arm-none-eabi\thumb\v7-m\bits\gthr-default.h **** static inline int
  86:c:\nxp\mcuxpressoide_10.2.1_795\ide\tools\arm-none-eabi\include\c++\7.2.1\arm-none-eabi\thumb\v7-m\bits\gthr-default.h **** __gthread_objc_thread_get_priority (void)
  87:c:\nxp\mcuxpressoide_10.2.1_795\ide\tools\arm-none-eabi\include\c++\7.2.1\arm-none-eabi\thumb\v7-m\bits\gthr-default.h **** {
ARM GAS  C:\Users\xavie\AppData\Local\Temp\ccbd98DL.s 			page 3


  88:c:\nxp\mcuxpressoide_10.2.1_795\ide\tools\arm-none-eabi\include\c++\7.2.1\arm-none-eabi\thumb\v7-m\bits\gthr-default.h ****   return OBJC_THREAD_INTERACTIVE_PRIORITY;
  89:c:\nxp\mcuxpressoide_10.2.1_795\ide\tools\arm-none-eabi\include\c++\7.2.1\arm-none-eabi\thumb\v7-m\bits\gthr-default.h **** }
  90:c:\nxp\mcuxpressoide_10.2.1_795\ide\tools\arm-none-eabi\include\c++\7.2.1\arm-none-eabi\thumb\v7-m\bits\gthr-default.h **** 
  91:c:\nxp\mcuxpressoide_10.2.1_795\ide\tools\arm-none-eabi\include\c++\7.2.1\arm-none-eabi\thumb\v7-m\bits\gthr-default.h **** /* Yield our process time to another thread.  */
  92:c:\nxp\mcuxpressoide_10.2.1_795\ide\tools\arm-none-eabi\include\c++\7.2.1\arm-none-eabi\thumb\v7-m\bits\gthr-default.h **** static inline void
  93:c:\nxp\mcuxpressoide_10.2.1_795\ide\tools\arm-none-eabi\include\c++\7.2.1\arm-none-eabi\thumb\v7-m\bits\gthr-default.h **** __gthread_objc_thread_yield (void)
  94:c:\nxp\mcuxpressoide_10.2.1_795\ide\tools\arm-none-eabi\include\c++\7.2.1\arm-none-eabi\thumb\v7-m\bits\gthr-default.h **** {
  95:c:\nxp\mcuxpressoide_10.2.1_795\ide\tools\arm-none-eabi\include\c++\7.2.1\arm-none-eabi\thumb\v7-m\bits\gthr-default.h ****   return;
  96:c:\nxp\mcuxpressoide_10.2.1_795\ide\tools\arm-none-eabi\include\c++\7.2.1\arm-none-eabi\thumb\v7-m\bits\gthr-default.h **** }
  97:c:\nxp\mcuxpressoide_10.2.1_795\ide\tools\arm-none-eabi\include\c++\7.2.1\arm-none-eabi\thumb\v7-m\bits\gthr-default.h **** 
  98:c:\nxp\mcuxpressoide_10.2.1_795\ide\tools\arm-none-eabi\include\c++\7.2.1\arm-none-eabi\thumb\v7-m\bits\gthr-default.h **** /* Terminate the current thread.  */
  99:c:\nxp\mcuxpressoide_10.2.1_795\ide\tools\arm-none-eabi\include\c++\7.2.1\arm-none-eabi\thumb\v7-m\bits\gthr-default.h **** static inline int
 100:c:\nxp\mcuxpressoide_10.2.1_795\ide\tools\arm-none-eabi\include\c++\7.2.1\arm-none-eabi\thumb\v7-m\bits\gthr-default.h **** __gthread_objc_thread_exit (void)
 101:c:\nxp\mcuxpressoide_10.2.1_795\ide\tools\arm-none-eabi\include\c++\7.2.1\arm-none-eabi\thumb\v7-m\bits\gthr-default.h **** {
 102:c:\nxp\mcuxpressoide_10.2.1_795\ide\tools\arm-none-eabi\include\c++\7.2.1\arm-none-eabi\thumb\v7-m\bits\gthr-default.h ****   /* No thread support available */
 103:c:\nxp\mcuxpressoide_10.2.1_795\ide\tools\arm-none-eabi\include\c++\7.2.1\arm-none-eabi\thumb\v7-m\bits\gthr-default.h ****   /* Should we really exit the program */
 104:c:\nxp\mcuxpressoide_10.2.1_795\ide\tools\arm-none-eabi\include\c++\7.2.1\arm-none-eabi\thumb\v7-m\bits\gthr-default.h ****   /* exit (&__objc_thread_exit_status); */
 105:c:\nxp\mcuxpressoide_10.2.1_795\ide\tools\arm-none-eabi\include\c++\7.2.1\arm-none-eabi\thumb\v7-m\bits\gthr-default.h ****   return -1;
 106:c:\nxp\mcuxpressoide_10.2.1_795\ide\tools\arm-none-eabi\include\c++\7.2.1\arm-none-eabi\thumb\v7-m\bits\gthr-default.h **** }
 107:c:\nxp\mcuxpressoide_10.2.1_795\ide\tools\arm-none-eabi\include\c++\7.2.1\arm-none-eabi\thumb\v7-m\bits\gthr-default.h **** 
 108:c:\nxp\mcuxpressoide_10.2.1_795\ide\tools\arm-none-eabi\include\c++\7.2.1\arm-none-eabi\thumb\v7-m\bits\gthr-default.h **** /* Returns an integer value which uniquely describes a thread.  */
 109:c:\nxp\mcuxpressoide_10.2.1_795\ide\tools\arm-none-eabi\include\c++\7.2.1\arm-none-eabi\thumb\v7-m\bits\gthr-default.h **** static inline objc_thread_t
 110:c:\nxp\mcuxpressoide_10.2.1_795\ide\tools\arm-none-eabi\include\c++\7.2.1\arm-none-eabi\thumb\v7-m\bits\gthr-default.h **** __gthread_objc_thread_id (void)
 111:c:\nxp\mcuxpressoide_10.2.1_795\ide\tools\arm-none-eabi\include\c++\7.2.1\arm-none-eabi\thumb\v7-m\bits\gthr-default.h **** {
 112:c:\nxp\mcuxpressoide_10.2.1_795\ide\tools\arm-none-eabi\include\c++\7.2.1\arm-none-eabi\thumb\v7-m\bits\gthr-default.h ****   /* No thread support, use 1.  */
 113:c:\nxp\mcuxpressoide_10.2.1_795\ide\tools\arm-none-eabi\include\c++\7.2.1\arm-none-eabi\thumb\v7-m\bits\gthr-default.h ****   return (objc_thread_t) 1;
 114:c:\nxp\mcuxpressoide_10.2.1_795\ide\tools\arm-none-eabi\include\c++\7.2.1\arm-none-eabi\thumb\v7-m\bits\gthr-default.h **** }
 115:c:\nxp\mcuxpressoide_10.2.1_795\ide\tools\arm-none-eabi\include\c++\7.2.1\arm-none-eabi\thumb\v7-m\bits\gthr-default.h **** 
 116:c:\nxp\mcuxpressoide_10.2.1_795\ide\tools\arm-none-eabi\include\c++\7.2.1\arm-none-eabi\thumb\v7-m\bits\gthr-default.h **** /* Sets the thread's local storage pointer.  */
 117:c:\nxp\mcuxpressoide_10.2.1_795\ide\tools\arm-none-eabi\include\c++\7.2.1\arm-none-eabi\thumb\v7-m\bits\gthr-default.h **** static inline int
 118:c:\nxp\mcuxpressoide_10.2.1_795\ide\tools\arm-none-eabi\include\c++\7.2.1\arm-none-eabi\thumb\v7-m\bits\gthr-default.h **** __gthread_objc_thread_set_data (void *value)
 119:c:\nxp\mcuxpressoide_10.2.1_795\ide\tools\arm-none-eabi\include\c++\7.2.1\arm-none-eabi\thumb\v7-m\bits\gthr-default.h **** {
 120:c:\nxp\mcuxpressoide_10.2.1_795\ide\tools\arm-none-eabi\include\c++\7.2.1\arm-none-eabi\thumb\v7-m\bits\gthr-default.h ****   thread_local_storage = value;
 121:c:\nxp\mcuxpressoide_10.2.1_795\ide\tools\arm-none-eabi\include\c++\7.2.1\arm-none-eabi\thumb\v7-m\bits\gthr-default.h ****   return 0;
 122:c:\nxp\mcuxpressoide_10.2.1_795\ide\tools\arm-none-eabi\include\c++\7.2.1\arm-none-eabi\thumb\v7-m\bits\gthr-default.h **** }
 123:c:\nxp\mcuxpressoide_10.2.1_795\ide\tools\arm-none-eabi\include\c++\7.2.1\arm-none-eabi\thumb\v7-m\bits\gthr-default.h **** 
 124:c:\nxp\mcuxpressoide_10.2.1_795\ide\tools\arm-none-eabi\include\c++\7.2.1\arm-none-eabi\thumb\v7-m\bits\gthr-default.h **** /* Returns the thread's local storage pointer.  */
 125:c:\nxp\mcuxpressoide_10.2.1_795\ide\tools\arm-none-eabi\include\c++\7.2.1\arm-none-eabi\thumb\v7-m\bits\gthr-default.h **** static inline void *
 126:c:\nxp\mcuxpressoide_10.2.1_795\ide\tools\arm-none-eabi\include\c++\7.2.1\arm-none-eabi\thumb\v7-m\bits\gthr-default.h **** __gthread_objc_thread_get_data (void)
 127:c:\nxp\mcuxpressoide_10.2.1_795\ide\tools\arm-none-eabi\include\c++\7.2.1\arm-none-eabi\thumb\v7-m\bits\gthr-default.h **** {
 128:c:\nxp\mcuxpressoide_10.2.1_795\ide\tools\arm-none-eabi\include\c++\7.2.1\arm-none-eabi\thumb\v7-m\bits\gthr-default.h ****   return thread_local_storage;
 129:c:\nxp\mcuxpressoide_10.2.1_795\ide\tools\arm-none-eabi\include\c++\7.2.1\arm-none-eabi\thumb\v7-m\bits\gthr-default.h **** }
 130:c:\nxp\mcuxpressoide_10.2.1_795\ide\tools\arm-none-eabi\include\c++\7.2.1\arm-none-eabi\thumb\v7-m\bits\gthr-default.h **** 
 131:c:\nxp\mcuxpressoide_10.2.1_795\ide\tools\arm-none-eabi\include\c++\7.2.1\arm-none-eabi\thumb\v7-m\bits\gthr-default.h **** /* Backend mutex functions */
 132:c:\nxp\mcuxpressoide_10.2.1_795\ide\tools\arm-none-eabi\include\c++\7.2.1\arm-none-eabi\thumb\v7-m\bits\gthr-default.h **** 
 133:c:\nxp\mcuxpressoide_10.2.1_795\ide\tools\arm-none-eabi\include\c++\7.2.1\arm-none-eabi\thumb\v7-m\bits\gthr-default.h **** /* Allocate a mutex.  */
 134:c:\nxp\mcuxpressoide_10.2.1_795\ide\tools\arm-none-eabi\include\c++\7.2.1\arm-none-eabi\thumb\v7-m\bits\gthr-default.h **** static inline int
 135:c:\nxp\mcuxpressoide_10.2.1_795\ide\tools\arm-none-eabi\include\c++\7.2.1\arm-none-eabi\thumb\v7-m\bits\gthr-default.h **** __gthread_objc_mutex_allocate (objc_mutex_t mutex _GLIBCXX_UNUSED)
 136:c:\nxp\mcuxpressoide_10.2.1_795\ide\tools\arm-none-eabi\include\c++\7.2.1\arm-none-eabi\thumb\v7-m\bits\gthr-default.h **** {
 137:c:\nxp\mcuxpressoide_10.2.1_795\ide\tools\arm-none-eabi\include\c++\7.2.1\arm-none-eabi\thumb\v7-m\bits\gthr-default.h ****   return 0;
 138:c:\nxp\mcuxpressoide_10.2.1_795\ide\tools\arm-none-eabi\include\c++\7.2.1\arm-none-eabi\thumb\v7-m\bits\gthr-default.h **** }
 139:c:\nxp\mcuxpressoide_10.2.1_795\ide\tools\arm-none-eabi\include\c++\7.2.1\arm-none-eabi\thumb\v7-m\bits\gthr-default.h **** 
 140:c:\nxp\mcuxpressoide_10.2.1_795\ide\tools\arm-none-eabi\include\c++\7.2.1\arm-none-eabi\thumb\v7-m\bits\gthr-default.h **** /* Deallocate a mutex.  */
 141:c:\nxp\mcuxpressoide_10.2.1_795\ide\tools\arm-none-eabi\include\c++\7.2.1\arm-none-eabi\thumb\v7-m\bits\gthr-default.h **** static inline int
 142:c:\nxp\mcuxpressoide_10.2.1_795\ide\tools\arm-none-eabi\include\c++\7.2.1\arm-none-eabi\thumb\v7-m\bits\gthr-default.h **** __gthread_objc_mutex_deallocate (objc_mutex_t mutex _GLIBCXX_UNUSED)
 143:c:\nxp\mcuxpressoide_10.2.1_795\ide\tools\arm-none-eabi\include\c++\7.2.1\arm-none-eabi\thumb\v7-m\bits\gthr-default.h **** {
 144:c:\nxp\mcuxpressoide_10.2.1_795\ide\tools\arm-none-eabi\include\c++\7.2.1\arm-none-eabi\thumb\v7-m\bits\gthr-default.h ****   return 0;
ARM GAS  C:\Users\xavie\AppData\Local\Temp\ccbd98DL.s 			page 4


 145:c:\nxp\mcuxpressoide_10.2.1_795\ide\tools\arm-none-eabi\include\c++\7.2.1\arm-none-eabi\thumb\v7-m\bits\gthr-default.h **** }
 146:c:\nxp\mcuxpressoide_10.2.1_795\ide\tools\arm-none-eabi\include\c++\7.2.1\arm-none-eabi\thumb\v7-m\bits\gthr-default.h **** 
 147:c:\nxp\mcuxpressoide_10.2.1_795\ide\tools\arm-none-eabi\include\c++\7.2.1\arm-none-eabi\thumb\v7-m\bits\gthr-default.h **** /* Grab a lock on a mutex.  */
 148:c:\nxp\mcuxpressoide_10.2.1_795\ide\tools\arm-none-eabi\include\c++\7.2.1\arm-none-eabi\thumb\v7-m\bits\gthr-default.h **** static inline int
 149:c:\nxp\mcuxpressoide_10.2.1_795\ide\tools\arm-none-eabi\include\c++\7.2.1\arm-none-eabi\thumb\v7-m\bits\gthr-default.h **** __gthread_objc_mutex_lock (objc_mutex_t mutex _GLIBCXX_UNUSED)
 150:c:\nxp\mcuxpressoide_10.2.1_795\ide\tools\arm-none-eabi\include\c++\7.2.1\arm-none-eabi\thumb\v7-m\bits\gthr-default.h **** {
 151:c:\nxp\mcuxpressoide_10.2.1_795\ide\tools\arm-none-eabi\include\c++\7.2.1\arm-none-eabi\thumb\v7-m\bits\gthr-default.h ****   /* There can only be one thread, so we always get the lock */
 152:c:\nxp\mcuxpressoide_10.2.1_795\ide\tools\arm-none-eabi\include\c++\7.2.1\arm-none-eabi\thumb\v7-m\bits\gthr-default.h ****   return 0;
 153:c:\nxp\mcuxpressoide_10.2.1_795\ide\tools\arm-none-eabi\include\c++\7.2.1\arm-none-eabi\thumb\v7-m\bits\gthr-default.h **** }
 154:c:\nxp\mcuxpressoide_10.2.1_795\ide\tools\arm-none-eabi\include\c++\7.2.1\arm-none-eabi\thumb\v7-m\bits\gthr-default.h **** 
 155:c:\nxp\mcuxpressoide_10.2.1_795\ide\tools\arm-none-eabi\include\c++\7.2.1\arm-none-eabi\thumb\v7-m\bits\gthr-default.h **** /* Try to grab a lock on a mutex.  */
 156:c:\nxp\mcuxpressoide_10.2.1_795\ide\tools\arm-none-eabi\include\c++\7.2.1\arm-none-eabi\thumb\v7-m\bits\gthr-default.h **** static inline int
 157:c:\nxp\mcuxpressoide_10.2.1_795\ide\tools\arm-none-eabi\include\c++\7.2.1\arm-none-eabi\thumb\v7-m\bits\gthr-default.h **** __gthread_objc_mutex_trylock (objc_mutex_t mutex _GLIBCXX_UNUSED)
 158:c:\nxp\mcuxpressoide_10.2.1_795\ide\tools\arm-none-eabi\include\c++\7.2.1\arm-none-eabi\thumb\v7-m\bits\gthr-default.h **** {
 159:c:\nxp\mcuxpressoide_10.2.1_795\ide\tools\arm-none-eabi\include\c++\7.2.1\arm-none-eabi\thumb\v7-m\bits\gthr-default.h ****   /* There can only be one thread, so we always get the lock */
 160:c:\nxp\mcuxpressoide_10.2.1_795\ide\tools\arm-none-eabi\include\c++\7.2.1\arm-none-eabi\thumb\v7-m\bits\gthr-default.h ****   return 0;
 161:c:\nxp\mcuxpressoide_10.2.1_795\ide\tools\arm-none-eabi\include\c++\7.2.1\arm-none-eabi\thumb\v7-m\bits\gthr-default.h **** }
 162:c:\nxp\mcuxpressoide_10.2.1_795\ide\tools\arm-none-eabi\include\c++\7.2.1\arm-none-eabi\thumb\v7-m\bits\gthr-default.h **** 
 163:c:\nxp\mcuxpressoide_10.2.1_795\ide\tools\arm-none-eabi\include\c++\7.2.1\arm-none-eabi\thumb\v7-m\bits\gthr-default.h **** /* Unlock the mutex */
 164:c:\nxp\mcuxpressoide_10.2.1_795\ide\tools\arm-none-eabi\include\c++\7.2.1\arm-none-eabi\thumb\v7-m\bits\gthr-default.h **** static inline int
 165:c:\nxp\mcuxpressoide_10.2.1_795\ide\tools\arm-none-eabi\include\c++\7.2.1\arm-none-eabi\thumb\v7-m\bits\gthr-default.h **** __gthread_objc_mutex_unlock (objc_mutex_t mutex _GLIBCXX_UNUSED)
 166:c:\nxp\mcuxpressoide_10.2.1_795\ide\tools\arm-none-eabi\include\c++\7.2.1\arm-none-eabi\thumb\v7-m\bits\gthr-default.h **** {
 167:c:\nxp\mcuxpressoide_10.2.1_795\ide\tools\arm-none-eabi\include\c++\7.2.1\arm-none-eabi\thumb\v7-m\bits\gthr-default.h ****   return 0;
 168:c:\nxp\mcuxpressoide_10.2.1_795\ide\tools\arm-none-eabi\include\c++\7.2.1\arm-none-eabi\thumb\v7-m\bits\gthr-default.h **** }
 169:c:\nxp\mcuxpressoide_10.2.1_795\ide\tools\arm-none-eabi\include\c++\7.2.1\arm-none-eabi\thumb\v7-m\bits\gthr-default.h **** 
 170:c:\nxp\mcuxpressoide_10.2.1_795\ide\tools\arm-none-eabi\include\c++\7.2.1\arm-none-eabi\thumb\v7-m\bits\gthr-default.h **** /* Backend condition mutex functions */
 171:c:\nxp\mcuxpressoide_10.2.1_795\ide\tools\arm-none-eabi\include\c++\7.2.1\arm-none-eabi\thumb\v7-m\bits\gthr-default.h **** 
 172:c:\nxp\mcuxpressoide_10.2.1_795\ide\tools\arm-none-eabi\include\c++\7.2.1\arm-none-eabi\thumb\v7-m\bits\gthr-default.h **** /* Allocate a condition.  */
 173:c:\nxp\mcuxpressoide_10.2.1_795\ide\tools\arm-none-eabi\include\c++\7.2.1\arm-none-eabi\thumb\v7-m\bits\gthr-default.h **** static inline int
 174:c:\nxp\mcuxpressoide_10.2.1_795\ide\tools\arm-none-eabi\include\c++\7.2.1\arm-none-eabi\thumb\v7-m\bits\gthr-default.h **** __gthread_objc_condition_allocate (objc_condition_t condition _GLIBCXX_UNUSED)
 175:c:\nxp\mcuxpressoide_10.2.1_795\ide\tools\arm-none-eabi\include\c++\7.2.1\arm-none-eabi\thumb\v7-m\bits\gthr-default.h **** {
 176:c:\nxp\mcuxpressoide_10.2.1_795\ide\tools\arm-none-eabi\include\c++\7.2.1\arm-none-eabi\thumb\v7-m\bits\gthr-default.h ****   return 0;
 177:c:\nxp\mcuxpressoide_10.2.1_795\ide\tools\arm-none-eabi\include\c++\7.2.1\arm-none-eabi\thumb\v7-m\bits\gthr-default.h **** }
 178:c:\nxp\mcuxpressoide_10.2.1_795\ide\tools\arm-none-eabi\include\c++\7.2.1\arm-none-eabi\thumb\v7-m\bits\gthr-default.h **** 
 179:c:\nxp\mcuxpressoide_10.2.1_795\ide\tools\arm-none-eabi\include\c++\7.2.1\arm-none-eabi\thumb\v7-m\bits\gthr-default.h **** /* Deallocate a condition.  */
 180:c:\nxp\mcuxpressoide_10.2.1_795\ide\tools\arm-none-eabi\include\c++\7.2.1\arm-none-eabi\thumb\v7-m\bits\gthr-default.h **** static inline int
 181:c:\nxp\mcuxpressoide_10.2.1_795\ide\tools\arm-none-eabi\include\c++\7.2.1\arm-none-eabi\thumb\v7-m\bits\gthr-default.h **** __gthread_objc_condition_deallocate (objc_condition_t condition _GLIBCXX_UNUSED)
 182:c:\nxp\mcuxpressoide_10.2.1_795\ide\tools\arm-none-eabi\include\c++\7.2.1\arm-none-eabi\thumb\v7-m\bits\gthr-default.h **** {
 183:c:\nxp\mcuxpressoide_10.2.1_795\ide\tools\arm-none-eabi\include\c++\7.2.1\arm-none-eabi\thumb\v7-m\bits\gthr-default.h ****   return 0;
 184:c:\nxp\mcuxpressoide_10.2.1_795\ide\tools\arm-none-eabi\include\c++\7.2.1\arm-none-eabi\thumb\v7-m\bits\gthr-default.h **** }
 185:c:\nxp\mcuxpressoide_10.2.1_795\ide\tools\arm-none-eabi\include\c++\7.2.1\arm-none-eabi\thumb\v7-m\bits\gthr-default.h **** 
 186:c:\nxp\mcuxpressoide_10.2.1_795\ide\tools\arm-none-eabi\include\c++\7.2.1\arm-none-eabi\thumb\v7-m\bits\gthr-default.h **** /* Wait on the condition */
 187:c:\nxp\mcuxpressoide_10.2.1_795\ide\tools\arm-none-eabi\include\c++\7.2.1\arm-none-eabi\thumb\v7-m\bits\gthr-default.h **** static inline int
 188:c:\nxp\mcuxpressoide_10.2.1_795\ide\tools\arm-none-eabi\include\c++\7.2.1\arm-none-eabi\thumb\v7-m\bits\gthr-default.h **** __gthread_objc_condition_wait (objc_condition_t condition _GLIBCXX_UNUSED,
 189:c:\nxp\mcuxpressoide_10.2.1_795\ide\tools\arm-none-eabi\include\c++\7.2.1\arm-none-eabi\thumb\v7-m\bits\gthr-default.h **** 			       objc_mutex_t mutex _GLIBCXX_UNUSED)
 190:c:\nxp\mcuxpressoide_10.2.1_795\ide\tools\arm-none-eabi\include\c++\7.2.1\arm-none-eabi\thumb\v7-m\bits\gthr-default.h **** {
 191:c:\nxp\mcuxpressoide_10.2.1_795\ide\tools\arm-none-eabi\include\c++\7.2.1\arm-none-eabi\thumb\v7-m\bits\gthr-default.h ****   return 0;
 192:c:\nxp\mcuxpressoide_10.2.1_795\ide\tools\arm-none-eabi\include\c++\7.2.1\arm-none-eabi\thumb\v7-m\bits\gthr-default.h **** }
 193:c:\nxp\mcuxpressoide_10.2.1_795\ide\tools\arm-none-eabi\include\c++\7.2.1\arm-none-eabi\thumb\v7-m\bits\gthr-default.h **** 
 194:c:\nxp\mcuxpressoide_10.2.1_795\ide\tools\arm-none-eabi\include\c++\7.2.1\arm-none-eabi\thumb\v7-m\bits\gthr-default.h **** /* Wake up all threads waiting on this condition.  */
 195:c:\nxp\mcuxpressoide_10.2.1_795\ide\tools\arm-none-eabi\include\c++\7.2.1\arm-none-eabi\thumb\v7-m\bits\gthr-default.h **** static inline int
 196:c:\nxp\mcuxpressoide_10.2.1_795\ide\tools\arm-none-eabi\include\c++\7.2.1\arm-none-eabi\thumb\v7-m\bits\gthr-default.h **** __gthread_objc_condition_broadcast (objc_condition_t condition _GLIBCXX_UNUSED)
 197:c:\nxp\mcuxpressoide_10.2.1_795\ide\tools\arm-none-eabi\include\c++\7.2.1\arm-none-eabi\thumb\v7-m\bits\gthr-default.h **** {
 198:c:\nxp\mcuxpressoide_10.2.1_795\ide\tools\arm-none-eabi\include\c++\7.2.1\arm-none-eabi\thumb\v7-m\bits\gthr-default.h ****   return 0;
 199:c:\nxp\mcuxpressoide_10.2.1_795\ide\tools\arm-none-eabi\include\c++\7.2.1\arm-none-eabi\thumb\v7-m\bits\gthr-default.h **** }
 200:c:\nxp\mcuxpressoide_10.2.1_795\ide\tools\arm-none-eabi\include\c++\7.2.1\arm-none-eabi\thumb\v7-m\bits\gthr-default.h **** 
 201:c:\nxp\mcuxpressoide_10.2.1_795\ide\tools\arm-none-eabi\include\c++\7.2.1\arm-none-eabi\thumb\v7-m\bits\gthr-default.h **** /* Wake up one thread waiting on this condition.  */
ARM GAS  C:\Users\xavie\AppData\Local\Temp\ccbd98DL.s 			page 5


 202:c:\nxp\mcuxpressoide_10.2.1_795\ide\tools\arm-none-eabi\include\c++\7.2.1\arm-none-eabi\thumb\v7-m\bits\gthr-default.h **** static inline int
 203:c:\nxp\mcuxpressoide_10.2.1_795\ide\tools\arm-none-eabi\include\c++\7.2.1\arm-none-eabi\thumb\v7-m\bits\gthr-default.h **** __gthread_objc_condition_signal (objc_condition_t condition _GLIBCXX_UNUSED)
 204:c:\nxp\mcuxpressoide_10.2.1_795\ide\tools\arm-none-eabi\include\c++\7.2.1\arm-none-eabi\thumb\v7-m\bits\gthr-default.h **** {
 205:c:\nxp\mcuxpressoide_10.2.1_795\ide\tools\arm-none-eabi\include\c++\7.2.1\arm-none-eabi\thumb\v7-m\bits\gthr-default.h ****   return 0;
 206:c:\nxp\mcuxpressoide_10.2.1_795\ide\tools\arm-none-eabi\include\c++\7.2.1\arm-none-eabi\thumb\v7-m\bits\gthr-default.h **** }
 207:c:\nxp\mcuxpressoide_10.2.1_795\ide\tools\arm-none-eabi\include\c++\7.2.1\arm-none-eabi\thumb\v7-m\bits\gthr-default.h **** 
 208:c:\nxp\mcuxpressoide_10.2.1_795\ide\tools\arm-none-eabi\include\c++\7.2.1\arm-none-eabi\thumb\v7-m\bits\gthr-default.h **** #else /* _LIBOBJC */
 209:c:\nxp\mcuxpressoide_10.2.1_795\ide\tools\arm-none-eabi\include\c++\7.2.1\arm-none-eabi\thumb\v7-m\bits\gthr-default.h **** 
 210:c:\nxp\mcuxpressoide_10.2.1_795\ide\tools\arm-none-eabi\include\c++\7.2.1\arm-none-eabi\thumb\v7-m\bits\gthr-default.h **** static inline int
 211:c:\nxp\mcuxpressoide_10.2.1_795\ide\tools\arm-none-eabi\include\c++\7.2.1\arm-none-eabi\thumb\v7-m\bits\gthr-default.h **** __gthread_active_p (void)
 212:c:\nxp\mcuxpressoide_10.2.1_795\ide\tools\arm-none-eabi\include\c++\7.2.1\arm-none-eabi\thumb\v7-m\bits\gthr-default.h **** {
 213:c:\nxp\mcuxpressoide_10.2.1_795\ide\tools\arm-none-eabi\include\c++\7.2.1\arm-none-eabi\thumb\v7-m\bits\gthr-default.h ****   return 0;
 214:c:\nxp\mcuxpressoide_10.2.1_795\ide\tools\arm-none-eabi\include\c++\7.2.1\arm-none-eabi\thumb\v7-m\bits\gthr-default.h **** }
 215:c:\nxp\mcuxpressoide_10.2.1_795\ide\tools\arm-none-eabi\include\c++\7.2.1\arm-none-eabi\thumb\v7-m\bits\gthr-default.h **** 
 216:c:\nxp\mcuxpressoide_10.2.1_795\ide\tools\arm-none-eabi\include\c++\7.2.1\arm-none-eabi\thumb\v7-m\bits\gthr-default.h **** static inline int
 217:c:\nxp\mcuxpressoide_10.2.1_795\ide\tools\arm-none-eabi\include\c++\7.2.1\arm-none-eabi\thumb\v7-m\bits\gthr-default.h **** __gthread_once (__gthread_once_t *__once _GLIBCXX_UNUSED, void (*__func) (void) _GLIBCXX_UNUSED)
 218:c:\nxp\mcuxpressoide_10.2.1_795\ide\tools\arm-none-eabi\include\c++\7.2.1\arm-none-eabi\thumb\v7-m\bits\gthr-default.h **** {
 219:c:\nxp\mcuxpressoide_10.2.1_795\ide\tools\arm-none-eabi\include\c++\7.2.1\arm-none-eabi\thumb\v7-m\bits\gthr-default.h ****   return 0;
 220:c:\nxp\mcuxpressoide_10.2.1_795\ide\tools\arm-none-eabi\include\c++\7.2.1\arm-none-eabi\thumb\v7-m\bits\gthr-default.h **** }
 221:c:\nxp\mcuxpressoide_10.2.1_795\ide\tools\arm-none-eabi\include\c++\7.2.1\arm-none-eabi\thumb\v7-m\bits\gthr-default.h **** 
 222:c:\nxp\mcuxpressoide_10.2.1_795\ide\tools\arm-none-eabi\include\c++\7.2.1\arm-none-eabi\thumb\v7-m\bits\gthr-default.h **** static inline int _GLIBCXX_UNUSED
 223:c:\nxp\mcuxpressoide_10.2.1_795\ide\tools\arm-none-eabi\include\c++\7.2.1\arm-none-eabi\thumb\v7-m\bits\gthr-default.h **** __gthread_key_create (__gthread_key_t *__key _GLIBCXX_UNUSED, void (*__func) (void *) _GLIBCXX_UNUS
 224:c:\nxp\mcuxpressoide_10.2.1_795\ide\tools\arm-none-eabi\include\c++\7.2.1\arm-none-eabi\thumb\v7-m\bits\gthr-default.h **** {
 225:c:\nxp\mcuxpressoide_10.2.1_795\ide\tools\arm-none-eabi\include\c++\7.2.1\arm-none-eabi\thumb\v7-m\bits\gthr-default.h ****   return 0;
 226:c:\nxp\mcuxpressoide_10.2.1_795\ide\tools\arm-none-eabi\include\c++\7.2.1\arm-none-eabi\thumb\v7-m\bits\gthr-default.h **** }
 227:c:\nxp\mcuxpressoide_10.2.1_795\ide\tools\arm-none-eabi\include\c++\7.2.1\arm-none-eabi\thumb\v7-m\bits\gthr-default.h **** 
 228:c:\nxp\mcuxpressoide_10.2.1_795\ide\tools\arm-none-eabi\include\c++\7.2.1\arm-none-eabi\thumb\v7-m\bits\gthr-default.h **** static int _GLIBCXX_UNUSED
 229:c:\nxp\mcuxpressoide_10.2.1_795\ide\tools\arm-none-eabi\include\c++\7.2.1\arm-none-eabi\thumb\v7-m\bits\gthr-default.h **** __gthread_key_delete (__gthread_key_t __key _GLIBCXX_UNUSED)
 230:c:\nxp\mcuxpressoide_10.2.1_795\ide\tools\arm-none-eabi\include\c++\7.2.1\arm-none-eabi\thumb\v7-m\bits\gthr-default.h **** {
  31              		.loc 1 230 0
  32              		.cfi_startproc
  33              		@ args = 0, pretend = 0, frame = 8
  34              		@ frame_needed = 1, uses_anonymous_args = 0
  35              		@ link register save eliminated.
  36 0000 80B4     		push	{r7}
  37              		.cfi_def_cfa_offset 4
  38              		.cfi_offset 7, -4
  39 0002 83B0     		sub	sp, sp, #12
  40              		.cfi_def_cfa_offset 16
  41 0004 00AF     		add	r7, sp, #0
  42              		.cfi_def_cfa_register 7
  43 0006 7860     		str	r0, [r7, #4]
 231:c:\nxp\mcuxpressoide_10.2.1_795\ide\tools\arm-none-eabi\include\c++\7.2.1\arm-none-eabi\thumb\v7-m\bits\gthr-default.h ****   return 0;
  44              		.loc 1 231 0
  45 0008 0023     		movs	r3, #0
 232:c:\nxp\mcuxpressoide_10.2.1_795\ide\tools\arm-none-eabi\include\c++\7.2.1\arm-none-eabi\thumb\v7-m\bits\gthr-default.h **** }
  46              		.loc 1 232 0
  47 000a 1846     		mov	r0, r3
  48 000c 0C37     		adds	r7, r7, #12
  49              		.cfi_def_cfa_offset 4
  50 000e BD46     		mov	sp, r7
  51              		.cfi_def_cfa_register 13
  52              		@ sp needed
  53 0010 80BC     		pop	{r7}
  54              		.cfi_restore 7
  55              		.cfi_def_cfa_offset 0
  56 0012 7047     		bx	lr
ARM GAS  C:\Users\xavie\AppData\Local\Temp\ccbd98DL.s 			page 6


  57              		.cfi_endproc
  58              	.LFE620:
  60              		.section	.text._ZN9IInteractD2Ev,"axG",%progbits,_ZN9IInteractD5Ev,comdat
  61              		.align	1
  62              		.weak	_ZN9IInteractD2Ev
  63              		.syntax unified
  64              		.thumb
  65              		.thumb_func
  66              		.fpu softvfp
  68              	_ZN9IInteractD2Ev:
  69              	.LFB986:
  70              		.file 2 "C:\\Users\\xavie\\Cegep\\Processeurs\\HeroOrZero\\inc/interfaces.h"
   1:C:\Users\xavie\Cegep\Processeurs\HeroOrZero\inc\interfaces.h **** #ifndef INTERFACES_H_
   2:C:\Users\xavie\Cegep\Processeurs\HeroOrZero\inc\interfaces.h **** #define INTERFACES_H_
   3:C:\Users\xavie\Cegep\Processeurs\HeroOrZero\inc\interfaces.h **** #include "xav_data.h"
   4:C:\Users\xavie\Cegep\Processeurs\HeroOrZero\inc\interfaces.h **** #include "ps2controller.h"
   5:C:\Users\xavie\Cegep\Processeurs\HeroOrZero\inc\interfaces.h **** 
   6:C:\Users\xavie\Cegep\Processeurs\HeroOrZero\inc\interfaces.h **** /* IRender is the interface that all classes that intend to draw something on the screen
   7:C:\Users\xavie\Cegep\Processeurs\HeroOrZero\inc\interfaces.h ****  * must inherit from. Each subclass must implement the Draw() method. This function must be
   8:C:\Users\xavie\Cegep\Processeurs\HeroOrZero\inc\interfaces.h ****  * implement in such a way that the Renderer::AddToFrame method can push a pointer to the
   9:C:\Users\xavie\Cegep\Processeurs\HeroOrZero\inc\interfaces.h ****  * object as well as the copy of the drawBox of this object, declared here, to two vectors.
  10:C:\Users\xavie\Cegep\Processeurs\HeroOrZero\inc\interfaces.h ****  * The Renderer::Update method will iterate through these vectors to render the next frame.
  11:C:\Users\xavie\Cegep\Processeurs\HeroOrZero\inc\interfaces.h ****  * Alternatively, IRender child classes can also be added to a special "callback" vector
  12:C:\Users\xavie\Cegep\Processeurs\HeroOrZero\inc\interfaces.h ****  * using the Renderer::AddToCallback method, which will be rendered by the wrapper class
  13:C:\Users\xavie\Cegep\Processeurs\HeroOrZero\inc\interfaces.h ****  * two frames after the function is called. */
  14:C:\Users\xavie\Cegep\Processeurs\HeroOrZero\inc\interfaces.h **** class IRender{
  15:C:\Users\xavie\Cegep\Processeurs\HeroOrZero\inc\interfaces.h **** public:
  16:C:\Users\xavie\Cegep\Processeurs\HeroOrZero\inc\interfaces.h **** 	rectangle_t drawBox;
  17:C:\Users\xavie\Cegep\Processeurs\HeroOrZero\inc\interfaces.h **** 	virtual void Draw(rectangle_t drawBox) = 0;
  18:C:\Users\xavie\Cegep\Processeurs\HeroOrZero\inc\interfaces.h **** 	virtual ~IRender() {}
  19:C:\Users\xavie\Cegep\Processeurs\HeroOrZero\inc\interfaces.h **** };
  20:C:\Users\xavie\Cegep\Processeurs\HeroOrZero\inc\interfaces.h **** 
  21:C:\Users\xavie\Cegep\Processeurs\HeroOrZero\inc\interfaces.h **** /* IInteract is the interface that all classes that are intended for the user to actively
  22:C:\Users\xavie\Cegep\Processeurs\HeroOrZero\inc\interfaces.h ****  * interact with, on the map, must inherit from. Each subclass must implement the OnUserInteract()
  23:C:\Users\xavie\Cegep\Processeurs\HeroOrZero\inc\interfaces.h ****  * method. The Tile class can then create itself a new derived class object by using a pointer
  24:C:\Users\xavie\Cegep\Processeurs\HeroOrZero\inc\interfaces.h ****  * to this base class and then perform the desired interaction. OnUserInteract will be called
  25:C:\Users\xavie\Cegep\Processeurs\HeroOrZero\inc\interfaces.h ****  * by the Player entity using the input intended to perform an action. */
  26:C:\Users\xavie\Cegep\Processeurs\HeroOrZero\inc\interfaces.h **** class IInteract{
  27:C:\Users\xavie\Cegep\Processeurs\HeroOrZero\inc\interfaces.h **** protected:
  28:C:\Users\xavie\Cegep\Processeurs\HeroOrZero\inc\interfaces.h **** 	ps2_inputs_t userInput;
  29:C:\Users\xavie\Cegep\Processeurs\HeroOrZero\inc\interfaces.h **** 	ps2_buttons_t keyState;
  30:C:\Users\xavie\Cegep\Processeurs\HeroOrZero\inc\interfaces.h **** public:
  31:C:\Users\xavie\Cegep\Processeurs\HeroOrZero\inc\interfaces.h **** 	virtual void OnUserInteract() = 0;
  32:C:\Users\xavie\Cegep\Processeurs\HeroOrZero\inc\interfaces.h **** 	virtual ~IInteract() {}
  71              		.loc 2 32 0
  72              		.cfi_startproc
  73              		@ args = 0, pretend = 0, frame = 8
  74              		@ frame_needed = 1, uses_anonymous_args = 0
  75              		@ link register save eliminated.
  76 0000 80B4     		push	{r7}
  77              		.cfi_def_cfa_offset 4
  78              		.cfi_offset 7, -4
  79 0002 83B0     		sub	sp, sp, #12
  80              		.cfi_def_cfa_offset 16
  81 0004 00AF     		add	r7, sp, #0
  82              		.cfi_def_cfa_register 7
  83 0006 7860     		str	r0, [r7, #4]
ARM GAS  C:\Users\xavie\AppData\Local\Temp\ccbd98DL.s 			page 7


  84              	.LBB2:
  85              		.loc 2 32 0
  86 0008 044A     		ldr	r2, .L5
  87 000a 7B68     		ldr	r3, [r7, #4]
  88 000c 1A60     		str	r2, [r3]
  89              	.LBE2:
  90 000e 7B68     		ldr	r3, [r7, #4]
  91 0010 1846     		mov	r0, r3
  92 0012 0C37     		adds	r7, r7, #12
  93              		.cfi_def_cfa_offset 4
  94 0014 BD46     		mov	sp, r7
  95              		.cfi_def_cfa_register 13
  96              		@ sp needed
  97 0016 80BC     		pop	{r7}
  98              		.cfi_restore 7
  99              		.cfi_def_cfa_offset 0
 100 0018 7047     		bx	lr
 101              	.L6:
 102 001a 00BF     		.align	2
 103              	.L5:
 104 001c 08000000 		.word	_ZTV9IInteract+8
 105              		.cfi_endproc
 106              	.LFE986:
 108              		.weak	_ZN9IInteractD1Ev
 109              		.thumb_set _ZN9IInteractD1Ev,_ZN9IInteractD2Ev
 110              		.section	.text._ZN9IInteractD0Ev,"axG",%progbits,_ZN9IInteractD5Ev,comdat
 111              		.align	1
 112              		.weak	_ZN9IInteractD0Ev
 113              		.syntax unified
 114              		.thumb
 115              		.thumb_func
 116              		.fpu softvfp
 118              	_ZN9IInteractD0Ev:
 119              	.LFB988:
 120              		.loc 2 32 0
 121              		.cfi_startproc
 122              		@ args = 0, pretend = 0, frame = 8
 123              		@ frame_needed = 1, uses_anonymous_args = 0
 124 0000 80B5     		push	{r7, lr}
 125              		.cfi_def_cfa_offset 8
 126              		.cfi_offset 7, -8
 127              		.cfi_offset 14, -4
 128 0002 82B0     		sub	sp, sp, #8
 129              		.cfi_def_cfa_offset 16
 130 0004 00AF     		add	r7, sp, #0
 131              		.cfi_def_cfa_register 7
 132 0006 7860     		str	r0, [r7, #4]
 133              		.loc 2 32 0
 134 0008 7868     		ldr	r0, [r7, #4]
 135 000a FFF7FEFF 		bl	_ZN9IInteractD1Ev
 136 000e 1021     		movs	r1, #16
 137 0010 7868     		ldr	r0, [r7, #4]
 138 0012 FFF7FEFF 		bl	_ZdlPvj
 139 0016 7B68     		ldr	r3, [r7, #4]
 140 0018 1846     		mov	r0, r3
 141 001a 0837     		adds	r7, r7, #8
 142              		.cfi_def_cfa_offset 8
ARM GAS  C:\Users\xavie\AppData\Local\Temp\ccbd98DL.s 			page 8


 143 001c BD46     		mov	sp, r7
 144              		.cfi_def_cfa_register 13
 145              		@ sp needed
 146 001e 80BD     		pop	{r7, pc}
 147              		.cfi_endproc
 148              	.LFE988:
 150              		.section	.text._ZN11SaveManagerD2Ev,"axG",%progbits,_ZN11SaveManagerD5Ev,comdat
 151              		.align	1
 152              		.weak	_ZN11SaveManagerD2Ev
 153              		.syntax unified
 154              		.thumb
 155              		.thumb_func
 156              		.fpu softvfp
 158              	_ZN11SaveManagerD2Ev:
 159              	.LFB1229:
 160              		.file 3 "C:\\Users\\xavie\\Cegep\\Processeurs\\HeroOrZero\\inc/savemanager.h"
   1:C:\Users\xavie\Cegep\Processeurs\HeroOrZero\inc\savemanager.h **** #ifndef SAVEMANAGER_H_
   2:C:\Users\xavie\Cegep\Processeurs\HeroOrZero\inc\savemanager.h **** #define SAVEMANAGER_H_
   3:C:\Users\xavie\Cegep\Processeurs\HeroOrZero\inc\savemanager.h **** 
   4:C:\Users\xavie\Cegep\Processeurs\HeroOrZero\inc\savemanager.h **** #include "interfaces.h"
   5:C:\Users\xavie\Cegep\Processeurs\HeroOrZero\inc\savemanager.h **** #include "gui.h"
   6:C:\Users\xavie\Cegep\Processeurs\HeroOrZero\inc\savemanager.h **** #include "xav_data.h"
   7:C:\Users\xavie\Cegep\Processeurs\HeroOrZero\inc\savemanager.h **** 
   8:C:\Users\xavie\Cegep\Processeurs\HeroOrZero\inc\savemanager.h **** class SaveManager : public IInteract, public IUpdate{
   9:C:\Users\xavie\Cegep\Processeurs\HeroOrZero\inc\savemanager.h **** 	UserInterface * GUI = nullptr;
  10:C:\Users\xavie\Cegep\Processeurs\HeroOrZero\inc\savemanager.h **** 	char slotName[4][9];
  11:C:\Users\xavie\Cegep\Processeurs\HeroOrZero\inc\savemanager.h **** 	const char slotTitle[4][7] = {
  12:C:\Users\xavie\Cegep\Processeurs\HeroOrZero\inc\savemanager.h **** 		{"Slot 1"},
  13:C:\Users\xavie\Cegep\Processeurs\HeroOrZero\inc\savemanager.h **** 		{"Slot 2"},
  14:C:\Users\xavie\Cegep\Processeurs\HeroOrZero\inc\savemanager.h **** 		{"Slot 3"},
  15:C:\Users\xavie\Cegep\Processeurs\HeroOrZero\inc\savemanager.h **** 		{"Slot 4"}
  16:C:\Users\xavie\Cegep\Processeurs\HeroOrZero\inc\savemanager.h **** 	};
  17:C:\Users\xavie\Cegep\Processeurs\HeroOrZero\inc\savemanager.h **** 	bool exit;
  18:C:\Users\xavie\Cegep\Processeurs\HeroOrZero\inc\savemanager.h **** 	bool cardDetected;
  19:C:\Users\xavie\Cegep\Processeurs\HeroOrZero\inc\savemanager.h **** 	bool validInput;
  20:C:\Users\xavie\Cegep\Processeurs\HeroOrZero\inc\savemanager.h **** 	uint8_t selection;
  21:C:\Users\xavie\Cegep\Processeurs\HeroOrZero\inc\savemanager.h **** public:
  22:C:\Users\xavie\Cegep\Processeurs\HeroOrZero\inc\savemanager.h **** 	save_cell_t memoryBuffer;
  23:C:\Users\xavie\Cegep\Processeurs\HeroOrZero\inc\savemanager.h **** 	void OnUserInteract();
  24:C:\Users\xavie\Cegep\Processeurs\HeroOrZero\inc\savemanager.h **** 	void Tick();
  25:C:\Users\xavie\Cegep\Processeurs\HeroOrZero\inc\savemanager.h **** 
  26:C:\Users\xavie\Cegep\Processeurs\HeroOrZero\inc\savemanager.h **** 	~SaveManager(){}
 161              		.loc 3 26 0
 162              		.cfi_startproc
 163              		@ args = 0, pretend = 0, frame = 8
 164              		@ frame_needed = 1, uses_anonymous_args = 0
 165 0000 80B5     		push	{r7, lr}
 166              		.cfi_def_cfa_offset 8
 167              		.cfi_offset 7, -8
 168              		.cfi_offset 14, -4
 169 0002 82B0     		sub	sp, sp, #8
 170              		.cfi_def_cfa_offset 16
 171 0004 00AF     		add	r7, sp, #0
 172              		.cfi_def_cfa_register 7
 173 0006 7860     		str	r0, [r7, #4]
 174              	.LBB3:
 175              		.loc 3 26 0
ARM GAS  C:\Users\xavie\AppData\Local\Temp\ccbd98DL.s 			page 9


 176 0008 074A     		ldr	r2, .L11
 177 000a 7B68     		ldr	r3, [r7, #4]
 178 000c 1A60     		str	r2, [r3]
 179 000e 074A     		ldr	r2, .L11+4
 180 0010 7B68     		ldr	r3, [r7, #4]
 181 0012 1A61     		str	r2, [r3, #16]
 182 0014 7B68     		ldr	r3, [r7, #4]
 183 0016 1846     		mov	r0, r3
 184 0018 FFF7FEFF 		bl	_ZN9IInteractD2Ev
 185              	.LBE3:
 186 001c 7B68     		ldr	r3, [r7, #4]
 187 001e 1846     		mov	r0, r3
 188 0020 0837     		adds	r7, r7, #8
 189              		.cfi_def_cfa_offset 8
 190 0022 BD46     		mov	sp, r7
 191              		.cfi_def_cfa_register 13
 192              		@ sp needed
 193 0024 80BD     		pop	{r7, pc}
 194              	.L12:
 195 0026 00BF     		.align	2
 196              	.L11:
 197 0028 08000000 		.word	_ZTV11SaveManager+8
 198 002c 20000000 		.word	_ZTV11SaveManager+32
 199              		.cfi_endproc
 200              	.LFE1229:
 202              		.weak	_ZN11SaveManagerD1Ev
 203              		.thumb_set _ZN11SaveManagerD1Ev,_ZN11SaveManagerD2Ev
 204              		.section	.text._ZN11SaveManagerD0Ev,"axG",%progbits,_ZN11SaveManagerD5Ev,comdat
 205              		.align	1
 206              		.weak	_ZN11SaveManagerD0Ev
 207              		.syntax unified
 208              		.thumb
 209              		.thumb_func
 210              		.fpu softvfp
 212              	_ZN11SaveManagerD0Ev:
 213              	.LFB1231:
 214              		.loc 3 26 0
 215              		.cfi_startproc
 216              		@ args = 0, pretend = 0, frame = 8
 217              		@ frame_needed = 1, uses_anonymous_args = 0
 218 0000 80B5     		push	{r7, lr}
 219              		.cfi_def_cfa_offset 8
 220              		.cfi_offset 7, -8
 221              		.cfi_offset 14, -4
 222 0002 82B0     		sub	sp, sp, #8
 223              		.cfi_def_cfa_offset 16
 224 0004 00AF     		add	r7, sp, #0
 225              		.cfi_def_cfa_register 7
 226 0006 7860     		str	r0, [r7, #4]
 227              		.loc 3 26 0
 228 0008 7868     		ldr	r0, [r7, #4]
 229 000a FFF7FEFF 		bl	_ZN11SaveManagerD1Ev
 230 000e F021     		movs	r1, #240
 231 0010 7868     		ldr	r0, [r7, #4]
 232 0012 FFF7FEFF 		bl	_ZdlPvj
 233 0016 7B68     		ldr	r3, [r7, #4]
 234 0018 1846     		mov	r0, r3
ARM GAS  C:\Users\xavie\AppData\Local\Temp\ccbd98DL.s 			page 10


 235 001a 0837     		adds	r7, r7, #8
 236              		.cfi_def_cfa_offset 8
 237 001c BD46     		mov	sp, r7
 238              		.cfi_def_cfa_register 13
 239              		@ sp needed
 240 001e 80BD     		pop	{r7, pc}
 241              		.cfi_endproc
 242              	.LFE1231:
 244              		.section	.bss._ZL2P0,"aw",%nobits
 245              		.align	2
 248              	_ZL2P0:
 249 0000 00000000 		.space	12
 249      00000000 
 249      00000000 
 250              		.section	.bss._ZL2P1,"aw",%nobits
 251              		.align	2
 254              	_ZL2P1:
 255 0000 00000000 		.space	12
 255      00000000 
 255      00000000 
 256              		.section	.bss._ZL2P2,"aw",%nobits
 257              		.align	2
 260              	_ZL2P2:
 261 0000 00000000 		.space	12
 261      00000000 
 261      00000000 
 262              		.section	.bss._ZL2P3,"aw",%nobits
 263              		.align	2
 266              	_ZL2P3:
 267 0000 00000000 		.space	12
 267      00000000 
 267      00000000 
 268              		.section	.bss._ZL2P4,"aw",%nobits
 269              		.align	2
 272              	_ZL2P4:
 273 0000 00000000 		.space	12
 273      00000000 
 273      00000000 
 274              		.section	.bss._ZL4TMR0,"aw",%nobits
 275              		.align	2
 278              	_ZL4TMR0:
 279 0000 00000000 		.space	12
 279      00000000 
 279      00000000 
 280              		.section	.bss._ZL4TMR1,"aw",%nobits
 281              		.align	2
 284              	_ZL4TMR1:
 285 0000 00000000 		.space	12
 285      00000000 
 285      00000000 
 286              		.section	.bss._ZL4TMR2,"aw",%nobits
 287              		.align	2
 290              	_ZL4TMR2:
 291 0000 00000000 		.space	12
 291      00000000 
 291      00000000 
 292              		.section	.bss._ZL4TMR3,"aw",%nobits
ARM GAS  C:\Users\xavie\AppData\Local\Temp\ccbd98DL.s 			page 11


 293              		.align	2
 296              	_ZL4TMR3:
 297 0000 00000000 		.space	12
 297      00000000 
 297      00000000 
 298              		.section	.bss._ZL5UART0,"aw",%nobits
 299              		.align	2
 302              	_ZL5UART0:
 303 0000 00000000 		.space	8
 303      00000000 
 304              		.section	.bss._ZL8Keyboard,"aw",%nobits
 305              		.align	2
 308              	_ZL8Keyboard:
 309 0000 00000000 		.space	8
 309      00000000 
 310              		.section	.bss._ZL7Console,"aw",%nobits
 311              		.align	2
 314              	_ZL7Console:
 315 0000 00000000 		.space	8
 315      00000000 
 316              		.global	AvailableResourceFields
 317              		.section	.bss.AvailableResourceFields,"aw",%nobits
 318              		.align	2
 321              	AvailableResourceFields:
 322 0000 00000000 		.space	5
 322      00
 323              		.global	MaxResourceFields
 324              		.section	.bss.MaxResourceFields,"aw",%nobits
 325              		.align	2
 328              	MaxResourceFields:
 329 0000 00000000 		.space	5
 329      00
 330              		.global	_ZN4Game9ResourcesE
 331              		.section	.bss._ZN4Game9ResourcesE,"aw",%nobits
 332              		.align	2
 335              	_ZN4Game9ResourcesE:
 336 0000 00000000 		.space	20
 336      00000000 
 336      00000000 
 336      00000000 
 336      00000000 
 337              		.global	_ZN4Game8ProdPer5E
 338              		.section	.bss._ZN4Game8ProdPer5E,"aw",%nobits
 339              		.align	2
 342              	_ZN4Game8ProdPer5E:
 343 0000 00000000 		.space	20
 343      00000000 
 343      00000000 
 343      00000000 
 343      00000000 
 344              		.global	_ZN4Game10loadBufferE
 345              		.section	.bss._ZN4Game10loadBufferE,"aw",%nobits
 346              		.align	2
 349              	_ZN4Game10loadBufferE:
 350 0000 00000000 		.space	148
 350      00000000 
 350      00000000 
ARM GAS  C:\Users\xavie\AppData\Local\Temp\ccbd98DL.s 			page 12


 350      00000000 
 350      00000000 
 351              		.section	.text._ZN9IInteractC2Ev,"axG",%progbits,_ZN9IInteractC5Ev,comdat
 352              		.align	1
 353              		.weak	_ZN9IInteractC2Ev
 354              		.syntax unified
 355              		.thumb
 356              		.thumb_func
 357              		.fpu softvfp
 359              	_ZN9IInteractC2Ev:
 360              	.LFB1557:
  26:C:\Users\xavie\Cegep\Processeurs\HeroOrZero\inc\interfaces.h **** protected:
 361              		.loc 2 26 0
 362              		.cfi_startproc
 363              		@ args = 0, pretend = 0, frame = 8
 364              		@ frame_needed = 1, uses_anonymous_args = 0
 365              		@ link register save eliminated.
 366 0000 80B4     		push	{r7}
 367              		.cfi_def_cfa_offset 4
 368              		.cfi_offset 7, -4
 369 0002 83B0     		sub	sp, sp, #12
 370              		.cfi_def_cfa_offset 16
 371 0004 00AF     		add	r7, sp, #0
 372              		.cfi_def_cfa_register 7
 373 0006 7860     		str	r0, [r7, #4]
 374              	.LBB4:
  26:C:\Users\xavie\Cegep\Processeurs\HeroOrZero\inc\interfaces.h **** protected:
 375              		.loc 2 26 0
 376 0008 044A     		ldr	r2, .L17
 377 000a 7B68     		ldr	r3, [r7, #4]
 378 000c 1A60     		str	r2, [r3]
 379              	.LBE4:
 380 000e 7B68     		ldr	r3, [r7, #4]
 381 0010 1846     		mov	r0, r3
 382 0012 0C37     		adds	r7, r7, #12
 383              		.cfi_def_cfa_offset 4
 384 0014 BD46     		mov	sp, r7
 385              		.cfi_def_cfa_register 13
 386              		@ sp needed
 387 0016 80BC     		pop	{r7}
 388              		.cfi_restore 7
 389              		.cfi_def_cfa_offset 0
 390 0018 7047     		bx	lr
 391              	.L18:
 392 001a 00BF     		.align	2
 393              	.L17:
 394 001c 08000000 		.word	_ZTV9IInteract+8
 395              		.cfi_endproc
 396              	.LFE1557:
 398              		.weak	_ZN9IInteractC1Ev
 399              		.thumb_set _ZN9IInteractC1Ev,_ZN9IInteractC2Ev
 400              		.section	.text._ZN7IUpdateC2Ev,"axG",%progbits,_ZN7IUpdateC5Ev,comdat
 401              		.align	1
 402              		.weak	_ZN7IUpdateC2Ev
 403              		.syntax unified
 404              		.thumb
 405              		.thumb_func
ARM GAS  C:\Users\xavie\AppData\Local\Temp\ccbd98DL.s 			page 13


 406              		.fpu softvfp
 408              	_ZN7IUpdateC2Ev:
 409              	.LFB1560:
  33:C:\Users\xavie\Cegep\Processeurs\HeroOrZero\inc\interfaces.h **** };
  34:C:\Users\xavie\Cegep\Processeurs\HeroOrZero\inc\interfaces.h **** 
  35:C:\Users\xavie\Cegep\Processeurs\HeroOrZero\inc\interfaces.h **** /* IUpdate is the interface that all classes defining mechanics and interactions that
  36:C:\Users\xavie\Cegep\Processeurs\HeroOrZero\inc\interfaces.h ****  * must be updated on a frame by frame basis must inherit from. Each subclass must implement
  37:C:\Users\xavie\Cegep\Processeurs\HeroOrZero\inc\interfaces.h ****  * the Tick() method. Afterward, entities and objects can add themselves, or other components,
  38:C:\Users\xavie\Cegep\Processeurs\HeroOrZero\inc\interfaces.h ****  * to the update queue by calling the TickEngine::PushStack() method. The TickEngine wrapper
  39:C:\Users\xavie\Cegep\Processeurs\HeroOrZero\inc\interfaces.h ****  * class implements a priority stack that will only update the first element on each priority
  40:C:\Users\xavie\Cegep\Processeurs\HeroOrZero\inc\interfaces.h ****  * level, allowing for simple overriding of any component's behavior that must not occur
  41:C:\Users\xavie\Cegep\Processeurs\HeroOrZero\inc\interfaces.h ****  * simultaneously. When a component is done with it's behavior, TickEngine::PopStack must be
  42:C:\Users\xavie\Cegep\Processeurs\HeroOrZero\inc\interfaces.h ****  * called with the priority level to pop. */
  43:C:\Users\xavie\Cegep\Processeurs\HeroOrZero\inc\interfaces.h **** class IUpdate{
 410              		.loc 2 43 0
 411              		.cfi_startproc
 412              		@ args = 0, pretend = 0, frame = 8
 413              		@ frame_needed = 1, uses_anonymous_args = 0
 414              		@ link register save eliminated.
 415 0000 80B4     		push	{r7}
 416              		.cfi_def_cfa_offset 4
 417              		.cfi_offset 7, -4
 418 0002 83B0     		sub	sp, sp, #12
 419              		.cfi_def_cfa_offset 16
 420 0004 00AF     		add	r7, sp, #0
 421              		.cfi_def_cfa_register 7
 422 0006 7860     		str	r0, [r7, #4]
 423              	.LBB5:
 424              		.loc 2 43 0
 425 0008 044A     		ldr	r2, .L21
 426 000a 7B68     		ldr	r3, [r7, #4]
 427 000c 1A60     		str	r2, [r3]
 428              	.LBE5:
 429 000e 7B68     		ldr	r3, [r7, #4]
 430 0010 1846     		mov	r0, r3
 431 0012 0C37     		adds	r7, r7, #12
 432              		.cfi_def_cfa_offset 4
 433 0014 BD46     		mov	sp, r7
 434              		.cfi_def_cfa_register 13
 435              		@ sp needed
 436 0016 80BC     		pop	{r7}
 437              		.cfi_restore 7
 438              		.cfi_def_cfa_offset 0
 439 0018 7047     		bx	lr
 440              	.L22:
 441 001a 00BF     		.align	2
 442              	.L21:
 443 001c 08000000 		.word	_ZTV7IUpdate+8
 444              		.cfi_endproc
 445              	.LFE1560:
 447              		.weak	_ZN7IUpdateC1Ev
 448              		.thumb_set _ZN7IUpdateC1Ev,_ZN7IUpdateC2Ev
 449              		.section	.text._ZN11save_cell_tC2Ev,"axG",%progbits,_ZN11save_cell_tC5Ev,comdat
 450              		.align	1
 451              		.weak	_ZN11save_cell_tC2Ev
 452              		.syntax unified
 453              		.thumb
ARM GAS  C:\Users\xavie\AppData\Local\Temp\ccbd98DL.s 			page 14


 454              		.thumb_func
 455              		.fpu softvfp
 457              	_ZN11save_cell_tC2Ev:
 458              	.LFB1563:
 459              		.file 4 "C:\\Users\\xavie\\Cegep\\Processeurs\\HeroOrZero\\inc/xav_data.h"
   1:C:\Users\xavie\Cegep\Processeurs\HeroOrZero\inc\xav_data.h **** #ifndef XAV_DATA_H_
   2:C:\Users\xavie\Cegep\Processeurs\HeroOrZero\inc\xav_data.h **** #define XAV_DATA_H_
   3:C:\Users\xavie\Cegep\Processeurs\HeroOrZero\inc\xav_data.h **** #include <stdint.h>
   4:C:\Users\xavie\Cegep\Processeurs\HeroOrZero\inc\xav_data.h **** #include <string>
   5:C:\Users\xavie\Cegep\Processeurs\HeroOrZero\inc\xav_data.h **** 
   6:C:\Users\xavie\Cegep\Processeurs\HeroOrZero\inc\xav_data.h **** enum class ReturnCode {FAILURE, SUCCESS, RUNNING};
   7:C:\Users\xavie\Cegep\Processeurs\HeroOrZero\inc\xav_data.h **** 
   8:C:\Users\xavie\Cegep\Processeurs\HeroOrZero\inc\xav_data.h **** typedef enum{G1, // Plains 1
   9:C:\Users\xavie\Cegep\Processeurs\HeroOrZero\inc\xav_data.h **** 			G2, // Small rocks
  10:C:\Users\xavie\Cegep\Processeurs\HeroOrZero\inc\xav_data.h **** 			G3, // Forest 1
  11:C:\Users\xavie\Cegep\Processeurs\HeroOrZero\inc\xav_data.h **** 			G4, // Forest 2
  12:C:\Users\xavie\Cegep\Processeurs\HeroOrZero\inc\xav_data.h **** 			G5, // Water
  13:C:\Users\xavie\Cegep\Processeurs\HeroOrZero\inc\xav_data.h **** 			G6, // Snow hills
  14:C:\Users\xavie\Cegep\Processeurs\HeroOrZero\inc\xav_data.h **** 			G7, // Rocky hills
  15:C:\Users\xavie\Cegep\Processeurs\HeroOrZero\inc\xav_data.h **** 			G8, // Pond
  16:C:\Users\xavie\Cegep\Processeurs\HeroOrZero\inc\xav_data.h **** 			G9, // Plains 2
  17:C:\Users\xavie\Cegep\Processeurs\HeroOrZero\inc\xav_data.h **** 			G10, // Wooden shed
  18:C:\Users\xavie\Cegep\Processeurs\HeroOrZero\inc\xav_data.h **** 			G11, // Tower
  19:C:\Users\xavie\Cegep\Processeurs\HeroOrZero\inc\xav_data.h **** 			S1, // Small rocks
  20:C:\Users\xavie\Cegep\Processeurs\HeroOrZero\inc\xav_data.h **** 			S2, // Plains 2
  21:C:\Users\xavie\Cegep\Processeurs\HeroOrZero\inc\xav_data.h **** 			S3, // Water
  22:C:\Users\xavie\Cegep\Processeurs\HeroOrZero\inc\xav_data.h **** 			S4, // Pond
  23:C:\Users\xavie\Cegep\Processeurs\HeroOrZero\inc\xav_data.h **** 			S5, // Trees 1
  24:C:\Users\xavie\Cegep\Processeurs\HeroOrZero\inc\xav_data.h **** 			S6, // Sand dunes
  25:C:\Users\xavie\Cegep\Processeurs\HeroOrZero\inc\xav_data.h **** 			S7, // Trees 2
  26:C:\Users\xavie\Cegep\Processeurs\HeroOrZero\inc\xav_data.h **** 			S8, // Hills
  27:C:\Users\xavie\Cegep\Processeurs\HeroOrZero\inc\xav_data.h **** 			S9, // Plains 1
  28:C:\Users\xavie\Cegep\Processeurs\HeroOrZero\inc\xav_data.h **** 			S10, // Wooden shed
  29:C:\Users\xavie\Cegep\Processeurs\HeroOrZero\inc\xav_data.h **** 			S11, // Tower
  30:C:\Users\xavie\Cegep\Processeurs\HeroOrZero\inc\xav_data.h **** 			W1, // Rocky hills
  31:C:\Users\xavie\Cegep\Processeurs\HeroOrZero\inc\xav_data.h **** 			W2, // Ice pond
  32:C:\Users\xavie\Cegep\Processeurs\HeroOrZero\inc\xav_data.h **** 			W3, // Forest 1
  33:C:\Users\xavie\Cegep\Processeurs\HeroOrZero\inc\xav_data.h **** 			W4, // Forest 2
  34:C:\Users\xavie\Cegep\Processeurs\HeroOrZero\inc\xav_data.h **** 			W5, // Small rocks
  35:C:\Users\xavie\Cegep\Processeurs\HeroOrZero\inc\xav_data.h **** 			W6, // Plains 2
  36:C:\Users\xavie\Cegep\Processeurs\HeroOrZero\inc\xav_data.h **** 			W7, // Icy water
  37:C:\Users\xavie\Cegep\Processeurs\HeroOrZero\inc\xav_data.h **** 			W8, // Snowy hills
  38:C:\Users\xavie\Cegep\Processeurs\HeroOrZero\inc\xav_data.h **** 			W9, // Plains 1
  39:C:\Users\xavie\Cegep\Processeurs\HeroOrZero\inc\xav_data.h **** 			W10, // Wooden shed
  40:C:\Users\xavie\Cegep\Processeurs\HeroOrZero\inc\xav_data.h **** 			W11, // Tower
  41:C:\Users\xavie\Cegep\Processeurs\HeroOrZero\inc\xav_data.h **** 			V // Null map
  42:C:\Users\xavie\Cegep\Processeurs\HeroOrZero\inc\xav_data.h **** 			}tile_type_e;
  43:C:\Users\xavie\Cegep\Processeurs\HeroOrZero\inc\xav_data.h **** 
  44:C:\Users\xavie\Cegep\Processeurs\HeroOrZero\inc\xav_data.h **** typedef enum{NONE,
  45:C:\Users\xavie\Cegep\Processeurs\HeroOrZero\inc\xav_data.h **** 			BRIDGE,
  46:C:\Users\xavie\Cegep\Processeurs\HeroOrZero\inc\xav_data.h **** 			TOWN_HALL,
  47:C:\Users\xavie\Cegep\Processeurs\HeroOrZero\inc\xav_data.h **** 			B_CASTLE1,
  48:C:\Users\xavie\Cegep\Processeurs\HeroOrZero\inc\xav_data.h **** 			B_CASTLE2,
  49:C:\Users\xavie\Cegep\Processeurs\HeroOrZero\inc\xav_data.h **** 			W_CASTLE1,
  50:C:\Users\xavie\Cegep\Processeurs\HeroOrZero\inc\xav_data.h **** 			W_CASTLE2,
  51:C:\Users\xavie\Cegep\Processeurs\HeroOrZero\inc\xav_data.h **** 			FACTORY1,
  52:C:\Users\xavie\Cegep\Processeurs\HeroOrZero\inc\xav_data.h **** 			FACTORY2,
ARM GAS  C:\Users\xavie\AppData\Local\Temp\ccbd98DL.s 			page 15


  53:C:\Users\xavie\Cegep\Processeurs\HeroOrZero\inc\xav_data.h **** 			SAWMILL,
  54:C:\Users\xavie\Cegep\Processeurs\HeroOrZero\inc\xav_data.h **** 			FARM,
  55:C:\Users\xavie\Cegep\Processeurs\HeroOrZero\inc\xav_data.h **** 			QUARRY,
  56:C:\Users\xavie\Cegep\Processeurs\HeroOrZero\inc\xav_data.h **** 			IRON_MINE,
  57:C:\Users\xavie\Cegep\Processeurs\HeroOrZero\inc\xav_data.h **** 			GOLD_MINE
  58:C:\Users\xavie\Cegep\Processeurs\HeroOrZero\inc\xav_data.h **** 			}tile_asset_e;
  59:C:\Users\xavie\Cegep\Processeurs\HeroOrZero\inc\xav_data.h **** 
  60:C:\Users\xavie\Cegep\Processeurs\HeroOrZero\inc\xav_data.h **** typedef enum{
  61:C:\Users\xavie\Cegep\Processeurs\HeroOrZero\inc\xav_data.h **** 	SOUTH_EAST,
  62:C:\Users\xavie\Cegep\Processeurs\HeroOrZero\inc\xav_data.h **** 	EAST,
  63:C:\Users\xavie\Cegep\Processeurs\HeroOrZero\inc\xav_data.h **** 	NORTH_EAST,
  64:C:\Users\xavie\Cegep\Processeurs\HeroOrZero\inc\xav_data.h **** 	NORTH_WEST,
  65:C:\Users\xavie\Cegep\Processeurs\HeroOrZero\inc\xav_data.h **** 	WEST,
  66:C:\Users\xavie\Cegep\Processeurs\HeroOrZero\inc\xav_data.h **** 	SOUTH_WEST,
  67:C:\Users\xavie\Cegep\Processeurs\HeroOrZero\inc\xav_data.h **** 	NORTH,
  68:C:\Users\xavie\Cegep\Processeurs\HeroOrZero\inc\xav_data.h **** 	SOUTH
  69:C:\Users\xavie\Cegep\Processeurs\HeroOrZero\inc\xav_data.h **** 	}tile_direction_e;
  70:C:\Users\xavie\Cegep\Processeurs\HeroOrZero\inc\xav_data.h **** 
  71:C:\Users\xavie\Cegep\Processeurs\HeroOrZero\inc\xav_data.h **** typedef enum {
  72:C:\Users\xavie\Cegep\Processeurs\HeroOrZero\inc\xav_data.h **** 	RELEASED,
  73:C:\Users\xavie\Cegep\Processeurs\HeroOrZero\inc\xav_data.h **** 	PRESSED
  74:C:\Users\xavie\Cegep\Processeurs\HeroOrZero\inc\xav_data.h **** 	}keystate_e;
  75:C:\Users\xavie\Cegep\Processeurs\HeroOrZero\inc\xav_data.h **** 
  76:C:\Users\xavie\Cegep\Processeurs\HeroOrZero\inc\xav_data.h **** typedef struct{
  77:C:\Users\xavie\Cegep\Processeurs\HeroOrZero\inc\xav_data.h **** 	int16_t x, y;
  78:C:\Users\xavie\Cegep\Processeurs\HeroOrZero\inc\xav_data.h **** }coords_pair_t;
  79:C:\Users\xavie\Cegep\Processeurs\HeroOrZero\inc\xav_data.h **** 
  80:C:\Users\xavie\Cegep\Processeurs\HeroOrZero\inc\xav_data.h **** typedef struct{
  81:C:\Users\xavie\Cegep\Processeurs\HeroOrZero\inc\xav_data.h **** 	uint16_t x0, y0;
  82:C:\Users\xavie\Cegep\Processeurs\HeroOrZero\inc\xav_data.h **** 	uint16_t x1, y1;
  83:C:\Users\xavie\Cegep\Processeurs\HeroOrZero\inc\xav_data.h **** }line_coords_t;
  84:C:\Users\xavie\Cegep\Processeurs\HeroOrZero\inc\xav_data.h **** 
  85:C:\Users\xavie\Cegep\Processeurs\HeroOrZero\inc\xav_data.h **** typedef struct{
  86:C:\Users\xavie\Cegep\Processeurs\HeroOrZero\inc\xav_data.h **** 	coords_pair_t topleft,
  87:C:\Users\xavie\Cegep\Processeurs\HeroOrZero\inc\xav_data.h **** 				botright;
  88:C:\Users\xavie\Cegep\Processeurs\HeroOrZero\inc\xav_data.h **** }rectangle_t;
  89:C:\Users\xavie\Cegep\Processeurs\HeroOrZero\inc\xav_data.h **** 
  90:C:\Users\xavie\Cegep\Processeurs\HeroOrZero\inc\xav_data.h **** struct resources_t{
  91:C:\Users\xavie\Cegep\Processeurs\HeroOrZero\inc\xav_data.h **** 	uint32_t food;
  92:C:\Users\xavie\Cegep\Processeurs\HeroOrZero\inc\xav_data.h **** 	uint32_t wood;
  93:C:\Users\xavie\Cegep\Processeurs\HeroOrZero\inc\xav_data.h **** 	uint32_t stone;
  94:C:\Users\xavie\Cegep\Processeurs\HeroOrZero\inc\xav_data.h **** 	uint32_t iron;
  95:C:\Users\xavie\Cegep\Processeurs\HeroOrZero\inc\xav_data.h **** 	uint32_t gold;
  96:C:\Users\xavie\Cegep\Processeurs\HeroOrZero\inc\xav_data.h **** 
  97:C:\Users\xavie\Cegep\Processeurs\HeroOrZero\inc\xav_data.h **** 	resources_t& operator+=(const resources_t& other){
  98:C:\Users\xavie\Cegep\Processeurs\HeroOrZero\inc\xav_data.h **** 		this->food += other.food;
  99:C:\Users\xavie\Cegep\Processeurs\HeroOrZero\inc\xav_data.h **** 		this->wood += other.wood;
 100:C:\Users\xavie\Cegep\Processeurs\HeroOrZero\inc\xav_data.h **** 		this->stone += other.stone;
 101:C:\Users\xavie\Cegep\Processeurs\HeroOrZero\inc\xav_data.h **** 		this->iron += other.iron;
 102:C:\Users\xavie\Cegep\Processeurs\HeroOrZero\inc\xav_data.h **** 		this->gold += other.gold;
 103:C:\Users\xavie\Cegep\Processeurs\HeroOrZero\inc\xav_data.h **** 
 104:C:\Users\xavie\Cegep\Processeurs\HeroOrZero\inc\xav_data.h **** 		return *this;
 105:C:\Users\xavie\Cegep\Processeurs\HeroOrZero\inc\xav_data.h **** 	}
 106:C:\Users\xavie\Cegep\Processeurs\HeroOrZero\inc\xav_data.h **** 	resources_t& operator-=(const resources_t& other){
 107:C:\Users\xavie\Cegep\Processeurs\HeroOrZero\inc\xav_data.h **** 		this->food -= other.food;
 108:C:\Users\xavie\Cegep\Processeurs\HeroOrZero\inc\xav_data.h **** 		this->wood -= other.wood;
 109:C:\Users\xavie\Cegep\Processeurs\HeroOrZero\inc\xav_data.h **** 		this->stone -= other.stone;
ARM GAS  C:\Users\xavie\AppData\Local\Temp\ccbd98DL.s 			page 16


 110:C:\Users\xavie\Cegep\Processeurs\HeroOrZero\inc\xav_data.h **** 		this->iron -= other.iron;
 111:C:\Users\xavie\Cegep\Processeurs\HeroOrZero\inc\xav_data.h **** 		this->gold -= other.gold;
 112:C:\Users\xavie\Cegep\Processeurs\HeroOrZero\inc\xav_data.h **** 
 113:C:\Users\xavie\Cegep\Processeurs\HeroOrZero\inc\xav_data.h **** 		return *this;
 114:C:\Users\xavie\Cegep\Processeurs\HeroOrZero\inc\xav_data.h **** 	}
 115:C:\Users\xavie\Cegep\Processeurs\HeroOrZero\inc\xav_data.h **** 	bool operator<(const resources_t other) const{
 116:C:\Users\xavie\Cegep\Processeurs\HeroOrZero\inc\xav_data.h **** 		if(this->food > other.food) return false;
 117:C:\Users\xavie\Cegep\Processeurs\HeroOrZero\inc\xav_data.h **** 		if(this->wood > other.wood) return false;
 118:C:\Users\xavie\Cegep\Processeurs\HeroOrZero\inc\xav_data.h **** 		if(this->stone > other.stone) return false;
 119:C:\Users\xavie\Cegep\Processeurs\HeroOrZero\inc\xav_data.h **** 		if(this->iron > other.iron) return false;
 120:C:\Users\xavie\Cegep\Processeurs\HeroOrZero\inc\xav_data.h **** 		if(this->gold > other.gold) return false;
 121:C:\Users\xavie\Cegep\Processeurs\HeroOrZero\inc\xav_data.h **** 
 122:C:\Users\xavie\Cegep\Processeurs\HeroOrZero\inc\xav_data.h **** 		return true;
 123:C:\Users\xavie\Cegep\Processeurs\HeroOrZero\inc\xav_data.h **** 	}
 124:C:\Users\xavie\Cegep\Processeurs\HeroOrZero\inc\xav_data.h **** 	bool operator!=(const resources_t& other) const{
 125:C:\Users\xavie\Cegep\Processeurs\HeroOrZero\inc\xav_data.h **** 		if(this->food != other.food) return true;
 126:C:\Users\xavie\Cegep\Processeurs\HeroOrZero\inc\xav_data.h **** 		if(this->wood != other.wood) return true;
 127:C:\Users\xavie\Cegep\Processeurs\HeroOrZero\inc\xav_data.h **** 		if(this->stone != other.stone) return true;
 128:C:\Users\xavie\Cegep\Processeurs\HeroOrZero\inc\xav_data.h **** 		if(this->iron != other.iron) return true;
 129:C:\Users\xavie\Cegep\Processeurs\HeroOrZero\inc\xav_data.h **** 		if(this->gold != other.gold) return true;
 130:C:\Users\xavie\Cegep\Processeurs\HeroOrZero\inc\xav_data.h **** 
 131:C:\Users\xavie\Cegep\Processeurs\HeroOrZero\inc\xav_data.h **** 		return false;
 132:C:\Users\xavie\Cegep\Processeurs\HeroOrZero\inc\xav_data.h **** 	}
 133:C:\Users\xavie\Cegep\Processeurs\HeroOrZero\inc\xav_data.h **** 	resources_t& operator*=(uint16_t mul){
 134:C:\Users\xavie\Cegep\Processeurs\HeroOrZero\inc\xav_data.h **** 		this->food *= mul;
 135:C:\Users\xavie\Cegep\Processeurs\HeroOrZero\inc\xav_data.h **** 		this->wood *= mul;
 136:C:\Users\xavie\Cegep\Processeurs\HeroOrZero\inc\xav_data.h **** 		this->stone *= mul;
 137:C:\Users\xavie\Cegep\Processeurs\HeroOrZero\inc\xav_data.h **** 		this->iron *= mul;
 138:C:\Users\xavie\Cegep\Processeurs\HeroOrZero\inc\xav_data.h **** 		this->gold *= mul;
 139:C:\Users\xavie\Cegep\Processeurs\HeroOrZero\inc\xav_data.h **** 
 140:C:\Users\xavie\Cegep\Processeurs\HeroOrZero\inc\xav_data.h **** 		return *this;
 141:C:\Users\xavie\Cegep\Processeurs\HeroOrZero\inc\xav_data.h **** 	}
 142:C:\Users\xavie\Cegep\Processeurs\HeroOrZero\inc\xav_data.h **** 
 143:C:\Users\xavie\Cegep\Processeurs\HeroOrZero\inc\xav_data.h **** };
 144:C:\Users\xavie\Cegep\Processeurs\HeroOrZero\inc\xav_data.h **** 
 145:C:\Users\xavie\Cegep\Processeurs\HeroOrZero\inc\xav_data.h **** typedef struct{
 146:C:\Users\xavie\Cegep\Processeurs\HeroOrZero\inc\xav_data.h **** uint8_t level;
 147:C:\Users\xavie\Cegep\Processeurs\HeroOrZero\inc\xav_data.h **** tile_asset_e type;
 148:C:\Users\xavie\Cegep\Processeurs\HeroOrZero\inc\xav_data.h **** coords_pair_t coords;
 149:C:\Users\xavie\Cegep\Processeurs\HeroOrZero\inc\xav_data.h **** }save_build_t;
 150:C:\Users\xavie\Cegep\Processeurs\HeroOrZero\inc\xav_data.h **** 
 151:C:\Users\xavie\Cegep\Processeurs\HeroOrZero\inc\xav_data.h **** typedef struct{
 152:C:\Users\xavie\Cegep\Processeurs\HeroOrZero\inc\xav_data.h **** char saveName[8];
 153:C:\Users\xavie\Cegep\Processeurs\HeroOrZero\inc\xav_data.h **** resources_t Resources;
 154:C:\Users\xavie\Cegep\Processeurs\HeroOrZero\inc\xav_data.h **** resources_t Prod;
 155:C:\Users\xavie\Cegep\Processeurs\HeroOrZero\inc\xav_data.h **** uint8_t nbOfBuilds = 0;
 156:C:\Users\xavie\Cegep\Processeurs\HeroOrZero\inc\xav_data.h **** save_build_t mapBuilds[16];
 157:C:\Users\xavie\Cegep\Processeurs\HeroOrZero\inc\xav_data.h **** }save_cell_t;
 460              		.loc 4 157 0
 461              		.cfi_startproc
 462              		@ args = 0, pretend = 0, frame = 8
 463              		@ frame_needed = 1, uses_anonymous_args = 0
 464              		@ link register save eliminated.
 465 0000 80B4     		push	{r7}
 466              		.cfi_def_cfa_offset 4
 467              		.cfi_offset 7, -4
 468 0002 83B0     		sub	sp, sp, #12
ARM GAS  C:\Users\xavie\AppData\Local\Temp\ccbd98DL.s 			page 17


 469              		.cfi_def_cfa_offset 16
 470 0004 00AF     		add	r7, sp, #0
 471              		.cfi_def_cfa_register 7
 472 0006 7860     		str	r0, [r7, #4]
 473              	.LBB6:
 474              		.loc 4 157 0
 475 0008 7B68     		ldr	r3, [r7, #4]
 476 000a 0022     		movs	r2, #0
 477 000c 83F83020 		strb	r2, [r3, #48]
 478              	.LBE6:
 479 0010 7B68     		ldr	r3, [r7, #4]
 480 0012 1846     		mov	r0, r3
 481 0014 0C37     		adds	r7, r7, #12
 482              		.cfi_def_cfa_offset 4
 483 0016 BD46     		mov	sp, r7
 484              		.cfi_def_cfa_register 13
 485              		@ sp needed
 486 0018 80BC     		pop	{r7}
 487              		.cfi_restore 7
 488              		.cfi_def_cfa_offset 0
 489 001a 7047     		bx	lr
 490              		.cfi_endproc
 491              	.LFE1563:
 493              		.weak	_ZN11save_cell_tC1Ev
 494              		.thumb_set _ZN11save_cell_tC1Ev,_ZN11save_cell_tC2Ev
 495              		.section	.rodata
 496              		.align	2
 497              	.LC0:
 498 0000 536C6F74 		.ascii	"Slot 1\000"
 498      203100
 499 0007 536C6F74 		.ascii	"Slot 2\000"
 499      203200
 500 000e 536C6F74 		.ascii	"Slot 3\000"
 500      203300
 501 0015 536C6F74 		.ascii	"Slot 4\000"
 501      203400
 502              		.section	.text._ZN11SaveManagerC2Ev,"axG",%progbits,_ZN11SaveManagerC5Ev,comdat
 503              		.align	1
 504              		.weak	_ZN11SaveManagerC2Ev
 505              		.syntax unified
 506              		.thumb
 507              		.thumb_func
 508              		.fpu softvfp
 510              	_ZN11SaveManagerC2Ev:
 511              	.LFB1565:
   8:C:\Users\xavie\Cegep\Processeurs\HeroOrZero\inc\savemanager.h **** 	UserInterface * GUI = nullptr;
 512              		.loc 3 8 0
 513              		.cfi_startproc
 514              		@ args = 0, pretend = 0, frame = 8
 515              		@ frame_needed = 1, uses_anonymous_args = 0
 516 0000 B0B5     		push	{r4, r5, r7, lr}
 517              		.cfi_def_cfa_offset 16
 518              		.cfi_offset 4, -16
 519              		.cfi_offset 5, -12
 520              		.cfi_offset 7, -8
 521              		.cfi_offset 14, -4
 522 0002 82B0     		sub	sp, sp, #8
ARM GAS  C:\Users\xavie\AppData\Local\Temp\ccbd98DL.s 			page 18


 523              		.cfi_def_cfa_offset 24
 524 0004 00AF     		add	r7, sp, #0
 525              		.cfi_def_cfa_register 7
 526 0006 7860     		str	r0, [r7, #4]
 527              	.LBB7:
   8:C:\Users\xavie\Cegep\Processeurs\HeroOrZero\inc\savemanager.h **** 	UserInterface * GUI = nullptr;
 528              		.loc 3 8 0
 529 0008 7B68     		ldr	r3, [r7, #4]
 530 000a 1846     		mov	r0, r3
 531 000c FFF7FEFF 		bl	_ZN9IInteractC2Ev
 532 0010 7B68     		ldr	r3, [r7, #4]
 533 0012 1033     		adds	r3, r3, #16
 534 0014 1846     		mov	r0, r3
 535 0016 FFF7FEFF 		bl	_ZN7IUpdateC2Ev
 536 001a 0F4A     		ldr	r2, .L27
 537 001c 7B68     		ldr	r3, [r7, #4]
 538 001e 1A60     		str	r2, [r3]
 539 0020 0E4A     		ldr	r2, .L27+4
 540 0022 7B68     		ldr	r3, [r7, #4]
 541 0024 1A61     		str	r2, [r3, #16]
 542 0026 7B68     		ldr	r3, [r7, #4]
 543 0028 0022     		movs	r2, #0
 544 002a 5A61     		str	r2, [r3, #20]
 545 002c 7B68     		ldr	r3, [r7, #4]
 546 002e 0C4A     		ldr	r2, .L27+8
 547 0030 03F13C04 		add	r4, r3, #60
 548 0034 1546     		mov	r5, r2
 549 0036 0FCD     		ldmia	r5!, {r0, r1, r2, r3}
 550 0038 0FC4     		stmia	r4!, {r0, r1, r2, r3}
 551 003a 95E80700 		ldm	r5, {r0, r1, r2}
 552 003e 84E80700 		stm	r4, {r0, r1, r2}
 553 0042 7B68     		ldr	r3, [r7, #4]
 554 0044 5C33     		adds	r3, r3, #92
 555 0046 1846     		mov	r0, r3
 556 0048 FFF7FEFF 		bl	_ZN11save_cell_tC1Ev
 557              	.LBE7:
 558 004c 7B68     		ldr	r3, [r7, #4]
 559 004e 1846     		mov	r0, r3
 560 0050 0837     		adds	r7, r7, #8
 561              		.cfi_def_cfa_offset 16
 562 0052 BD46     		mov	sp, r7
 563              		.cfi_def_cfa_register 13
 564              		@ sp needed
 565 0054 B0BD     		pop	{r4, r5, r7, pc}
 566              	.L28:
 567 0056 00BF     		.align	2
 568              	.L27:
 569 0058 08000000 		.word	_ZTV11SaveManager+8
 570 005c 20000000 		.word	_ZTV11SaveManager+32
 571 0060 00000000 		.word	.LC0
 572              		.cfi_endproc
 573              	.LFE1565:
 575              		.weak	_ZN11SaveManagerC1Ev
 576              		.thumb_set _ZN11SaveManagerC1Ev,_ZN11SaveManagerC2Ev
 577              		.global	_ZN4Game11SaveHandlerE
 578              		.section	.bss._ZN4Game11SaveHandlerE,"aw",%nobits
 579              		.align	2
ARM GAS  C:\Users\xavie\AppData\Local\Temp\ccbd98DL.s 			page 19


 582              	_ZN4Game11SaveHandlerE:
 583 0000 00000000 		.space	240
 583      00000000 
 583      00000000 
 583      00000000 
 583      00000000 
 584              		.section	.text._ZSt7forwardIRhEOT_RNSt16remove_referenceIS1_E4typeE,"axG",%progbits,_ZSt7forwardIR
 585              		.align	1
 586              		.weak	_ZSt7forwardIRhEOT_RNSt16remove_referenceIS1_E4typeE
 587              		.syntax unified
 588              		.thumb
 589              		.thumb_func
 590              		.fpu softvfp
 592              	_ZSt7forwardIRhEOT_RNSt16remove_referenceIS1_E4typeE:
 593              	.LFB1581:
 594              		.file 5 "c:\\nxp\\mcuxpressoide_10.2.1_795\\ide\\tools\\arm-none-eabi\\include\\c++\\7.2.1\\bits\\
   1:c:\nxp\mcuxpressoide_10.2.1_795\ide\tools\arm-none-eabi\include\c++\7.2.1\bits\move.h **** // Move, forward and identity for C++11 + swap -*- C++ -*-
   2:c:\nxp\mcuxpressoide_10.2.1_795\ide\tools\arm-none-eabi\include\c++\7.2.1\bits\move.h **** 
   3:c:\nxp\mcuxpressoide_10.2.1_795\ide\tools\arm-none-eabi\include\c++\7.2.1\bits\move.h **** // Copyright (C) 2007-2017 Free Software Foundation, Inc.
   4:c:\nxp\mcuxpressoide_10.2.1_795\ide\tools\arm-none-eabi\include\c++\7.2.1\bits\move.h **** //
   5:c:\nxp\mcuxpressoide_10.2.1_795\ide\tools\arm-none-eabi\include\c++\7.2.1\bits\move.h **** // This file is part of the GNU ISO C++ Library.  This library is free
   6:c:\nxp\mcuxpressoide_10.2.1_795\ide\tools\arm-none-eabi\include\c++\7.2.1\bits\move.h **** // software; you can redistribute it and/or modify it under the
   7:c:\nxp\mcuxpressoide_10.2.1_795\ide\tools\arm-none-eabi\include\c++\7.2.1\bits\move.h **** // terms of the GNU General Public License as published by the
   8:c:\nxp\mcuxpressoide_10.2.1_795\ide\tools\arm-none-eabi\include\c++\7.2.1\bits\move.h **** // Free Software Foundation; either version 3, or (at your option)
   9:c:\nxp\mcuxpressoide_10.2.1_795\ide\tools\arm-none-eabi\include\c++\7.2.1\bits\move.h **** // any later version.
  10:c:\nxp\mcuxpressoide_10.2.1_795\ide\tools\arm-none-eabi\include\c++\7.2.1\bits\move.h **** 
  11:c:\nxp\mcuxpressoide_10.2.1_795\ide\tools\arm-none-eabi\include\c++\7.2.1\bits\move.h **** // This library is distributed in the hope that it will be useful,
  12:c:\nxp\mcuxpressoide_10.2.1_795\ide\tools\arm-none-eabi\include\c++\7.2.1\bits\move.h **** // but WITHOUT ANY WARRANTY; without even the implied warranty of
  13:c:\nxp\mcuxpressoide_10.2.1_795\ide\tools\arm-none-eabi\include\c++\7.2.1\bits\move.h **** // MERCHANTABILITY or FITNESS FOR A PARTICULAR PURPOSE.  See the
  14:c:\nxp\mcuxpressoide_10.2.1_795\ide\tools\arm-none-eabi\include\c++\7.2.1\bits\move.h **** // GNU General Public License for more details.
  15:c:\nxp\mcuxpressoide_10.2.1_795\ide\tools\arm-none-eabi\include\c++\7.2.1\bits\move.h **** 
  16:c:\nxp\mcuxpressoide_10.2.1_795\ide\tools\arm-none-eabi\include\c++\7.2.1\bits\move.h **** // Under Section 7 of GPL version 3, you are granted additional
  17:c:\nxp\mcuxpressoide_10.2.1_795\ide\tools\arm-none-eabi\include\c++\7.2.1\bits\move.h **** // permissions described in the GCC Runtime Library Exception, version
  18:c:\nxp\mcuxpressoide_10.2.1_795\ide\tools\arm-none-eabi\include\c++\7.2.1\bits\move.h **** // 3.1, as published by the Free Software Foundation.
  19:c:\nxp\mcuxpressoide_10.2.1_795\ide\tools\arm-none-eabi\include\c++\7.2.1\bits\move.h **** 
  20:c:\nxp\mcuxpressoide_10.2.1_795\ide\tools\arm-none-eabi\include\c++\7.2.1\bits\move.h **** // You should have received a copy of the GNU General Public License and
  21:c:\nxp\mcuxpressoide_10.2.1_795\ide\tools\arm-none-eabi\include\c++\7.2.1\bits\move.h **** // a copy of the GCC Runtime Library Exception along with this program;
  22:c:\nxp\mcuxpressoide_10.2.1_795\ide\tools\arm-none-eabi\include\c++\7.2.1\bits\move.h **** // see the files COPYING3 and COPYING.RUNTIME respectively.  If not, see
  23:c:\nxp\mcuxpressoide_10.2.1_795\ide\tools\arm-none-eabi\include\c++\7.2.1\bits\move.h **** // <http://www.gnu.org/licenses/>.
  24:c:\nxp\mcuxpressoide_10.2.1_795\ide\tools\arm-none-eabi\include\c++\7.2.1\bits\move.h **** 
  25:c:\nxp\mcuxpressoide_10.2.1_795\ide\tools\arm-none-eabi\include\c++\7.2.1\bits\move.h **** /** @file bits/move.h
  26:c:\nxp\mcuxpressoide_10.2.1_795\ide\tools\arm-none-eabi\include\c++\7.2.1\bits\move.h ****  *  This is an internal header file, included by other library headers.
  27:c:\nxp\mcuxpressoide_10.2.1_795\ide\tools\arm-none-eabi\include\c++\7.2.1\bits\move.h ****  *  Do not attempt to use it directly. @headername{utility}
  28:c:\nxp\mcuxpressoide_10.2.1_795\ide\tools\arm-none-eabi\include\c++\7.2.1\bits\move.h ****  */
  29:c:\nxp\mcuxpressoide_10.2.1_795\ide\tools\arm-none-eabi\include\c++\7.2.1\bits\move.h **** 
  30:c:\nxp\mcuxpressoide_10.2.1_795\ide\tools\arm-none-eabi\include\c++\7.2.1\bits\move.h **** #ifndef _MOVE_H
  31:c:\nxp\mcuxpressoide_10.2.1_795\ide\tools\arm-none-eabi\include\c++\7.2.1\bits\move.h **** #define _MOVE_H 1
  32:c:\nxp\mcuxpressoide_10.2.1_795\ide\tools\arm-none-eabi\include\c++\7.2.1\bits\move.h **** 
  33:c:\nxp\mcuxpressoide_10.2.1_795\ide\tools\arm-none-eabi\include\c++\7.2.1\bits\move.h **** #include <bits/c++config.h>
  34:c:\nxp\mcuxpressoide_10.2.1_795\ide\tools\arm-none-eabi\include\c++\7.2.1\bits\move.h **** #include <bits/concept_check.h>
  35:c:\nxp\mcuxpressoide_10.2.1_795\ide\tools\arm-none-eabi\include\c++\7.2.1\bits\move.h **** 
  36:c:\nxp\mcuxpressoide_10.2.1_795\ide\tools\arm-none-eabi\include\c++\7.2.1\bits\move.h **** namespace std _GLIBCXX_VISIBILITY(default)
  37:c:\nxp\mcuxpressoide_10.2.1_795\ide\tools\arm-none-eabi\include\c++\7.2.1\bits\move.h **** {
  38:c:\nxp\mcuxpressoide_10.2.1_795\ide\tools\arm-none-eabi\include\c++\7.2.1\bits\move.h **** _GLIBCXX_BEGIN_NAMESPACE_VERSION
  39:c:\nxp\mcuxpressoide_10.2.1_795\ide\tools\arm-none-eabi\include\c++\7.2.1\bits\move.h **** 
  40:c:\nxp\mcuxpressoide_10.2.1_795\ide\tools\arm-none-eabi\include\c++\7.2.1\bits\move.h ****   // Used, in C++03 mode too, by allocators, etc.
  41:c:\nxp\mcuxpressoide_10.2.1_795\ide\tools\arm-none-eabi\include\c++\7.2.1\bits\move.h ****   /**
ARM GAS  C:\Users\xavie\AppData\Local\Temp\ccbd98DL.s 			page 20


  42:c:\nxp\mcuxpressoide_10.2.1_795\ide\tools\arm-none-eabi\include\c++\7.2.1\bits\move.h ****    *  @brief Same as C++11 std::addressof
  43:c:\nxp\mcuxpressoide_10.2.1_795\ide\tools\arm-none-eabi\include\c++\7.2.1\bits\move.h ****    *  @ingroup utilities
  44:c:\nxp\mcuxpressoide_10.2.1_795\ide\tools\arm-none-eabi\include\c++\7.2.1\bits\move.h ****    */
  45:c:\nxp\mcuxpressoide_10.2.1_795\ide\tools\arm-none-eabi\include\c++\7.2.1\bits\move.h ****   template<typename _Tp>
  46:c:\nxp\mcuxpressoide_10.2.1_795\ide\tools\arm-none-eabi\include\c++\7.2.1\bits\move.h ****     inline _GLIBCXX_CONSTEXPR _Tp*
  47:c:\nxp\mcuxpressoide_10.2.1_795\ide\tools\arm-none-eabi\include\c++\7.2.1\bits\move.h ****     __addressof(_Tp& __r) _GLIBCXX_NOEXCEPT
  48:c:\nxp\mcuxpressoide_10.2.1_795\ide\tools\arm-none-eabi\include\c++\7.2.1\bits\move.h ****     { return __builtin_addressof(__r); }
  49:c:\nxp\mcuxpressoide_10.2.1_795\ide\tools\arm-none-eabi\include\c++\7.2.1\bits\move.h **** 
  50:c:\nxp\mcuxpressoide_10.2.1_795\ide\tools\arm-none-eabi\include\c++\7.2.1\bits\move.h **** _GLIBCXX_END_NAMESPACE_VERSION
  51:c:\nxp\mcuxpressoide_10.2.1_795\ide\tools\arm-none-eabi\include\c++\7.2.1\bits\move.h **** } // namespace
  52:c:\nxp\mcuxpressoide_10.2.1_795\ide\tools\arm-none-eabi\include\c++\7.2.1\bits\move.h **** 
  53:c:\nxp\mcuxpressoide_10.2.1_795\ide\tools\arm-none-eabi\include\c++\7.2.1\bits\move.h **** #if __cplusplus >= 201103L
  54:c:\nxp\mcuxpressoide_10.2.1_795\ide\tools\arm-none-eabi\include\c++\7.2.1\bits\move.h **** #include <type_traits> // Brings in std::declval too.
  55:c:\nxp\mcuxpressoide_10.2.1_795\ide\tools\arm-none-eabi\include\c++\7.2.1\bits\move.h **** 
  56:c:\nxp\mcuxpressoide_10.2.1_795\ide\tools\arm-none-eabi\include\c++\7.2.1\bits\move.h **** namespace std _GLIBCXX_VISIBILITY(default)
  57:c:\nxp\mcuxpressoide_10.2.1_795\ide\tools\arm-none-eabi\include\c++\7.2.1\bits\move.h **** {
  58:c:\nxp\mcuxpressoide_10.2.1_795\ide\tools\arm-none-eabi\include\c++\7.2.1\bits\move.h **** _GLIBCXX_BEGIN_NAMESPACE_VERSION
  59:c:\nxp\mcuxpressoide_10.2.1_795\ide\tools\arm-none-eabi\include\c++\7.2.1\bits\move.h **** 
  60:c:\nxp\mcuxpressoide_10.2.1_795\ide\tools\arm-none-eabi\include\c++\7.2.1\bits\move.h ****   /**
  61:c:\nxp\mcuxpressoide_10.2.1_795\ide\tools\arm-none-eabi\include\c++\7.2.1\bits\move.h ****    *  @addtogroup utilities
  62:c:\nxp\mcuxpressoide_10.2.1_795\ide\tools\arm-none-eabi\include\c++\7.2.1\bits\move.h ****    *  @{
  63:c:\nxp\mcuxpressoide_10.2.1_795\ide\tools\arm-none-eabi\include\c++\7.2.1\bits\move.h ****    */
  64:c:\nxp\mcuxpressoide_10.2.1_795\ide\tools\arm-none-eabi\include\c++\7.2.1\bits\move.h **** 
  65:c:\nxp\mcuxpressoide_10.2.1_795\ide\tools\arm-none-eabi\include\c++\7.2.1\bits\move.h ****   /**
  66:c:\nxp\mcuxpressoide_10.2.1_795\ide\tools\arm-none-eabi\include\c++\7.2.1\bits\move.h ****    *  @brief  Forward an lvalue.
  67:c:\nxp\mcuxpressoide_10.2.1_795\ide\tools\arm-none-eabi\include\c++\7.2.1\bits\move.h ****    *  @return The parameter cast to the specified type.
  68:c:\nxp\mcuxpressoide_10.2.1_795\ide\tools\arm-none-eabi\include\c++\7.2.1\bits\move.h ****    *
  69:c:\nxp\mcuxpressoide_10.2.1_795\ide\tools\arm-none-eabi\include\c++\7.2.1\bits\move.h ****    *  This function is used to implement "perfect forwarding".
  70:c:\nxp\mcuxpressoide_10.2.1_795\ide\tools\arm-none-eabi\include\c++\7.2.1\bits\move.h ****    */
  71:c:\nxp\mcuxpressoide_10.2.1_795\ide\tools\arm-none-eabi\include\c++\7.2.1\bits\move.h ****   template<typename _Tp>
  72:c:\nxp\mcuxpressoide_10.2.1_795\ide\tools\arm-none-eabi\include\c++\7.2.1\bits\move.h ****     constexpr _Tp&&
  73:c:\nxp\mcuxpressoide_10.2.1_795\ide\tools\arm-none-eabi\include\c++\7.2.1\bits\move.h ****     forward(typename std::remove_reference<_Tp>::type& __t) noexcept
 595              		.loc 5 73 0
 596              		.cfi_startproc
 597              		@ args = 0, pretend = 0, frame = 8
 598              		@ frame_needed = 1, uses_anonymous_args = 0
 599              		@ link register save eliminated.
 600 0000 80B4     		push	{r7}
 601              		.cfi_def_cfa_offset 4
 602              		.cfi_offset 7, -4
 603 0002 83B0     		sub	sp, sp, #12
 604              		.cfi_def_cfa_offset 16
 605 0004 00AF     		add	r7, sp, #0
 606              		.cfi_def_cfa_register 7
 607 0006 7860     		str	r0, [r7, #4]
  74:c:\nxp\mcuxpressoide_10.2.1_795\ide\tools\arm-none-eabi\include\c++\7.2.1\bits\move.h ****     { return static_cast<_Tp&&>(__t); }
 608              		.loc 5 74 0
 609 0008 7B68     		ldr	r3, [r7, #4]
 610 000a 1846     		mov	r0, r3
 611 000c 0C37     		adds	r7, r7, #12
 612              		.cfi_def_cfa_offset 4
 613 000e BD46     		mov	sp, r7
 614              		.cfi_def_cfa_register 13
 615              		@ sp needed
 616 0010 80BC     		pop	{r7}
 617              		.cfi_restore 7
 618              		.cfi_def_cfa_offset 0
ARM GAS  C:\Users\xavie\AppData\Local\Temp\ccbd98DL.s 			page 21


 619 0012 7047     		bx	lr
 620              		.cfi_endproc
 621              	.LFE1581:
 623              		.section	.text._ZNSt4pairIhhEC1IRhS2_Lb1EEEOT_OT0_,"axG",%progbits,_ZNSt4pairIhhEC1IRhS2_Lb1EEEOT_
 624              		.align	1
 625              		.weak	_ZNSt4pairIhhEC1IRhS2_Lb1EEEOT_OT0_
 626              		.syntax unified
 627              		.thumb
 628              		.thumb_func
 629              		.fpu softvfp
 631              	_ZNSt4pairIhhEC1IRhS2_Lb1EEEOT_OT0_:
 632              	.LFB1584:
 633              		.file 6 "c:\\nxp\\mcuxpressoide_10.2.1_795\\ide\\tools\\arm-none-eabi\\include\\c++\\7.2.1\\bits\\
   1:c:\nxp\mcuxpressoide_10.2.1_795\ide\tools\arm-none-eabi\include\c++\7.2.1\bits\stl_pair.h **** // Pair implementation -*- C++ -*-
   2:c:\nxp\mcuxpressoide_10.2.1_795\ide\tools\arm-none-eabi\include\c++\7.2.1\bits\stl_pair.h **** 
   3:c:\nxp\mcuxpressoide_10.2.1_795\ide\tools\arm-none-eabi\include\c++\7.2.1\bits\stl_pair.h **** // Copyright (C) 2001-2017 Free Software Foundation, Inc.
   4:c:\nxp\mcuxpressoide_10.2.1_795\ide\tools\arm-none-eabi\include\c++\7.2.1\bits\stl_pair.h **** //
   5:c:\nxp\mcuxpressoide_10.2.1_795\ide\tools\arm-none-eabi\include\c++\7.2.1\bits\stl_pair.h **** // This file is part of the GNU ISO C++ Library.  This library is free
   6:c:\nxp\mcuxpressoide_10.2.1_795\ide\tools\arm-none-eabi\include\c++\7.2.1\bits\stl_pair.h **** // software; you can redistribute it and/or modify it under the
   7:c:\nxp\mcuxpressoide_10.2.1_795\ide\tools\arm-none-eabi\include\c++\7.2.1\bits\stl_pair.h **** // terms of the GNU General Public License as published by the
   8:c:\nxp\mcuxpressoide_10.2.1_795\ide\tools\arm-none-eabi\include\c++\7.2.1\bits\stl_pair.h **** // Free Software Foundation; either version 3, or (at your option)
   9:c:\nxp\mcuxpressoide_10.2.1_795\ide\tools\arm-none-eabi\include\c++\7.2.1\bits\stl_pair.h **** // any later version.
  10:c:\nxp\mcuxpressoide_10.2.1_795\ide\tools\arm-none-eabi\include\c++\7.2.1\bits\stl_pair.h **** 
  11:c:\nxp\mcuxpressoide_10.2.1_795\ide\tools\arm-none-eabi\include\c++\7.2.1\bits\stl_pair.h **** // This library is distributed in the hope that it will be useful,
  12:c:\nxp\mcuxpressoide_10.2.1_795\ide\tools\arm-none-eabi\include\c++\7.2.1\bits\stl_pair.h **** // but WITHOUT ANY WARRANTY; without even the implied warranty of
  13:c:\nxp\mcuxpressoide_10.2.1_795\ide\tools\arm-none-eabi\include\c++\7.2.1\bits\stl_pair.h **** // MERCHANTABILITY or FITNESS FOR A PARTICULAR PURPOSE.  See the
  14:c:\nxp\mcuxpressoide_10.2.1_795\ide\tools\arm-none-eabi\include\c++\7.2.1\bits\stl_pair.h **** // GNU General Public License for more details.
  15:c:\nxp\mcuxpressoide_10.2.1_795\ide\tools\arm-none-eabi\include\c++\7.2.1\bits\stl_pair.h **** 
  16:c:\nxp\mcuxpressoide_10.2.1_795\ide\tools\arm-none-eabi\include\c++\7.2.1\bits\stl_pair.h **** // Under Section 7 of GPL version 3, you are granted additional
  17:c:\nxp\mcuxpressoide_10.2.1_795\ide\tools\arm-none-eabi\include\c++\7.2.1\bits\stl_pair.h **** // permissions described in the GCC Runtime Library Exception, version
  18:c:\nxp\mcuxpressoide_10.2.1_795\ide\tools\arm-none-eabi\include\c++\7.2.1\bits\stl_pair.h **** // 3.1, as published by the Free Software Foundation.
  19:c:\nxp\mcuxpressoide_10.2.1_795\ide\tools\arm-none-eabi\include\c++\7.2.1\bits\stl_pair.h **** 
  20:c:\nxp\mcuxpressoide_10.2.1_795\ide\tools\arm-none-eabi\include\c++\7.2.1\bits\stl_pair.h **** // You should have received a copy of the GNU General Public License and
  21:c:\nxp\mcuxpressoide_10.2.1_795\ide\tools\arm-none-eabi\include\c++\7.2.1\bits\stl_pair.h **** // a copy of the GCC Runtime Library Exception along with this program;
  22:c:\nxp\mcuxpressoide_10.2.1_795\ide\tools\arm-none-eabi\include\c++\7.2.1\bits\stl_pair.h **** // see the files COPYING3 and COPYING.RUNTIME respectively.  If not, see
  23:c:\nxp\mcuxpressoide_10.2.1_795\ide\tools\arm-none-eabi\include\c++\7.2.1\bits\stl_pair.h **** // <http://www.gnu.org/licenses/>.
  24:c:\nxp\mcuxpressoide_10.2.1_795\ide\tools\arm-none-eabi\include\c++\7.2.1\bits\stl_pair.h **** 
  25:c:\nxp\mcuxpressoide_10.2.1_795\ide\tools\arm-none-eabi\include\c++\7.2.1\bits\stl_pair.h **** /*
  26:c:\nxp\mcuxpressoide_10.2.1_795\ide\tools\arm-none-eabi\include\c++\7.2.1\bits\stl_pair.h ****  *
  27:c:\nxp\mcuxpressoide_10.2.1_795\ide\tools\arm-none-eabi\include\c++\7.2.1\bits\stl_pair.h ****  * Copyright (c) 1994
  28:c:\nxp\mcuxpressoide_10.2.1_795\ide\tools\arm-none-eabi\include\c++\7.2.1\bits\stl_pair.h ****  * Hewlett-Packard Company
  29:c:\nxp\mcuxpressoide_10.2.1_795\ide\tools\arm-none-eabi\include\c++\7.2.1\bits\stl_pair.h ****  *
  30:c:\nxp\mcuxpressoide_10.2.1_795\ide\tools\arm-none-eabi\include\c++\7.2.1\bits\stl_pair.h ****  * Permission to use, copy, modify, distribute and sell this software
  31:c:\nxp\mcuxpressoide_10.2.1_795\ide\tools\arm-none-eabi\include\c++\7.2.1\bits\stl_pair.h ****  * and its documentation for any purpose is hereby granted without fee,
  32:c:\nxp\mcuxpressoide_10.2.1_795\ide\tools\arm-none-eabi\include\c++\7.2.1\bits\stl_pair.h ****  * provided that the above copyright notice appear in all copies and
  33:c:\nxp\mcuxpressoide_10.2.1_795\ide\tools\arm-none-eabi\include\c++\7.2.1\bits\stl_pair.h ****  * that both that copyright notice and this permission notice appear
  34:c:\nxp\mcuxpressoide_10.2.1_795\ide\tools\arm-none-eabi\include\c++\7.2.1\bits\stl_pair.h ****  * in supporting documentation.  Hewlett-Packard Company makes no
  35:c:\nxp\mcuxpressoide_10.2.1_795\ide\tools\arm-none-eabi\include\c++\7.2.1\bits\stl_pair.h ****  * representations about the suitability of this software for any
  36:c:\nxp\mcuxpressoide_10.2.1_795\ide\tools\arm-none-eabi\include\c++\7.2.1\bits\stl_pair.h ****  * purpose.  It is provided "as is" without express or implied warranty.
  37:c:\nxp\mcuxpressoide_10.2.1_795\ide\tools\arm-none-eabi\include\c++\7.2.1\bits\stl_pair.h ****  *
  38:c:\nxp\mcuxpressoide_10.2.1_795\ide\tools\arm-none-eabi\include\c++\7.2.1\bits\stl_pair.h ****  *
  39:c:\nxp\mcuxpressoide_10.2.1_795\ide\tools\arm-none-eabi\include\c++\7.2.1\bits\stl_pair.h ****  * Copyright (c) 1996,1997
  40:c:\nxp\mcuxpressoide_10.2.1_795\ide\tools\arm-none-eabi\include\c++\7.2.1\bits\stl_pair.h ****  * Silicon Graphics Computer Systems, Inc.
  41:c:\nxp\mcuxpressoide_10.2.1_795\ide\tools\arm-none-eabi\include\c++\7.2.1\bits\stl_pair.h ****  *
  42:c:\nxp\mcuxpressoide_10.2.1_795\ide\tools\arm-none-eabi\include\c++\7.2.1\bits\stl_pair.h ****  * Permission to use, copy, modify, distribute and sell this software
  43:c:\nxp\mcuxpressoide_10.2.1_795\ide\tools\arm-none-eabi\include\c++\7.2.1\bits\stl_pair.h ****  * and its documentation for any purpose is hereby granted without fee,
  44:c:\nxp\mcuxpressoide_10.2.1_795\ide\tools\arm-none-eabi\include\c++\7.2.1\bits\stl_pair.h ****  * provided that the above copyright notice appear in all copies and
ARM GAS  C:\Users\xavie\AppData\Local\Temp\ccbd98DL.s 			page 22


  45:c:\nxp\mcuxpressoide_10.2.1_795\ide\tools\arm-none-eabi\include\c++\7.2.1\bits\stl_pair.h ****  * that both that copyright notice and this permission notice appear
  46:c:\nxp\mcuxpressoide_10.2.1_795\ide\tools\arm-none-eabi\include\c++\7.2.1\bits\stl_pair.h ****  * in supporting documentation.  Silicon Graphics makes no
  47:c:\nxp\mcuxpressoide_10.2.1_795\ide\tools\arm-none-eabi\include\c++\7.2.1\bits\stl_pair.h ****  * representations about the suitability of this software for any
  48:c:\nxp\mcuxpressoide_10.2.1_795\ide\tools\arm-none-eabi\include\c++\7.2.1\bits\stl_pair.h ****  * purpose.  It is provided "as is" without express or implied warranty.
  49:c:\nxp\mcuxpressoide_10.2.1_795\ide\tools\arm-none-eabi\include\c++\7.2.1\bits\stl_pair.h ****  */
  50:c:\nxp\mcuxpressoide_10.2.1_795\ide\tools\arm-none-eabi\include\c++\7.2.1\bits\stl_pair.h **** 
  51:c:\nxp\mcuxpressoide_10.2.1_795\ide\tools\arm-none-eabi\include\c++\7.2.1\bits\stl_pair.h **** /** @file bits/stl_pair.h
  52:c:\nxp\mcuxpressoide_10.2.1_795\ide\tools\arm-none-eabi\include\c++\7.2.1\bits\stl_pair.h ****  *  This is an internal header file, included by other library headers.
  53:c:\nxp\mcuxpressoide_10.2.1_795\ide\tools\arm-none-eabi\include\c++\7.2.1\bits\stl_pair.h ****  *  Do not attempt to use it directly. @headername{utility}
  54:c:\nxp\mcuxpressoide_10.2.1_795\ide\tools\arm-none-eabi\include\c++\7.2.1\bits\stl_pair.h ****  */
  55:c:\nxp\mcuxpressoide_10.2.1_795\ide\tools\arm-none-eabi\include\c++\7.2.1\bits\stl_pair.h **** 
  56:c:\nxp\mcuxpressoide_10.2.1_795\ide\tools\arm-none-eabi\include\c++\7.2.1\bits\stl_pair.h **** #ifndef _STL_PAIR_H
  57:c:\nxp\mcuxpressoide_10.2.1_795\ide\tools\arm-none-eabi\include\c++\7.2.1\bits\stl_pair.h **** #define _STL_PAIR_H 1
  58:c:\nxp\mcuxpressoide_10.2.1_795\ide\tools\arm-none-eabi\include\c++\7.2.1\bits\stl_pair.h **** 
  59:c:\nxp\mcuxpressoide_10.2.1_795\ide\tools\arm-none-eabi\include\c++\7.2.1\bits\stl_pair.h **** #include <bits/move.h> // for std::move / std::forward, and std::swap
  60:c:\nxp\mcuxpressoide_10.2.1_795\ide\tools\arm-none-eabi\include\c++\7.2.1\bits\stl_pair.h **** 
  61:c:\nxp\mcuxpressoide_10.2.1_795\ide\tools\arm-none-eabi\include\c++\7.2.1\bits\stl_pair.h **** #if __cplusplus >= 201103L
  62:c:\nxp\mcuxpressoide_10.2.1_795\ide\tools\arm-none-eabi\include\c++\7.2.1\bits\stl_pair.h **** #include <type_traits> // for std::__decay_and_strip too
  63:c:\nxp\mcuxpressoide_10.2.1_795\ide\tools\arm-none-eabi\include\c++\7.2.1\bits\stl_pair.h **** #endif
  64:c:\nxp\mcuxpressoide_10.2.1_795\ide\tools\arm-none-eabi\include\c++\7.2.1\bits\stl_pair.h **** 
  65:c:\nxp\mcuxpressoide_10.2.1_795\ide\tools\arm-none-eabi\include\c++\7.2.1\bits\stl_pair.h **** namespace std _GLIBCXX_VISIBILITY(default)
  66:c:\nxp\mcuxpressoide_10.2.1_795\ide\tools\arm-none-eabi\include\c++\7.2.1\bits\stl_pair.h **** {
  67:c:\nxp\mcuxpressoide_10.2.1_795\ide\tools\arm-none-eabi\include\c++\7.2.1\bits\stl_pair.h **** _GLIBCXX_BEGIN_NAMESPACE_VERSION
  68:c:\nxp\mcuxpressoide_10.2.1_795\ide\tools\arm-none-eabi\include\c++\7.2.1\bits\stl_pair.h **** 
  69:c:\nxp\mcuxpressoide_10.2.1_795\ide\tools\arm-none-eabi\include\c++\7.2.1\bits\stl_pair.h ****   /**
  70:c:\nxp\mcuxpressoide_10.2.1_795\ide\tools\arm-none-eabi\include\c++\7.2.1\bits\stl_pair.h ****    *  @addtogroup utilities
  71:c:\nxp\mcuxpressoide_10.2.1_795\ide\tools\arm-none-eabi\include\c++\7.2.1\bits\stl_pair.h ****    *  @{
  72:c:\nxp\mcuxpressoide_10.2.1_795\ide\tools\arm-none-eabi\include\c++\7.2.1\bits\stl_pair.h ****    */
  73:c:\nxp\mcuxpressoide_10.2.1_795\ide\tools\arm-none-eabi\include\c++\7.2.1\bits\stl_pair.h **** 
  74:c:\nxp\mcuxpressoide_10.2.1_795\ide\tools\arm-none-eabi\include\c++\7.2.1\bits\stl_pair.h **** #if __cplusplus >= 201103L
  75:c:\nxp\mcuxpressoide_10.2.1_795\ide\tools\arm-none-eabi\include\c++\7.2.1\bits\stl_pair.h ****   /// piecewise_construct_t
  76:c:\nxp\mcuxpressoide_10.2.1_795\ide\tools\arm-none-eabi\include\c++\7.2.1\bits\stl_pair.h ****   struct piecewise_construct_t { explicit piecewise_construct_t() = default; };
  77:c:\nxp\mcuxpressoide_10.2.1_795\ide\tools\arm-none-eabi\include\c++\7.2.1\bits\stl_pair.h **** 
  78:c:\nxp\mcuxpressoide_10.2.1_795\ide\tools\arm-none-eabi\include\c++\7.2.1\bits\stl_pair.h ****   /// piecewise_construct
  79:c:\nxp\mcuxpressoide_10.2.1_795\ide\tools\arm-none-eabi\include\c++\7.2.1\bits\stl_pair.h ****   _GLIBCXX17_INLINE constexpr piecewise_construct_t piecewise_construct =
  80:c:\nxp\mcuxpressoide_10.2.1_795\ide\tools\arm-none-eabi\include\c++\7.2.1\bits\stl_pair.h ****     piecewise_construct_t();
  81:c:\nxp\mcuxpressoide_10.2.1_795\ide\tools\arm-none-eabi\include\c++\7.2.1\bits\stl_pair.h **** 
  82:c:\nxp\mcuxpressoide_10.2.1_795\ide\tools\arm-none-eabi\include\c++\7.2.1\bits\stl_pair.h ****   // Forward declarations.
  83:c:\nxp\mcuxpressoide_10.2.1_795\ide\tools\arm-none-eabi\include\c++\7.2.1\bits\stl_pair.h ****   template<typename...>
  84:c:\nxp\mcuxpressoide_10.2.1_795\ide\tools\arm-none-eabi\include\c++\7.2.1\bits\stl_pair.h ****     class tuple;
  85:c:\nxp\mcuxpressoide_10.2.1_795\ide\tools\arm-none-eabi\include\c++\7.2.1\bits\stl_pair.h **** 
  86:c:\nxp\mcuxpressoide_10.2.1_795\ide\tools\arm-none-eabi\include\c++\7.2.1\bits\stl_pair.h ****   template<std::size_t...>
  87:c:\nxp\mcuxpressoide_10.2.1_795\ide\tools\arm-none-eabi\include\c++\7.2.1\bits\stl_pair.h ****     struct _Index_tuple;
  88:c:\nxp\mcuxpressoide_10.2.1_795\ide\tools\arm-none-eabi\include\c++\7.2.1\bits\stl_pair.h **** 
  89:c:\nxp\mcuxpressoide_10.2.1_795\ide\tools\arm-none-eabi\include\c++\7.2.1\bits\stl_pair.h ****   // Concept utility functions, reused in conditionally-explicit
  90:c:\nxp\mcuxpressoide_10.2.1_795\ide\tools\arm-none-eabi\include\c++\7.2.1\bits\stl_pair.h ****   // constructors.
  91:c:\nxp\mcuxpressoide_10.2.1_795\ide\tools\arm-none-eabi\include\c++\7.2.1\bits\stl_pair.h ****   // See PR 70437, don't look at is_constructible or
  92:c:\nxp\mcuxpressoide_10.2.1_795\ide\tools\arm-none-eabi\include\c++\7.2.1\bits\stl_pair.h ****   // is_convertible if the types are the same to
  93:c:\nxp\mcuxpressoide_10.2.1_795\ide\tools\arm-none-eabi\include\c++\7.2.1\bits\stl_pair.h ****   // avoid querying those properties for incomplete types.
  94:c:\nxp\mcuxpressoide_10.2.1_795\ide\tools\arm-none-eabi\include\c++\7.2.1\bits\stl_pair.h ****   template <bool, typename _T1, typename _T2>
  95:c:\nxp\mcuxpressoide_10.2.1_795\ide\tools\arm-none-eabi\include\c++\7.2.1\bits\stl_pair.h ****     struct _PCC
  96:c:\nxp\mcuxpressoide_10.2.1_795\ide\tools\arm-none-eabi\include\c++\7.2.1\bits\stl_pair.h ****     {
  97:c:\nxp\mcuxpressoide_10.2.1_795\ide\tools\arm-none-eabi\include\c++\7.2.1\bits\stl_pair.h ****       template <typename _U1, typename _U2>
  98:c:\nxp\mcuxpressoide_10.2.1_795\ide\tools\arm-none-eabi\include\c++\7.2.1\bits\stl_pair.h ****       static constexpr bool _ConstructiblePair()
  99:c:\nxp\mcuxpressoide_10.2.1_795\ide\tools\arm-none-eabi\include\c++\7.2.1\bits\stl_pair.h ****       {
 100:c:\nxp\mcuxpressoide_10.2.1_795\ide\tools\arm-none-eabi\include\c++\7.2.1\bits\stl_pair.h **** 	return __and_<is_constructible<_T1, const _U1&>,
 101:c:\nxp\mcuxpressoide_10.2.1_795\ide\tools\arm-none-eabi\include\c++\7.2.1\bits\stl_pair.h **** 		      is_constructible<_T2, const _U2&>>::value;
ARM GAS  C:\Users\xavie\AppData\Local\Temp\ccbd98DL.s 			page 23


 102:c:\nxp\mcuxpressoide_10.2.1_795\ide\tools\arm-none-eabi\include\c++\7.2.1\bits\stl_pair.h ****       }
 103:c:\nxp\mcuxpressoide_10.2.1_795\ide\tools\arm-none-eabi\include\c++\7.2.1\bits\stl_pair.h **** 
 104:c:\nxp\mcuxpressoide_10.2.1_795\ide\tools\arm-none-eabi\include\c++\7.2.1\bits\stl_pair.h ****       template <typename _U1, typename _U2>
 105:c:\nxp\mcuxpressoide_10.2.1_795\ide\tools\arm-none-eabi\include\c++\7.2.1\bits\stl_pair.h ****       static constexpr bool _ImplicitlyConvertiblePair()
 106:c:\nxp\mcuxpressoide_10.2.1_795\ide\tools\arm-none-eabi\include\c++\7.2.1\bits\stl_pair.h ****       {
 107:c:\nxp\mcuxpressoide_10.2.1_795\ide\tools\arm-none-eabi\include\c++\7.2.1\bits\stl_pair.h **** 	return __and_<is_convertible<const _U1&, _T1>,
 108:c:\nxp\mcuxpressoide_10.2.1_795\ide\tools\arm-none-eabi\include\c++\7.2.1\bits\stl_pair.h **** 		      is_convertible<const _U2&, _T2>>::value;
 109:c:\nxp\mcuxpressoide_10.2.1_795\ide\tools\arm-none-eabi\include\c++\7.2.1\bits\stl_pair.h ****       }
 110:c:\nxp\mcuxpressoide_10.2.1_795\ide\tools\arm-none-eabi\include\c++\7.2.1\bits\stl_pair.h **** 
 111:c:\nxp\mcuxpressoide_10.2.1_795\ide\tools\arm-none-eabi\include\c++\7.2.1\bits\stl_pair.h ****       template <typename _U1, typename _U2>
 112:c:\nxp\mcuxpressoide_10.2.1_795\ide\tools\arm-none-eabi\include\c++\7.2.1\bits\stl_pair.h ****       static constexpr bool _MoveConstructiblePair()
 113:c:\nxp\mcuxpressoide_10.2.1_795\ide\tools\arm-none-eabi\include\c++\7.2.1\bits\stl_pair.h ****       {
 114:c:\nxp\mcuxpressoide_10.2.1_795\ide\tools\arm-none-eabi\include\c++\7.2.1\bits\stl_pair.h **** 	return __and_<is_constructible<_T1, _U1&&>,
 115:c:\nxp\mcuxpressoide_10.2.1_795\ide\tools\arm-none-eabi\include\c++\7.2.1\bits\stl_pair.h **** 		      is_constructible<_T2, _U2&&>>::value;
 116:c:\nxp\mcuxpressoide_10.2.1_795\ide\tools\arm-none-eabi\include\c++\7.2.1\bits\stl_pair.h ****       }
 117:c:\nxp\mcuxpressoide_10.2.1_795\ide\tools\arm-none-eabi\include\c++\7.2.1\bits\stl_pair.h **** 
 118:c:\nxp\mcuxpressoide_10.2.1_795\ide\tools\arm-none-eabi\include\c++\7.2.1\bits\stl_pair.h ****       template <typename _U1, typename _U2>
 119:c:\nxp\mcuxpressoide_10.2.1_795\ide\tools\arm-none-eabi\include\c++\7.2.1\bits\stl_pair.h ****       static constexpr bool _ImplicitlyMoveConvertiblePair()
 120:c:\nxp\mcuxpressoide_10.2.1_795\ide\tools\arm-none-eabi\include\c++\7.2.1\bits\stl_pair.h ****       {
 121:c:\nxp\mcuxpressoide_10.2.1_795\ide\tools\arm-none-eabi\include\c++\7.2.1\bits\stl_pair.h **** 	return __and_<is_convertible<_U1&&, _T1>,
 122:c:\nxp\mcuxpressoide_10.2.1_795\ide\tools\arm-none-eabi\include\c++\7.2.1\bits\stl_pair.h **** 		      is_convertible<_U2&&, _T2>>::value;
 123:c:\nxp\mcuxpressoide_10.2.1_795\ide\tools\arm-none-eabi\include\c++\7.2.1\bits\stl_pair.h ****       }
 124:c:\nxp\mcuxpressoide_10.2.1_795\ide\tools\arm-none-eabi\include\c++\7.2.1\bits\stl_pair.h **** 
 125:c:\nxp\mcuxpressoide_10.2.1_795\ide\tools\arm-none-eabi\include\c++\7.2.1\bits\stl_pair.h ****       template <bool __implicit, typename _U1, typename _U2>
 126:c:\nxp\mcuxpressoide_10.2.1_795\ide\tools\arm-none-eabi\include\c++\7.2.1\bits\stl_pair.h ****       static constexpr bool _CopyMovePair()
 127:c:\nxp\mcuxpressoide_10.2.1_795\ide\tools\arm-none-eabi\include\c++\7.2.1\bits\stl_pair.h ****       {
 128:c:\nxp\mcuxpressoide_10.2.1_795\ide\tools\arm-none-eabi\include\c++\7.2.1\bits\stl_pair.h **** 	using __do_converts = __and_<is_convertible<const _U1&, _T1>,
 129:c:\nxp\mcuxpressoide_10.2.1_795\ide\tools\arm-none-eabi\include\c++\7.2.1\bits\stl_pair.h **** 				  is_convertible<_U2&&, _T2>>;
 130:c:\nxp\mcuxpressoide_10.2.1_795\ide\tools\arm-none-eabi\include\c++\7.2.1\bits\stl_pair.h **** 	using __converts = typename conditional<__implicit,
 131:c:\nxp\mcuxpressoide_10.2.1_795\ide\tools\arm-none-eabi\include\c++\7.2.1\bits\stl_pair.h **** 				       __do_converts,
 132:c:\nxp\mcuxpressoide_10.2.1_795\ide\tools\arm-none-eabi\include\c++\7.2.1\bits\stl_pair.h **** 				       __not_<__do_converts>>::type;
 133:c:\nxp\mcuxpressoide_10.2.1_795\ide\tools\arm-none-eabi\include\c++\7.2.1\bits\stl_pair.h **** 	return __and_<is_constructible<_T1, const _U1&>,
 134:c:\nxp\mcuxpressoide_10.2.1_795\ide\tools\arm-none-eabi\include\c++\7.2.1\bits\stl_pair.h **** 		      is_constructible<_T2, _U2&&>,
 135:c:\nxp\mcuxpressoide_10.2.1_795\ide\tools\arm-none-eabi\include\c++\7.2.1\bits\stl_pair.h **** 		      __converts
 136:c:\nxp\mcuxpressoide_10.2.1_795\ide\tools\arm-none-eabi\include\c++\7.2.1\bits\stl_pair.h **** 		      >::value;
 137:c:\nxp\mcuxpressoide_10.2.1_795\ide\tools\arm-none-eabi\include\c++\7.2.1\bits\stl_pair.h ****       }
 138:c:\nxp\mcuxpressoide_10.2.1_795\ide\tools\arm-none-eabi\include\c++\7.2.1\bits\stl_pair.h **** 
 139:c:\nxp\mcuxpressoide_10.2.1_795\ide\tools\arm-none-eabi\include\c++\7.2.1\bits\stl_pair.h ****       template <bool __implicit, typename _U1, typename _U2>
 140:c:\nxp\mcuxpressoide_10.2.1_795\ide\tools\arm-none-eabi\include\c++\7.2.1\bits\stl_pair.h ****       static constexpr bool _MoveCopyPair()
 141:c:\nxp\mcuxpressoide_10.2.1_795\ide\tools\arm-none-eabi\include\c++\7.2.1\bits\stl_pair.h ****       {
 142:c:\nxp\mcuxpressoide_10.2.1_795\ide\tools\arm-none-eabi\include\c++\7.2.1\bits\stl_pair.h **** 	using __do_converts = __and_<is_convertible<_U1&&, _T1>,
 143:c:\nxp\mcuxpressoide_10.2.1_795\ide\tools\arm-none-eabi\include\c++\7.2.1\bits\stl_pair.h **** 				  is_convertible<const _U2&, _T2>>;
 144:c:\nxp\mcuxpressoide_10.2.1_795\ide\tools\arm-none-eabi\include\c++\7.2.1\bits\stl_pair.h **** 	using __converts = typename conditional<__implicit,
 145:c:\nxp\mcuxpressoide_10.2.1_795\ide\tools\arm-none-eabi\include\c++\7.2.1\bits\stl_pair.h **** 				       __do_converts,
 146:c:\nxp\mcuxpressoide_10.2.1_795\ide\tools\arm-none-eabi\include\c++\7.2.1\bits\stl_pair.h **** 				       __not_<__do_converts>>::type;
 147:c:\nxp\mcuxpressoide_10.2.1_795\ide\tools\arm-none-eabi\include\c++\7.2.1\bits\stl_pair.h **** 	return __and_<is_constructible<_T1, _U1&&>,
 148:c:\nxp\mcuxpressoide_10.2.1_795\ide\tools\arm-none-eabi\include\c++\7.2.1\bits\stl_pair.h **** 		      is_constructible<_T2, const _U2&&>,
 149:c:\nxp\mcuxpressoide_10.2.1_795\ide\tools\arm-none-eabi\include\c++\7.2.1\bits\stl_pair.h **** 		      __converts
 150:c:\nxp\mcuxpressoide_10.2.1_795\ide\tools\arm-none-eabi\include\c++\7.2.1\bits\stl_pair.h **** 		      >::value;
 151:c:\nxp\mcuxpressoide_10.2.1_795\ide\tools\arm-none-eabi\include\c++\7.2.1\bits\stl_pair.h ****       }
 152:c:\nxp\mcuxpressoide_10.2.1_795\ide\tools\arm-none-eabi\include\c++\7.2.1\bits\stl_pair.h ****   };
 153:c:\nxp\mcuxpressoide_10.2.1_795\ide\tools\arm-none-eabi\include\c++\7.2.1\bits\stl_pair.h **** 
 154:c:\nxp\mcuxpressoide_10.2.1_795\ide\tools\arm-none-eabi\include\c++\7.2.1\bits\stl_pair.h ****   template <typename _T1, typename _T2>
 155:c:\nxp\mcuxpressoide_10.2.1_795\ide\tools\arm-none-eabi\include\c++\7.2.1\bits\stl_pair.h ****     struct _PCC<false, _T1, _T2>
 156:c:\nxp\mcuxpressoide_10.2.1_795\ide\tools\arm-none-eabi\include\c++\7.2.1\bits\stl_pair.h ****     {
 157:c:\nxp\mcuxpressoide_10.2.1_795\ide\tools\arm-none-eabi\include\c++\7.2.1\bits\stl_pair.h ****       template <typename _U1, typename _U2>
 158:c:\nxp\mcuxpressoide_10.2.1_795\ide\tools\arm-none-eabi\include\c++\7.2.1\bits\stl_pair.h ****       static constexpr bool _ConstructiblePair()
ARM GAS  C:\Users\xavie\AppData\Local\Temp\ccbd98DL.s 			page 24


 159:c:\nxp\mcuxpressoide_10.2.1_795\ide\tools\arm-none-eabi\include\c++\7.2.1\bits\stl_pair.h ****       {
 160:c:\nxp\mcuxpressoide_10.2.1_795\ide\tools\arm-none-eabi\include\c++\7.2.1\bits\stl_pair.h **** 	return false;
 161:c:\nxp\mcuxpressoide_10.2.1_795\ide\tools\arm-none-eabi\include\c++\7.2.1\bits\stl_pair.h ****       }
 162:c:\nxp\mcuxpressoide_10.2.1_795\ide\tools\arm-none-eabi\include\c++\7.2.1\bits\stl_pair.h **** 
 163:c:\nxp\mcuxpressoide_10.2.1_795\ide\tools\arm-none-eabi\include\c++\7.2.1\bits\stl_pair.h ****       template <typename _U1, typename _U2>
 164:c:\nxp\mcuxpressoide_10.2.1_795\ide\tools\arm-none-eabi\include\c++\7.2.1\bits\stl_pair.h ****       static constexpr bool _ImplicitlyConvertiblePair()
 165:c:\nxp\mcuxpressoide_10.2.1_795\ide\tools\arm-none-eabi\include\c++\7.2.1\bits\stl_pair.h ****       {
 166:c:\nxp\mcuxpressoide_10.2.1_795\ide\tools\arm-none-eabi\include\c++\7.2.1\bits\stl_pair.h **** 	return false;
 167:c:\nxp\mcuxpressoide_10.2.1_795\ide\tools\arm-none-eabi\include\c++\7.2.1\bits\stl_pair.h ****       }
 168:c:\nxp\mcuxpressoide_10.2.1_795\ide\tools\arm-none-eabi\include\c++\7.2.1\bits\stl_pair.h **** 
 169:c:\nxp\mcuxpressoide_10.2.1_795\ide\tools\arm-none-eabi\include\c++\7.2.1\bits\stl_pair.h ****       template <typename _U1, typename _U2>
 170:c:\nxp\mcuxpressoide_10.2.1_795\ide\tools\arm-none-eabi\include\c++\7.2.1\bits\stl_pair.h ****       static constexpr bool _MoveConstructiblePair()
 171:c:\nxp\mcuxpressoide_10.2.1_795\ide\tools\arm-none-eabi\include\c++\7.2.1\bits\stl_pair.h ****       {
 172:c:\nxp\mcuxpressoide_10.2.1_795\ide\tools\arm-none-eabi\include\c++\7.2.1\bits\stl_pair.h **** 	return false;
 173:c:\nxp\mcuxpressoide_10.2.1_795\ide\tools\arm-none-eabi\include\c++\7.2.1\bits\stl_pair.h ****       }
 174:c:\nxp\mcuxpressoide_10.2.1_795\ide\tools\arm-none-eabi\include\c++\7.2.1\bits\stl_pair.h **** 
 175:c:\nxp\mcuxpressoide_10.2.1_795\ide\tools\arm-none-eabi\include\c++\7.2.1\bits\stl_pair.h ****       template <typename _U1, typename _U2>
 176:c:\nxp\mcuxpressoide_10.2.1_795\ide\tools\arm-none-eabi\include\c++\7.2.1\bits\stl_pair.h ****       static constexpr bool _ImplicitlyMoveConvertiblePair()
 177:c:\nxp\mcuxpressoide_10.2.1_795\ide\tools\arm-none-eabi\include\c++\7.2.1\bits\stl_pair.h ****       {
 178:c:\nxp\mcuxpressoide_10.2.1_795\ide\tools\arm-none-eabi\include\c++\7.2.1\bits\stl_pair.h **** 	return false;
 179:c:\nxp\mcuxpressoide_10.2.1_795\ide\tools\arm-none-eabi\include\c++\7.2.1\bits\stl_pair.h ****       }
 180:c:\nxp\mcuxpressoide_10.2.1_795\ide\tools\arm-none-eabi\include\c++\7.2.1\bits\stl_pair.h ****   };
 181:c:\nxp\mcuxpressoide_10.2.1_795\ide\tools\arm-none-eabi\include\c++\7.2.1\bits\stl_pair.h **** 
 182:c:\nxp\mcuxpressoide_10.2.1_795\ide\tools\arm-none-eabi\include\c++\7.2.1\bits\stl_pair.h ****   // PR libstdc++/79141, a utility type for preventing
 183:c:\nxp\mcuxpressoide_10.2.1_795\ide\tools\arm-none-eabi\include\c++\7.2.1\bits\stl_pair.h ****   // initialization of an argument of a disabled assignment
 184:c:\nxp\mcuxpressoide_10.2.1_795\ide\tools\arm-none-eabi\include\c++\7.2.1\bits\stl_pair.h ****   // operator from a pair of empty braces.
 185:c:\nxp\mcuxpressoide_10.2.1_795\ide\tools\arm-none-eabi\include\c++\7.2.1\bits\stl_pair.h ****   struct __nonesuch_no_braces : std::__nonesuch {
 186:c:\nxp\mcuxpressoide_10.2.1_795\ide\tools\arm-none-eabi\include\c++\7.2.1\bits\stl_pair.h ****     explicit __nonesuch_no_braces(const __nonesuch&) = delete;
 187:c:\nxp\mcuxpressoide_10.2.1_795\ide\tools\arm-none-eabi\include\c++\7.2.1\bits\stl_pair.h ****   };
 188:c:\nxp\mcuxpressoide_10.2.1_795\ide\tools\arm-none-eabi\include\c++\7.2.1\bits\stl_pair.h **** 
 189:c:\nxp\mcuxpressoide_10.2.1_795\ide\tools\arm-none-eabi\include\c++\7.2.1\bits\stl_pair.h **** #endif
 190:c:\nxp\mcuxpressoide_10.2.1_795\ide\tools\arm-none-eabi\include\c++\7.2.1\bits\stl_pair.h **** 
 191:c:\nxp\mcuxpressoide_10.2.1_795\ide\tools\arm-none-eabi\include\c++\7.2.1\bits\stl_pair.h ****  /**
 192:c:\nxp\mcuxpressoide_10.2.1_795\ide\tools\arm-none-eabi\include\c++\7.2.1\bits\stl_pair.h ****    *  @brief Struct holding two objects of arbitrary type.
 193:c:\nxp\mcuxpressoide_10.2.1_795\ide\tools\arm-none-eabi\include\c++\7.2.1\bits\stl_pair.h ****    *
 194:c:\nxp\mcuxpressoide_10.2.1_795\ide\tools\arm-none-eabi\include\c++\7.2.1\bits\stl_pair.h ****    *  @tparam _T1  Type of first object.
 195:c:\nxp\mcuxpressoide_10.2.1_795\ide\tools\arm-none-eabi\include\c++\7.2.1\bits\stl_pair.h ****    *  @tparam _T2  Type of second object.
 196:c:\nxp\mcuxpressoide_10.2.1_795\ide\tools\arm-none-eabi\include\c++\7.2.1\bits\stl_pair.h ****    */
 197:c:\nxp\mcuxpressoide_10.2.1_795\ide\tools\arm-none-eabi\include\c++\7.2.1\bits\stl_pair.h ****   template<typename _T1, typename _T2>
 198:c:\nxp\mcuxpressoide_10.2.1_795\ide\tools\arm-none-eabi\include\c++\7.2.1\bits\stl_pair.h ****     struct pair
 199:c:\nxp\mcuxpressoide_10.2.1_795\ide\tools\arm-none-eabi\include\c++\7.2.1\bits\stl_pair.h ****     {
 200:c:\nxp\mcuxpressoide_10.2.1_795\ide\tools\arm-none-eabi\include\c++\7.2.1\bits\stl_pair.h ****       typedef _T1 first_type;    /// @c first_type is the first bound type
 201:c:\nxp\mcuxpressoide_10.2.1_795\ide\tools\arm-none-eabi\include\c++\7.2.1\bits\stl_pair.h ****       typedef _T2 second_type;   /// @c second_type is the second bound type
 202:c:\nxp\mcuxpressoide_10.2.1_795\ide\tools\arm-none-eabi\include\c++\7.2.1\bits\stl_pair.h **** 
 203:c:\nxp\mcuxpressoide_10.2.1_795\ide\tools\arm-none-eabi\include\c++\7.2.1\bits\stl_pair.h ****       _T1 first;                 /// @c first is a copy of the first object
 204:c:\nxp\mcuxpressoide_10.2.1_795\ide\tools\arm-none-eabi\include\c++\7.2.1\bits\stl_pair.h ****       _T2 second;                /// @c second is a copy of the second object
 205:c:\nxp\mcuxpressoide_10.2.1_795\ide\tools\arm-none-eabi\include\c++\7.2.1\bits\stl_pair.h **** 
 206:c:\nxp\mcuxpressoide_10.2.1_795\ide\tools\arm-none-eabi\include\c++\7.2.1\bits\stl_pair.h ****       // _GLIBCXX_RESOLVE_LIB_DEFECTS
 207:c:\nxp\mcuxpressoide_10.2.1_795\ide\tools\arm-none-eabi\include\c++\7.2.1\bits\stl_pair.h ****       // 265.  std::pair::pair() effects overly restrictive
 208:c:\nxp\mcuxpressoide_10.2.1_795\ide\tools\arm-none-eabi\include\c++\7.2.1\bits\stl_pair.h ****       /** The default constructor creates @c first and @c second using their
 209:c:\nxp\mcuxpressoide_10.2.1_795\ide\tools\arm-none-eabi\include\c++\7.2.1\bits\stl_pair.h ****        *  respective default constructors.  */
 210:c:\nxp\mcuxpressoide_10.2.1_795\ide\tools\arm-none-eabi\include\c++\7.2.1\bits\stl_pair.h **** #if __cplusplus >= 201103L
 211:c:\nxp\mcuxpressoide_10.2.1_795\ide\tools\arm-none-eabi\include\c++\7.2.1\bits\stl_pair.h ****       template <typename _U1 = _T1,
 212:c:\nxp\mcuxpressoide_10.2.1_795\ide\tools\arm-none-eabi\include\c++\7.2.1\bits\stl_pair.h ****                 typename _U2 = _T2,
 213:c:\nxp\mcuxpressoide_10.2.1_795\ide\tools\arm-none-eabi\include\c++\7.2.1\bits\stl_pair.h ****                 typename enable_if<__and_<
 214:c:\nxp\mcuxpressoide_10.2.1_795\ide\tools\arm-none-eabi\include\c++\7.2.1\bits\stl_pair.h ****                                      __is_implicitly_default_constructible<_U1>,
 215:c:\nxp\mcuxpressoide_10.2.1_795\ide\tools\arm-none-eabi\include\c++\7.2.1\bits\stl_pair.h ****                                      __is_implicitly_default_constructible<_U2>>
ARM GAS  C:\Users\xavie\AppData\Local\Temp\ccbd98DL.s 			page 25


 216:c:\nxp\mcuxpressoide_10.2.1_795\ide\tools\arm-none-eabi\include\c++\7.2.1\bits\stl_pair.h ****                                    ::value, bool>::type = true>
 217:c:\nxp\mcuxpressoide_10.2.1_795\ide\tools\arm-none-eabi\include\c++\7.2.1\bits\stl_pair.h **** #endif
 218:c:\nxp\mcuxpressoide_10.2.1_795\ide\tools\arm-none-eabi\include\c++\7.2.1\bits\stl_pair.h ****       _GLIBCXX_CONSTEXPR pair()
 219:c:\nxp\mcuxpressoide_10.2.1_795\ide\tools\arm-none-eabi\include\c++\7.2.1\bits\stl_pair.h ****       : first(), second() { }
 220:c:\nxp\mcuxpressoide_10.2.1_795\ide\tools\arm-none-eabi\include\c++\7.2.1\bits\stl_pair.h **** 
 221:c:\nxp\mcuxpressoide_10.2.1_795\ide\tools\arm-none-eabi\include\c++\7.2.1\bits\stl_pair.h **** #if __cplusplus >= 201103L
 222:c:\nxp\mcuxpressoide_10.2.1_795\ide\tools\arm-none-eabi\include\c++\7.2.1\bits\stl_pair.h ****       template <typename _U1 = _T1,
 223:c:\nxp\mcuxpressoide_10.2.1_795\ide\tools\arm-none-eabi\include\c++\7.2.1\bits\stl_pair.h ****                 typename _U2 = _T2,
 224:c:\nxp\mcuxpressoide_10.2.1_795\ide\tools\arm-none-eabi\include\c++\7.2.1\bits\stl_pair.h ****                 typename enable_if<__and_<
 225:c:\nxp\mcuxpressoide_10.2.1_795\ide\tools\arm-none-eabi\include\c++\7.2.1\bits\stl_pair.h ****                        is_default_constructible<_U1>,
 226:c:\nxp\mcuxpressoide_10.2.1_795\ide\tools\arm-none-eabi\include\c++\7.2.1\bits\stl_pair.h ****                        is_default_constructible<_U2>,
 227:c:\nxp\mcuxpressoide_10.2.1_795\ide\tools\arm-none-eabi\include\c++\7.2.1\bits\stl_pair.h ****                        __not_<
 228:c:\nxp\mcuxpressoide_10.2.1_795\ide\tools\arm-none-eabi\include\c++\7.2.1\bits\stl_pair.h ****                          __and_<__is_implicitly_default_constructible<_U1>,
 229:c:\nxp\mcuxpressoide_10.2.1_795\ide\tools\arm-none-eabi\include\c++\7.2.1\bits\stl_pair.h ****                                 __is_implicitly_default_constructible<_U2>>>>
 230:c:\nxp\mcuxpressoide_10.2.1_795\ide\tools\arm-none-eabi\include\c++\7.2.1\bits\stl_pair.h ****                                    ::value, bool>::type = false>
 231:c:\nxp\mcuxpressoide_10.2.1_795\ide\tools\arm-none-eabi\include\c++\7.2.1\bits\stl_pair.h ****       explicit constexpr pair()
 232:c:\nxp\mcuxpressoide_10.2.1_795\ide\tools\arm-none-eabi\include\c++\7.2.1\bits\stl_pair.h ****       : first(), second() { }
 233:c:\nxp\mcuxpressoide_10.2.1_795\ide\tools\arm-none-eabi\include\c++\7.2.1\bits\stl_pair.h **** #endif
 234:c:\nxp\mcuxpressoide_10.2.1_795\ide\tools\arm-none-eabi\include\c++\7.2.1\bits\stl_pair.h **** 
 235:c:\nxp\mcuxpressoide_10.2.1_795\ide\tools\arm-none-eabi\include\c++\7.2.1\bits\stl_pair.h ****       /** Two objects may be passed to a @c pair constructor to be copied.  */
 236:c:\nxp\mcuxpressoide_10.2.1_795\ide\tools\arm-none-eabi\include\c++\7.2.1\bits\stl_pair.h **** #if __cplusplus < 201103L
 237:c:\nxp\mcuxpressoide_10.2.1_795\ide\tools\arm-none-eabi\include\c++\7.2.1\bits\stl_pair.h ****       pair(const _T1& __a, const _T2& __b)
 238:c:\nxp\mcuxpressoide_10.2.1_795\ide\tools\arm-none-eabi\include\c++\7.2.1\bits\stl_pair.h ****       : first(__a), second(__b) { }
 239:c:\nxp\mcuxpressoide_10.2.1_795\ide\tools\arm-none-eabi\include\c++\7.2.1\bits\stl_pair.h **** #else
 240:c:\nxp\mcuxpressoide_10.2.1_795\ide\tools\arm-none-eabi\include\c++\7.2.1\bits\stl_pair.h ****       // Shortcut for constraining the templates that don't take pairs.
 241:c:\nxp\mcuxpressoide_10.2.1_795\ide\tools\arm-none-eabi\include\c++\7.2.1\bits\stl_pair.h ****       using _PCCP = _PCC<true, _T1, _T2>;
 242:c:\nxp\mcuxpressoide_10.2.1_795\ide\tools\arm-none-eabi\include\c++\7.2.1\bits\stl_pair.h **** 
 243:c:\nxp\mcuxpressoide_10.2.1_795\ide\tools\arm-none-eabi\include\c++\7.2.1\bits\stl_pair.h ****       template<typename _U1 = _T1, typename _U2=_T2, typename
 244:c:\nxp\mcuxpressoide_10.2.1_795\ide\tools\arm-none-eabi\include\c++\7.2.1\bits\stl_pair.h **** 	       enable_if<_PCCP::template
 245:c:\nxp\mcuxpressoide_10.2.1_795\ide\tools\arm-none-eabi\include\c++\7.2.1\bits\stl_pair.h **** 			   _ConstructiblePair<_U1, _U2>()
 246:c:\nxp\mcuxpressoide_10.2.1_795\ide\tools\arm-none-eabi\include\c++\7.2.1\bits\stl_pair.h **** 	                 && _PCCP::template
 247:c:\nxp\mcuxpressoide_10.2.1_795\ide\tools\arm-none-eabi\include\c++\7.2.1\bits\stl_pair.h **** 			   _ImplicitlyConvertiblePair<_U1, _U2>(),
 248:c:\nxp\mcuxpressoide_10.2.1_795\ide\tools\arm-none-eabi\include\c++\7.2.1\bits\stl_pair.h ****                          bool>::type=true>
 249:c:\nxp\mcuxpressoide_10.2.1_795\ide\tools\arm-none-eabi\include\c++\7.2.1\bits\stl_pair.h ****       constexpr pair(const _T1& __a, const _T2& __b)
 250:c:\nxp\mcuxpressoide_10.2.1_795\ide\tools\arm-none-eabi\include\c++\7.2.1\bits\stl_pair.h ****       : first(__a), second(__b) { }
 251:c:\nxp\mcuxpressoide_10.2.1_795\ide\tools\arm-none-eabi\include\c++\7.2.1\bits\stl_pair.h **** 
 252:c:\nxp\mcuxpressoide_10.2.1_795\ide\tools\arm-none-eabi\include\c++\7.2.1\bits\stl_pair.h ****        template<typename _U1 = _T1, typename _U2=_T2, typename
 253:c:\nxp\mcuxpressoide_10.2.1_795\ide\tools\arm-none-eabi\include\c++\7.2.1\bits\stl_pair.h **** 		enable_if<_PCCP::template
 254:c:\nxp\mcuxpressoide_10.2.1_795\ide\tools\arm-none-eabi\include\c++\7.2.1\bits\stl_pair.h **** 			    _ConstructiblePair<_U1, _U2>()
 255:c:\nxp\mcuxpressoide_10.2.1_795\ide\tools\arm-none-eabi\include\c++\7.2.1\bits\stl_pair.h **** 	                  && !_PCCP::template
 256:c:\nxp\mcuxpressoide_10.2.1_795\ide\tools\arm-none-eabi\include\c++\7.2.1\bits\stl_pair.h **** 			    _ImplicitlyConvertiblePair<_U1, _U2>(),
 257:c:\nxp\mcuxpressoide_10.2.1_795\ide\tools\arm-none-eabi\include\c++\7.2.1\bits\stl_pair.h ****                          bool>::type=false>
 258:c:\nxp\mcuxpressoide_10.2.1_795\ide\tools\arm-none-eabi\include\c++\7.2.1\bits\stl_pair.h ****       explicit constexpr pair(const _T1& __a, const _T2& __b)
 259:c:\nxp\mcuxpressoide_10.2.1_795\ide\tools\arm-none-eabi\include\c++\7.2.1\bits\stl_pair.h ****       : first(__a), second(__b) { }
 260:c:\nxp\mcuxpressoide_10.2.1_795\ide\tools\arm-none-eabi\include\c++\7.2.1\bits\stl_pair.h **** #endif
 261:c:\nxp\mcuxpressoide_10.2.1_795\ide\tools\arm-none-eabi\include\c++\7.2.1\bits\stl_pair.h **** 
 262:c:\nxp\mcuxpressoide_10.2.1_795\ide\tools\arm-none-eabi\include\c++\7.2.1\bits\stl_pair.h ****       /** There is also a templated copy ctor for the @c pair class itself.  */
 263:c:\nxp\mcuxpressoide_10.2.1_795\ide\tools\arm-none-eabi\include\c++\7.2.1\bits\stl_pair.h **** #if __cplusplus < 201103L
 264:c:\nxp\mcuxpressoide_10.2.1_795\ide\tools\arm-none-eabi\include\c++\7.2.1\bits\stl_pair.h ****       template<typename _U1, typename _U2>
 265:c:\nxp\mcuxpressoide_10.2.1_795\ide\tools\arm-none-eabi\include\c++\7.2.1\bits\stl_pair.h **** 	pair(const pair<_U1, _U2>& __p)
 266:c:\nxp\mcuxpressoide_10.2.1_795\ide\tools\arm-none-eabi\include\c++\7.2.1\bits\stl_pair.h **** 	: first(__p.first), second(__p.second) { }
 267:c:\nxp\mcuxpressoide_10.2.1_795\ide\tools\arm-none-eabi\include\c++\7.2.1\bits\stl_pair.h **** #else
 268:c:\nxp\mcuxpressoide_10.2.1_795\ide\tools\arm-none-eabi\include\c++\7.2.1\bits\stl_pair.h ****       // Shortcut for constraining the templates that take pairs.
 269:c:\nxp\mcuxpressoide_10.2.1_795\ide\tools\arm-none-eabi\include\c++\7.2.1\bits\stl_pair.h ****       template <typename _U1, typename _U2>
 270:c:\nxp\mcuxpressoide_10.2.1_795\ide\tools\arm-none-eabi\include\c++\7.2.1\bits\stl_pair.h ****         using _PCCFP = _PCC<!is_same<_T1, _U1>::value
 271:c:\nxp\mcuxpressoide_10.2.1_795\ide\tools\arm-none-eabi\include\c++\7.2.1\bits\stl_pair.h **** 			    || !is_same<_T2, _U2>::value,
 272:c:\nxp\mcuxpressoide_10.2.1_795\ide\tools\arm-none-eabi\include\c++\7.2.1\bits\stl_pair.h **** 			    _T1, _T2>;
ARM GAS  C:\Users\xavie\AppData\Local\Temp\ccbd98DL.s 			page 26


 273:c:\nxp\mcuxpressoide_10.2.1_795\ide\tools\arm-none-eabi\include\c++\7.2.1\bits\stl_pair.h **** 
 274:c:\nxp\mcuxpressoide_10.2.1_795\ide\tools\arm-none-eabi\include\c++\7.2.1\bits\stl_pair.h ****       template<typename _U1, typename _U2, typename
 275:c:\nxp\mcuxpressoide_10.2.1_795\ide\tools\arm-none-eabi\include\c++\7.2.1\bits\stl_pair.h **** 	       enable_if<_PCCFP<_U1, _U2>::template
 276:c:\nxp\mcuxpressoide_10.2.1_795\ide\tools\arm-none-eabi\include\c++\7.2.1\bits\stl_pair.h **** 			   _ConstructiblePair<_U1, _U2>()
 277:c:\nxp\mcuxpressoide_10.2.1_795\ide\tools\arm-none-eabi\include\c++\7.2.1\bits\stl_pair.h **** 	                 && _PCCFP<_U1, _U2>::template
 278:c:\nxp\mcuxpressoide_10.2.1_795\ide\tools\arm-none-eabi\include\c++\7.2.1\bits\stl_pair.h **** 			   _ImplicitlyConvertiblePair<_U1, _U2>(),
 279:c:\nxp\mcuxpressoide_10.2.1_795\ide\tools\arm-none-eabi\include\c++\7.2.1\bits\stl_pair.h **** 			  bool>::type=true>
 280:c:\nxp\mcuxpressoide_10.2.1_795\ide\tools\arm-none-eabi\include\c++\7.2.1\bits\stl_pair.h ****         constexpr pair(const pair<_U1, _U2>& __p)
 281:c:\nxp\mcuxpressoide_10.2.1_795\ide\tools\arm-none-eabi\include\c++\7.2.1\bits\stl_pair.h ****         : first(__p.first), second(__p.second) { }
 282:c:\nxp\mcuxpressoide_10.2.1_795\ide\tools\arm-none-eabi\include\c++\7.2.1\bits\stl_pair.h **** 
 283:c:\nxp\mcuxpressoide_10.2.1_795\ide\tools\arm-none-eabi\include\c++\7.2.1\bits\stl_pair.h ****       template<typename _U1, typename _U2, typename
 284:c:\nxp\mcuxpressoide_10.2.1_795\ide\tools\arm-none-eabi\include\c++\7.2.1\bits\stl_pair.h **** 	       enable_if<_PCCFP<_U1, _U2>::template
 285:c:\nxp\mcuxpressoide_10.2.1_795\ide\tools\arm-none-eabi\include\c++\7.2.1\bits\stl_pair.h **** 			   _ConstructiblePair<_U1, _U2>()
 286:c:\nxp\mcuxpressoide_10.2.1_795\ide\tools\arm-none-eabi\include\c++\7.2.1\bits\stl_pair.h **** 			 && !_PCCFP<_U1, _U2>::template
 287:c:\nxp\mcuxpressoide_10.2.1_795\ide\tools\arm-none-eabi\include\c++\7.2.1\bits\stl_pair.h **** 			   _ImplicitlyConvertiblePair<_U1, _U2>(),
 288:c:\nxp\mcuxpressoide_10.2.1_795\ide\tools\arm-none-eabi\include\c++\7.2.1\bits\stl_pair.h ****                          bool>::type=false>
 289:c:\nxp\mcuxpressoide_10.2.1_795\ide\tools\arm-none-eabi\include\c++\7.2.1\bits\stl_pair.h **** 	explicit constexpr pair(const pair<_U1, _U2>& __p)
 290:c:\nxp\mcuxpressoide_10.2.1_795\ide\tools\arm-none-eabi\include\c++\7.2.1\bits\stl_pair.h **** 	: first(__p.first), second(__p.second) { }
 291:c:\nxp\mcuxpressoide_10.2.1_795\ide\tools\arm-none-eabi\include\c++\7.2.1\bits\stl_pair.h **** 
 292:c:\nxp\mcuxpressoide_10.2.1_795\ide\tools\arm-none-eabi\include\c++\7.2.1\bits\stl_pair.h ****       constexpr pair(const pair&) = default;
 293:c:\nxp\mcuxpressoide_10.2.1_795\ide\tools\arm-none-eabi\include\c++\7.2.1\bits\stl_pair.h ****       constexpr pair(pair&&) = default;
 294:c:\nxp\mcuxpressoide_10.2.1_795\ide\tools\arm-none-eabi\include\c++\7.2.1\bits\stl_pair.h **** 
 295:c:\nxp\mcuxpressoide_10.2.1_795\ide\tools\arm-none-eabi\include\c++\7.2.1\bits\stl_pair.h ****       // DR 811.
 296:c:\nxp\mcuxpressoide_10.2.1_795\ide\tools\arm-none-eabi\include\c++\7.2.1\bits\stl_pair.h ****       template<typename _U1, typename
 297:c:\nxp\mcuxpressoide_10.2.1_795\ide\tools\arm-none-eabi\include\c++\7.2.1\bits\stl_pair.h **** 	       enable_if<_PCCP::template
 298:c:\nxp\mcuxpressoide_10.2.1_795\ide\tools\arm-none-eabi\include\c++\7.2.1\bits\stl_pair.h **** 			   _MoveCopyPair<true, _U1, _T2>(),
 299:c:\nxp\mcuxpressoide_10.2.1_795\ide\tools\arm-none-eabi\include\c++\7.2.1\bits\stl_pair.h ****                          bool>::type=true>
 300:c:\nxp\mcuxpressoide_10.2.1_795\ide\tools\arm-none-eabi\include\c++\7.2.1\bits\stl_pair.h ****        constexpr pair(_U1&& __x, const _T2& __y)
 301:c:\nxp\mcuxpressoide_10.2.1_795\ide\tools\arm-none-eabi\include\c++\7.2.1\bits\stl_pair.h ****        : first(std::forward<_U1>(__x)), second(__y) { }
 302:c:\nxp\mcuxpressoide_10.2.1_795\ide\tools\arm-none-eabi\include\c++\7.2.1\bits\stl_pair.h **** 
 303:c:\nxp\mcuxpressoide_10.2.1_795\ide\tools\arm-none-eabi\include\c++\7.2.1\bits\stl_pair.h ****       template<typename _U1, typename
 304:c:\nxp\mcuxpressoide_10.2.1_795\ide\tools\arm-none-eabi\include\c++\7.2.1\bits\stl_pair.h **** 	       enable_if<_PCCP::template
 305:c:\nxp\mcuxpressoide_10.2.1_795\ide\tools\arm-none-eabi\include\c++\7.2.1\bits\stl_pair.h **** 			   _MoveCopyPair<false, _U1, _T2>(),
 306:c:\nxp\mcuxpressoide_10.2.1_795\ide\tools\arm-none-eabi\include\c++\7.2.1\bits\stl_pair.h ****                          bool>::type=false>
 307:c:\nxp\mcuxpressoide_10.2.1_795\ide\tools\arm-none-eabi\include\c++\7.2.1\bits\stl_pair.h ****        explicit constexpr pair(_U1&& __x, const _T2& __y)
 308:c:\nxp\mcuxpressoide_10.2.1_795\ide\tools\arm-none-eabi\include\c++\7.2.1\bits\stl_pair.h ****        : first(std::forward<_U1>(__x)), second(__y) { }
 309:c:\nxp\mcuxpressoide_10.2.1_795\ide\tools\arm-none-eabi\include\c++\7.2.1\bits\stl_pair.h **** 
 310:c:\nxp\mcuxpressoide_10.2.1_795\ide\tools\arm-none-eabi\include\c++\7.2.1\bits\stl_pair.h ****       template<typename _U2, typename
 311:c:\nxp\mcuxpressoide_10.2.1_795\ide\tools\arm-none-eabi\include\c++\7.2.1\bits\stl_pair.h **** 	       enable_if<_PCCP::template
 312:c:\nxp\mcuxpressoide_10.2.1_795\ide\tools\arm-none-eabi\include\c++\7.2.1\bits\stl_pair.h **** 			   _CopyMovePair<true, _T1, _U2>(),
 313:c:\nxp\mcuxpressoide_10.2.1_795\ide\tools\arm-none-eabi\include\c++\7.2.1\bits\stl_pair.h ****                          bool>::type=true>
 314:c:\nxp\mcuxpressoide_10.2.1_795\ide\tools\arm-none-eabi\include\c++\7.2.1\bits\stl_pair.h ****        constexpr pair(const _T1& __x, _U2&& __y)
 315:c:\nxp\mcuxpressoide_10.2.1_795\ide\tools\arm-none-eabi\include\c++\7.2.1\bits\stl_pair.h ****        : first(__x), second(std::forward<_U2>(__y)) { }
 316:c:\nxp\mcuxpressoide_10.2.1_795\ide\tools\arm-none-eabi\include\c++\7.2.1\bits\stl_pair.h **** 
 317:c:\nxp\mcuxpressoide_10.2.1_795\ide\tools\arm-none-eabi\include\c++\7.2.1\bits\stl_pair.h ****       template<typename _U2, typename
 318:c:\nxp\mcuxpressoide_10.2.1_795\ide\tools\arm-none-eabi\include\c++\7.2.1\bits\stl_pair.h **** 	       enable_if<_PCCP::template
 319:c:\nxp\mcuxpressoide_10.2.1_795\ide\tools\arm-none-eabi\include\c++\7.2.1\bits\stl_pair.h **** 			   _CopyMovePair<false, _T1, _U2>(),
 320:c:\nxp\mcuxpressoide_10.2.1_795\ide\tools\arm-none-eabi\include\c++\7.2.1\bits\stl_pair.h ****                          bool>::type=false>
 321:c:\nxp\mcuxpressoide_10.2.1_795\ide\tools\arm-none-eabi\include\c++\7.2.1\bits\stl_pair.h ****        explicit pair(const _T1& __x, _U2&& __y)
 322:c:\nxp\mcuxpressoide_10.2.1_795\ide\tools\arm-none-eabi\include\c++\7.2.1\bits\stl_pair.h ****        : first(__x), second(std::forward<_U2>(__y)) { }
 323:c:\nxp\mcuxpressoide_10.2.1_795\ide\tools\arm-none-eabi\include\c++\7.2.1\bits\stl_pair.h **** 
 324:c:\nxp\mcuxpressoide_10.2.1_795\ide\tools\arm-none-eabi\include\c++\7.2.1\bits\stl_pair.h ****       template<typename _U1, typename _U2, typename
 325:c:\nxp\mcuxpressoide_10.2.1_795\ide\tools\arm-none-eabi\include\c++\7.2.1\bits\stl_pair.h **** 	       enable_if<_PCCP::template
 326:c:\nxp\mcuxpressoide_10.2.1_795\ide\tools\arm-none-eabi\include\c++\7.2.1\bits\stl_pair.h **** 			   _MoveConstructiblePair<_U1, _U2>()
 327:c:\nxp\mcuxpressoide_10.2.1_795\ide\tools\arm-none-eabi\include\c++\7.2.1\bits\stl_pair.h **** 			  && _PCCP::template
 328:c:\nxp\mcuxpressoide_10.2.1_795\ide\tools\arm-none-eabi\include\c++\7.2.1\bits\stl_pair.h **** 			   _ImplicitlyMoveConvertiblePair<_U1, _U2>(),
 329:c:\nxp\mcuxpressoide_10.2.1_795\ide\tools\arm-none-eabi\include\c++\7.2.1\bits\stl_pair.h ****                          bool>::type=true>
ARM GAS  C:\Users\xavie\AppData\Local\Temp\ccbd98DL.s 			page 27


 330:c:\nxp\mcuxpressoide_10.2.1_795\ide\tools\arm-none-eabi\include\c++\7.2.1\bits\stl_pair.h **** 	constexpr pair(_U1&& __x, _U2&& __y)
 634              		.loc 6 330 0
 635              		.cfi_startproc
 636              		@ args = 0, pretend = 0, frame = 16
 637              		@ frame_needed = 1, uses_anonymous_args = 0
 638 0000 80B5     		push	{r7, lr}
 639              		.cfi_def_cfa_offset 8
 640              		.cfi_offset 7, -8
 641              		.cfi_offset 14, -4
 642 0002 84B0     		sub	sp, sp, #16
 643              		.cfi_def_cfa_offset 24
 644 0004 00AF     		add	r7, sp, #0
 645              		.cfi_def_cfa_register 7
 646 0006 F860     		str	r0, [r7, #12]
 647 0008 B960     		str	r1, [r7, #8]
 648 000a 7A60     		str	r2, [r7, #4]
 649              	.LBB8:
 331:c:\nxp\mcuxpressoide_10.2.1_795\ide\tools\arm-none-eabi\include\c++\7.2.1\bits\stl_pair.h **** 	: first(std::forward<_U1>(__x)), second(std::forward<_U2>(__y)) { }
 650              		.loc 6 331 0
 651 000c B868     		ldr	r0, [r7, #8]
 652 000e FFF7FEFF 		bl	_ZSt7forwardIRhEOT_RNSt16remove_referenceIS1_E4typeE
 653 0012 0346     		mov	r3, r0
 654 0014 1A78     		ldrb	r2, [r3]	@ zero_extendqisi2
 655 0016 FB68     		ldr	r3, [r7, #12]
 656 0018 1A70     		strb	r2, [r3]
 657 001a 7868     		ldr	r0, [r7, #4]
 658 001c FFF7FEFF 		bl	_ZSt7forwardIRhEOT_RNSt16remove_referenceIS1_E4typeE
 659 0020 0346     		mov	r3, r0
 660 0022 1A78     		ldrb	r2, [r3]	@ zero_extendqisi2
 661 0024 FB68     		ldr	r3, [r7, #12]
 662 0026 5A70     		strb	r2, [r3, #1]
 663              	.LBE8:
 664 0028 FB68     		ldr	r3, [r7, #12]
 665 002a 1846     		mov	r0, r3
 666 002c 1037     		adds	r7, r7, #16
 667              		.cfi_def_cfa_offset 8
 668 002e BD46     		mov	sp, r7
 669              		.cfi_def_cfa_register 13
 670              		@ sp needed
 671 0030 80BD     		pop	{r7, pc}
 672              		.cfi_endproc
 673              	.LFE1584:
 675              		.section	.text._ZSt9make_pairIRhS0_ESt4pairINSt17__decay_and_stripIT_E6__typeENS2_IT0_E6__typeEEOS
 676              		.align	1
 677              		.weak	_ZSt9make_pairIRhS0_ESt4pairINSt17__decay_and_stripIT_E6__typeENS2_IT0_E6__typeEEOS3_OS6_
 678              		.syntax unified
 679              		.thumb
 680              		.thumb_func
 681              		.fpu softvfp
 683              	_ZSt9make_pairIRhS0_ESt4pairINSt17__decay_and_stripIT_E6__typeENS2_IT0_E6__typeEEOS3_OS6_:
 684              	.LFB1572:
 332:c:\nxp\mcuxpressoide_10.2.1_795\ide\tools\arm-none-eabi\include\c++\7.2.1\bits\stl_pair.h **** 
 333:c:\nxp\mcuxpressoide_10.2.1_795\ide\tools\arm-none-eabi\include\c++\7.2.1\bits\stl_pair.h ****       template<typename _U1, typename _U2, typename
 334:c:\nxp\mcuxpressoide_10.2.1_795\ide\tools\arm-none-eabi\include\c++\7.2.1\bits\stl_pair.h **** 	       enable_if<_PCCP::template
 335:c:\nxp\mcuxpressoide_10.2.1_795\ide\tools\arm-none-eabi\include\c++\7.2.1\bits\stl_pair.h **** 			   _MoveConstructiblePair<_U1, _U2>()
 336:c:\nxp\mcuxpressoide_10.2.1_795\ide\tools\arm-none-eabi\include\c++\7.2.1\bits\stl_pair.h **** 			  && !_PCCP::template
 337:c:\nxp\mcuxpressoide_10.2.1_795\ide\tools\arm-none-eabi\include\c++\7.2.1\bits\stl_pair.h **** 			   _ImplicitlyMoveConvertiblePair<_U1, _U2>(),
ARM GAS  C:\Users\xavie\AppData\Local\Temp\ccbd98DL.s 			page 28


 338:c:\nxp\mcuxpressoide_10.2.1_795\ide\tools\arm-none-eabi\include\c++\7.2.1\bits\stl_pair.h ****                          bool>::type=false>
 339:c:\nxp\mcuxpressoide_10.2.1_795\ide\tools\arm-none-eabi\include\c++\7.2.1\bits\stl_pair.h **** 	explicit constexpr pair(_U1&& __x, _U2&& __y)
 340:c:\nxp\mcuxpressoide_10.2.1_795\ide\tools\arm-none-eabi\include\c++\7.2.1\bits\stl_pair.h **** 	: first(std::forward<_U1>(__x)), second(std::forward<_U2>(__y)) { }
 341:c:\nxp\mcuxpressoide_10.2.1_795\ide\tools\arm-none-eabi\include\c++\7.2.1\bits\stl_pair.h **** 
 342:c:\nxp\mcuxpressoide_10.2.1_795\ide\tools\arm-none-eabi\include\c++\7.2.1\bits\stl_pair.h **** 
 343:c:\nxp\mcuxpressoide_10.2.1_795\ide\tools\arm-none-eabi\include\c++\7.2.1\bits\stl_pair.h ****       template<typename _U1, typename _U2, typename
 344:c:\nxp\mcuxpressoide_10.2.1_795\ide\tools\arm-none-eabi\include\c++\7.2.1\bits\stl_pair.h **** 	       enable_if<_PCCFP<_U1, _U2>::template
 345:c:\nxp\mcuxpressoide_10.2.1_795\ide\tools\arm-none-eabi\include\c++\7.2.1\bits\stl_pair.h **** 			   _MoveConstructiblePair<_U1, _U2>()
 346:c:\nxp\mcuxpressoide_10.2.1_795\ide\tools\arm-none-eabi\include\c++\7.2.1\bits\stl_pair.h **** 			  && _PCCFP<_U1, _U2>::template
 347:c:\nxp\mcuxpressoide_10.2.1_795\ide\tools\arm-none-eabi\include\c++\7.2.1\bits\stl_pair.h **** 			   _ImplicitlyMoveConvertiblePair<_U1, _U2>(),
 348:c:\nxp\mcuxpressoide_10.2.1_795\ide\tools\arm-none-eabi\include\c++\7.2.1\bits\stl_pair.h ****                          bool>::type=true>
 349:c:\nxp\mcuxpressoide_10.2.1_795\ide\tools\arm-none-eabi\include\c++\7.2.1\bits\stl_pair.h **** 	constexpr pair(pair<_U1, _U2>&& __p)
 350:c:\nxp\mcuxpressoide_10.2.1_795\ide\tools\arm-none-eabi\include\c++\7.2.1\bits\stl_pair.h **** 	: first(std::forward<_U1>(__p.first)),
 351:c:\nxp\mcuxpressoide_10.2.1_795\ide\tools\arm-none-eabi\include\c++\7.2.1\bits\stl_pair.h **** 	  second(std::forward<_U2>(__p.second)) { }
 352:c:\nxp\mcuxpressoide_10.2.1_795\ide\tools\arm-none-eabi\include\c++\7.2.1\bits\stl_pair.h **** 
 353:c:\nxp\mcuxpressoide_10.2.1_795\ide\tools\arm-none-eabi\include\c++\7.2.1\bits\stl_pair.h ****       template<typename _U1, typename _U2, typename
 354:c:\nxp\mcuxpressoide_10.2.1_795\ide\tools\arm-none-eabi\include\c++\7.2.1\bits\stl_pair.h **** 	       enable_if<_PCCFP<_U1, _U2>::template
 355:c:\nxp\mcuxpressoide_10.2.1_795\ide\tools\arm-none-eabi\include\c++\7.2.1\bits\stl_pair.h **** 			   _MoveConstructiblePair<_U1, _U2>()
 356:c:\nxp\mcuxpressoide_10.2.1_795\ide\tools\arm-none-eabi\include\c++\7.2.1\bits\stl_pair.h **** 			  && !_PCCFP<_U1, _U2>::template
 357:c:\nxp\mcuxpressoide_10.2.1_795\ide\tools\arm-none-eabi\include\c++\7.2.1\bits\stl_pair.h **** 			   _ImplicitlyMoveConvertiblePair<_U1, _U2>(),
 358:c:\nxp\mcuxpressoide_10.2.1_795\ide\tools\arm-none-eabi\include\c++\7.2.1\bits\stl_pair.h ****                          bool>::type=false>
 359:c:\nxp\mcuxpressoide_10.2.1_795\ide\tools\arm-none-eabi\include\c++\7.2.1\bits\stl_pair.h **** 	explicit constexpr pair(pair<_U1, _U2>&& __p)
 360:c:\nxp\mcuxpressoide_10.2.1_795\ide\tools\arm-none-eabi\include\c++\7.2.1\bits\stl_pair.h **** 	: first(std::forward<_U1>(__p.first)),
 361:c:\nxp\mcuxpressoide_10.2.1_795\ide\tools\arm-none-eabi\include\c++\7.2.1\bits\stl_pair.h **** 	  second(std::forward<_U2>(__p.second)) { }
 362:c:\nxp\mcuxpressoide_10.2.1_795\ide\tools\arm-none-eabi\include\c++\7.2.1\bits\stl_pair.h **** 
 363:c:\nxp\mcuxpressoide_10.2.1_795\ide\tools\arm-none-eabi\include\c++\7.2.1\bits\stl_pair.h ****       template<typename... _Args1, typename... _Args2>
 364:c:\nxp\mcuxpressoide_10.2.1_795\ide\tools\arm-none-eabi\include\c++\7.2.1\bits\stl_pair.h ****         pair(piecewise_construct_t, tuple<_Args1...>, tuple<_Args2...>);
 365:c:\nxp\mcuxpressoide_10.2.1_795\ide\tools\arm-none-eabi\include\c++\7.2.1\bits\stl_pair.h **** 
 366:c:\nxp\mcuxpressoide_10.2.1_795\ide\tools\arm-none-eabi\include\c++\7.2.1\bits\stl_pair.h ****       pair&
 367:c:\nxp\mcuxpressoide_10.2.1_795\ide\tools\arm-none-eabi\include\c++\7.2.1\bits\stl_pair.h ****       operator=(typename conditional<
 368:c:\nxp\mcuxpressoide_10.2.1_795\ide\tools\arm-none-eabi\include\c++\7.2.1\bits\stl_pair.h **** 		__and_<is_copy_assignable<_T1>,
 369:c:\nxp\mcuxpressoide_10.2.1_795\ide\tools\arm-none-eabi\include\c++\7.2.1\bits\stl_pair.h **** 		       is_copy_assignable<_T2>>::value,
 370:c:\nxp\mcuxpressoide_10.2.1_795\ide\tools\arm-none-eabi\include\c++\7.2.1\bits\stl_pair.h **** 		const pair&, const __nonesuch_no_braces&>::type __p)
 371:c:\nxp\mcuxpressoide_10.2.1_795\ide\tools\arm-none-eabi\include\c++\7.2.1\bits\stl_pair.h ****       {
 372:c:\nxp\mcuxpressoide_10.2.1_795\ide\tools\arm-none-eabi\include\c++\7.2.1\bits\stl_pair.h **** 	first = __p.first;
 373:c:\nxp\mcuxpressoide_10.2.1_795\ide\tools\arm-none-eabi\include\c++\7.2.1\bits\stl_pair.h **** 	second = __p.second;
 374:c:\nxp\mcuxpressoide_10.2.1_795\ide\tools\arm-none-eabi\include\c++\7.2.1\bits\stl_pair.h **** 	return *this;
 375:c:\nxp\mcuxpressoide_10.2.1_795\ide\tools\arm-none-eabi\include\c++\7.2.1\bits\stl_pair.h ****       }
 376:c:\nxp\mcuxpressoide_10.2.1_795\ide\tools\arm-none-eabi\include\c++\7.2.1\bits\stl_pair.h **** 
 377:c:\nxp\mcuxpressoide_10.2.1_795\ide\tools\arm-none-eabi\include\c++\7.2.1\bits\stl_pair.h ****       pair&
 378:c:\nxp\mcuxpressoide_10.2.1_795\ide\tools\arm-none-eabi\include\c++\7.2.1\bits\stl_pair.h ****       operator=(typename conditional<
 379:c:\nxp\mcuxpressoide_10.2.1_795\ide\tools\arm-none-eabi\include\c++\7.2.1\bits\stl_pair.h **** 		__not_<__and_<is_copy_assignable<_T1>,
 380:c:\nxp\mcuxpressoide_10.2.1_795\ide\tools\arm-none-eabi\include\c++\7.2.1\bits\stl_pair.h **** 		              is_copy_assignable<_T2>>>::value,
 381:c:\nxp\mcuxpressoide_10.2.1_795\ide\tools\arm-none-eabi\include\c++\7.2.1\bits\stl_pair.h **** 		const pair&, const __nonesuch_no_braces&>::type __p) = delete;
 382:c:\nxp\mcuxpressoide_10.2.1_795\ide\tools\arm-none-eabi\include\c++\7.2.1\bits\stl_pair.h **** 
 383:c:\nxp\mcuxpressoide_10.2.1_795\ide\tools\arm-none-eabi\include\c++\7.2.1\bits\stl_pair.h ****       pair&
 384:c:\nxp\mcuxpressoide_10.2.1_795\ide\tools\arm-none-eabi\include\c++\7.2.1\bits\stl_pair.h ****       operator=(typename conditional<
 385:c:\nxp\mcuxpressoide_10.2.1_795\ide\tools\arm-none-eabi\include\c++\7.2.1\bits\stl_pair.h **** 		__and_<is_move_assignable<_T1>,
 386:c:\nxp\mcuxpressoide_10.2.1_795\ide\tools\arm-none-eabi\include\c++\7.2.1\bits\stl_pair.h **** 		       is_move_assignable<_T2>>::value,
 387:c:\nxp\mcuxpressoide_10.2.1_795\ide\tools\arm-none-eabi\include\c++\7.2.1\bits\stl_pair.h **** 		pair&&, __nonesuch_no_braces&&>::type __p)
 388:c:\nxp\mcuxpressoide_10.2.1_795\ide\tools\arm-none-eabi\include\c++\7.2.1\bits\stl_pair.h ****       noexcept(__and_<is_nothrow_move_assignable<_T1>,
 389:c:\nxp\mcuxpressoide_10.2.1_795\ide\tools\arm-none-eabi\include\c++\7.2.1\bits\stl_pair.h **** 	              is_nothrow_move_assignable<_T2>>::value)
 390:c:\nxp\mcuxpressoide_10.2.1_795\ide\tools\arm-none-eabi\include\c++\7.2.1\bits\stl_pair.h ****       {
 391:c:\nxp\mcuxpressoide_10.2.1_795\ide\tools\arm-none-eabi\include\c++\7.2.1\bits\stl_pair.h **** 	first = std::forward<first_type>(__p.first);
 392:c:\nxp\mcuxpressoide_10.2.1_795\ide\tools\arm-none-eabi\include\c++\7.2.1\bits\stl_pair.h **** 	second = std::forward<second_type>(__p.second);
 393:c:\nxp\mcuxpressoide_10.2.1_795\ide\tools\arm-none-eabi\include\c++\7.2.1\bits\stl_pair.h **** 	return *this;
 394:c:\nxp\mcuxpressoide_10.2.1_795\ide\tools\arm-none-eabi\include\c++\7.2.1\bits\stl_pair.h ****       }
ARM GAS  C:\Users\xavie\AppData\Local\Temp\ccbd98DL.s 			page 29


 395:c:\nxp\mcuxpressoide_10.2.1_795\ide\tools\arm-none-eabi\include\c++\7.2.1\bits\stl_pair.h **** 
 396:c:\nxp\mcuxpressoide_10.2.1_795\ide\tools\arm-none-eabi\include\c++\7.2.1\bits\stl_pair.h ****       template<typename _U1, typename _U2>
 397:c:\nxp\mcuxpressoide_10.2.1_795\ide\tools\arm-none-eabi\include\c++\7.2.1\bits\stl_pair.h ****       typename enable_if<__and_<is_assignable<_T1&, const _U1&>,
 398:c:\nxp\mcuxpressoide_10.2.1_795\ide\tools\arm-none-eabi\include\c++\7.2.1\bits\stl_pair.h **** 				is_assignable<_T2&, const _U2&>>::value,
 399:c:\nxp\mcuxpressoide_10.2.1_795\ide\tools\arm-none-eabi\include\c++\7.2.1\bits\stl_pair.h **** 			 pair&>::type
 400:c:\nxp\mcuxpressoide_10.2.1_795\ide\tools\arm-none-eabi\include\c++\7.2.1\bits\stl_pair.h **** 	operator=(const pair<_U1, _U2>& __p)
 401:c:\nxp\mcuxpressoide_10.2.1_795\ide\tools\arm-none-eabi\include\c++\7.2.1\bits\stl_pair.h **** 	{
 402:c:\nxp\mcuxpressoide_10.2.1_795\ide\tools\arm-none-eabi\include\c++\7.2.1\bits\stl_pair.h **** 	  first = __p.first;
 403:c:\nxp\mcuxpressoide_10.2.1_795\ide\tools\arm-none-eabi\include\c++\7.2.1\bits\stl_pair.h **** 	  second = __p.second;
 404:c:\nxp\mcuxpressoide_10.2.1_795\ide\tools\arm-none-eabi\include\c++\7.2.1\bits\stl_pair.h **** 	  return *this;
 405:c:\nxp\mcuxpressoide_10.2.1_795\ide\tools\arm-none-eabi\include\c++\7.2.1\bits\stl_pair.h **** 	}
 406:c:\nxp\mcuxpressoide_10.2.1_795\ide\tools\arm-none-eabi\include\c++\7.2.1\bits\stl_pair.h **** 
 407:c:\nxp\mcuxpressoide_10.2.1_795\ide\tools\arm-none-eabi\include\c++\7.2.1\bits\stl_pair.h ****       template<typename _U1, typename _U2>
 408:c:\nxp\mcuxpressoide_10.2.1_795\ide\tools\arm-none-eabi\include\c++\7.2.1\bits\stl_pair.h ****       typename enable_if<__and_<is_assignable<_T1&, _U1&&>,
 409:c:\nxp\mcuxpressoide_10.2.1_795\ide\tools\arm-none-eabi\include\c++\7.2.1\bits\stl_pair.h **** 				is_assignable<_T2&, _U2&&>>::value,
 410:c:\nxp\mcuxpressoide_10.2.1_795\ide\tools\arm-none-eabi\include\c++\7.2.1\bits\stl_pair.h **** 			 pair&>::type
 411:c:\nxp\mcuxpressoide_10.2.1_795\ide\tools\arm-none-eabi\include\c++\7.2.1\bits\stl_pair.h **** 	operator=(pair<_U1, _U2>&& __p)
 412:c:\nxp\mcuxpressoide_10.2.1_795\ide\tools\arm-none-eabi\include\c++\7.2.1\bits\stl_pair.h **** 	{
 413:c:\nxp\mcuxpressoide_10.2.1_795\ide\tools\arm-none-eabi\include\c++\7.2.1\bits\stl_pair.h **** 	  first = std::forward<_U1>(__p.first);
 414:c:\nxp\mcuxpressoide_10.2.1_795\ide\tools\arm-none-eabi\include\c++\7.2.1\bits\stl_pair.h **** 	  second = std::forward<_U2>(__p.second);
 415:c:\nxp\mcuxpressoide_10.2.1_795\ide\tools\arm-none-eabi\include\c++\7.2.1\bits\stl_pair.h **** 	  return *this;
 416:c:\nxp\mcuxpressoide_10.2.1_795\ide\tools\arm-none-eabi\include\c++\7.2.1\bits\stl_pair.h **** 	}
 417:c:\nxp\mcuxpressoide_10.2.1_795\ide\tools\arm-none-eabi\include\c++\7.2.1\bits\stl_pair.h **** 
 418:c:\nxp\mcuxpressoide_10.2.1_795\ide\tools\arm-none-eabi\include\c++\7.2.1\bits\stl_pair.h ****       void
 419:c:\nxp\mcuxpressoide_10.2.1_795\ide\tools\arm-none-eabi\include\c++\7.2.1\bits\stl_pair.h ****       swap(pair& __p)
 420:c:\nxp\mcuxpressoide_10.2.1_795\ide\tools\arm-none-eabi\include\c++\7.2.1\bits\stl_pair.h ****       noexcept(__and_<__is_nothrow_swappable<_T1>,
 421:c:\nxp\mcuxpressoide_10.2.1_795\ide\tools\arm-none-eabi\include\c++\7.2.1\bits\stl_pair.h ****                       __is_nothrow_swappable<_T2>>::value)
 422:c:\nxp\mcuxpressoide_10.2.1_795\ide\tools\arm-none-eabi\include\c++\7.2.1\bits\stl_pair.h ****       {
 423:c:\nxp\mcuxpressoide_10.2.1_795\ide\tools\arm-none-eabi\include\c++\7.2.1\bits\stl_pair.h **** 	using std::swap;
 424:c:\nxp\mcuxpressoide_10.2.1_795\ide\tools\arm-none-eabi\include\c++\7.2.1\bits\stl_pair.h **** 	swap(first, __p.first);
 425:c:\nxp\mcuxpressoide_10.2.1_795\ide\tools\arm-none-eabi\include\c++\7.2.1\bits\stl_pair.h **** 	swap(second, __p.second);
 426:c:\nxp\mcuxpressoide_10.2.1_795\ide\tools\arm-none-eabi\include\c++\7.2.1\bits\stl_pair.h ****       }
 427:c:\nxp\mcuxpressoide_10.2.1_795\ide\tools\arm-none-eabi\include\c++\7.2.1\bits\stl_pair.h **** 
 428:c:\nxp\mcuxpressoide_10.2.1_795\ide\tools\arm-none-eabi\include\c++\7.2.1\bits\stl_pair.h ****     private:
 429:c:\nxp\mcuxpressoide_10.2.1_795\ide\tools\arm-none-eabi\include\c++\7.2.1\bits\stl_pair.h ****       template<typename... _Args1, std::size_t... _Indexes1,
 430:c:\nxp\mcuxpressoide_10.2.1_795\ide\tools\arm-none-eabi\include\c++\7.2.1\bits\stl_pair.h ****                typename... _Args2, std::size_t... _Indexes2>
 431:c:\nxp\mcuxpressoide_10.2.1_795\ide\tools\arm-none-eabi\include\c++\7.2.1\bits\stl_pair.h ****         pair(tuple<_Args1...>&, tuple<_Args2...>&,
 432:c:\nxp\mcuxpressoide_10.2.1_795\ide\tools\arm-none-eabi\include\c++\7.2.1\bits\stl_pair.h ****              _Index_tuple<_Indexes1...>, _Index_tuple<_Indexes2...>);
 433:c:\nxp\mcuxpressoide_10.2.1_795\ide\tools\arm-none-eabi\include\c++\7.2.1\bits\stl_pair.h **** #endif
 434:c:\nxp\mcuxpressoide_10.2.1_795\ide\tools\arm-none-eabi\include\c++\7.2.1\bits\stl_pair.h ****     };
 435:c:\nxp\mcuxpressoide_10.2.1_795\ide\tools\arm-none-eabi\include\c++\7.2.1\bits\stl_pair.h **** 
 436:c:\nxp\mcuxpressoide_10.2.1_795\ide\tools\arm-none-eabi\include\c++\7.2.1\bits\stl_pair.h **** #if __cpp_deduction_guides >= 201606
 437:c:\nxp\mcuxpressoide_10.2.1_795\ide\tools\arm-none-eabi\include\c++\7.2.1\bits\stl_pair.h ****   template<typename _T1, typename _T2> pair(_T1, _T2) -> pair<_T1, _T2>;
 438:c:\nxp\mcuxpressoide_10.2.1_795\ide\tools\arm-none-eabi\include\c++\7.2.1\bits\stl_pair.h **** #endif
 439:c:\nxp\mcuxpressoide_10.2.1_795\ide\tools\arm-none-eabi\include\c++\7.2.1\bits\stl_pair.h **** 
 440:c:\nxp\mcuxpressoide_10.2.1_795\ide\tools\arm-none-eabi\include\c++\7.2.1\bits\stl_pair.h ****   /// Two pairs of the same type are equal iff their members are equal.
 441:c:\nxp\mcuxpressoide_10.2.1_795\ide\tools\arm-none-eabi\include\c++\7.2.1\bits\stl_pair.h ****   template<typename _T1, typename _T2>
 442:c:\nxp\mcuxpressoide_10.2.1_795\ide\tools\arm-none-eabi\include\c++\7.2.1\bits\stl_pair.h ****     inline _GLIBCXX_CONSTEXPR bool
 443:c:\nxp\mcuxpressoide_10.2.1_795\ide\tools\arm-none-eabi\include\c++\7.2.1\bits\stl_pair.h ****     operator==(const pair<_T1, _T2>& __x, const pair<_T1, _T2>& __y)
 444:c:\nxp\mcuxpressoide_10.2.1_795\ide\tools\arm-none-eabi\include\c++\7.2.1\bits\stl_pair.h ****     { return __x.first == __y.first && __x.second == __y.second; }
 445:c:\nxp\mcuxpressoide_10.2.1_795\ide\tools\arm-none-eabi\include\c++\7.2.1\bits\stl_pair.h **** 
 446:c:\nxp\mcuxpressoide_10.2.1_795\ide\tools\arm-none-eabi\include\c++\7.2.1\bits\stl_pair.h ****   /// <http://gcc.gnu.org/onlinedocs/libstdc++/manual/utilities.html>
 447:c:\nxp\mcuxpressoide_10.2.1_795\ide\tools\arm-none-eabi\include\c++\7.2.1\bits\stl_pair.h ****   template<typename _T1, typename _T2>
 448:c:\nxp\mcuxpressoide_10.2.1_795\ide\tools\arm-none-eabi\include\c++\7.2.1\bits\stl_pair.h ****     inline _GLIBCXX_CONSTEXPR bool
 449:c:\nxp\mcuxpressoide_10.2.1_795\ide\tools\arm-none-eabi\include\c++\7.2.1\bits\stl_pair.h ****     operator<(const pair<_T1, _T2>& __x, const pair<_T1, _T2>& __y)
 450:c:\nxp\mcuxpressoide_10.2.1_795\ide\tools\arm-none-eabi\include\c++\7.2.1\bits\stl_pair.h ****     { return __x.first < __y.first
 451:c:\nxp\mcuxpressoide_10.2.1_795\ide\tools\arm-none-eabi\include\c++\7.2.1\bits\stl_pair.h **** 	     || (!(__y.first < __x.first) && __x.second < __y.second); }
ARM GAS  C:\Users\xavie\AppData\Local\Temp\ccbd98DL.s 			page 30


 452:c:\nxp\mcuxpressoide_10.2.1_795\ide\tools\arm-none-eabi\include\c++\7.2.1\bits\stl_pair.h **** 
 453:c:\nxp\mcuxpressoide_10.2.1_795\ide\tools\arm-none-eabi\include\c++\7.2.1\bits\stl_pair.h ****   /// Uses @c operator== to find the result.
 454:c:\nxp\mcuxpressoide_10.2.1_795\ide\tools\arm-none-eabi\include\c++\7.2.1\bits\stl_pair.h ****   template<typename _T1, typename _T2>
 455:c:\nxp\mcuxpressoide_10.2.1_795\ide\tools\arm-none-eabi\include\c++\7.2.1\bits\stl_pair.h ****     inline _GLIBCXX_CONSTEXPR bool
 456:c:\nxp\mcuxpressoide_10.2.1_795\ide\tools\arm-none-eabi\include\c++\7.2.1\bits\stl_pair.h ****     operator!=(const pair<_T1, _T2>& __x, const pair<_T1, _T2>& __y)
 457:c:\nxp\mcuxpressoide_10.2.1_795\ide\tools\arm-none-eabi\include\c++\7.2.1\bits\stl_pair.h ****     { return !(__x == __y); }
 458:c:\nxp\mcuxpressoide_10.2.1_795\ide\tools\arm-none-eabi\include\c++\7.2.1\bits\stl_pair.h **** 
 459:c:\nxp\mcuxpressoide_10.2.1_795\ide\tools\arm-none-eabi\include\c++\7.2.1\bits\stl_pair.h ****   /// Uses @c operator< to find the result.
 460:c:\nxp\mcuxpressoide_10.2.1_795\ide\tools\arm-none-eabi\include\c++\7.2.1\bits\stl_pair.h ****   template<typename _T1, typename _T2>
 461:c:\nxp\mcuxpressoide_10.2.1_795\ide\tools\arm-none-eabi\include\c++\7.2.1\bits\stl_pair.h ****     inline _GLIBCXX_CONSTEXPR bool
 462:c:\nxp\mcuxpressoide_10.2.1_795\ide\tools\arm-none-eabi\include\c++\7.2.1\bits\stl_pair.h ****     operator>(const pair<_T1, _T2>& __x, const pair<_T1, _T2>& __y)
 463:c:\nxp\mcuxpressoide_10.2.1_795\ide\tools\arm-none-eabi\include\c++\7.2.1\bits\stl_pair.h ****     { return __y < __x; }
 464:c:\nxp\mcuxpressoide_10.2.1_795\ide\tools\arm-none-eabi\include\c++\7.2.1\bits\stl_pair.h **** 
 465:c:\nxp\mcuxpressoide_10.2.1_795\ide\tools\arm-none-eabi\include\c++\7.2.1\bits\stl_pair.h ****   /// Uses @c operator< to find the result.
 466:c:\nxp\mcuxpressoide_10.2.1_795\ide\tools\arm-none-eabi\include\c++\7.2.1\bits\stl_pair.h ****   template<typename _T1, typename _T2>
 467:c:\nxp\mcuxpressoide_10.2.1_795\ide\tools\arm-none-eabi\include\c++\7.2.1\bits\stl_pair.h ****     inline _GLIBCXX_CONSTEXPR bool
 468:c:\nxp\mcuxpressoide_10.2.1_795\ide\tools\arm-none-eabi\include\c++\7.2.1\bits\stl_pair.h ****     operator<=(const pair<_T1, _T2>& __x, const pair<_T1, _T2>& __y)
 469:c:\nxp\mcuxpressoide_10.2.1_795\ide\tools\arm-none-eabi\include\c++\7.2.1\bits\stl_pair.h ****     { return !(__y < __x); }
 470:c:\nxp\mcuxpressoide_10.2.1_795\ide\tools\arm-none-eabi\include\c++\7.2.1\bits\stl_pair.h **** 
 471:c:\nxp\mcuxpressoide_10.2.1_795\ide\tools\arm-none-eabi\include\c++\7.2.1\bits\stl_pair.h ****   /// Uses @c operator< to find the result.
 472:c:\nxp\mcuxpressoide_10.2.1_795\ide\tools\arm-none-eabi\include\c++\7.2.1\bits\stl_pair.h ****   template<typename _T1, typename _T2>
 473:c:\nxp\mcuxpressoide_10.2.1_795\ide\tools\arm-none-eabi\include\c++\7.2.1\bits\stl_pair.h ****     inline _GLIBCXX_CONSTEXPR bool
 474:c:\nxp\mcuxpressoide_10.2.1_795\ide\tools\arm-none-eabi\include\c++\7.2.1\bits\stl_pair.h ****     operator>=(const pair<_T1, _T2>& __x, const pair<_T1, _T2>& __y)
 475:c:\nxp\mcuxpressoide_10.2.1_795\ide\tools\arm-none-eabi\include\c++\7.2.1\bits\stl_pair.h ****     { return !(__x < __y); }
 476:c:\nxp\mcuxpressoide_10.2.1_795\ide\tools\arm-none-eabi\include\c++\7.2.1\bits\stl_pair.h **** 
 477:c:\nxp\mcuxpressoide_10.2.1_795\ide\tools\arm-none-eabi\include\c++\7.2.1\bits\stl_pair.h **** #if __cplusplus >= 201103L
 478:c:\nxp\mcuxpressoide_10.2.1_795\ide\tools\arm-none-eabi\include\c++\7.2.1\bits\stl_pair.h ****   /// See std::pair::swap().
 479:c:\nxp\mcuxpressoide_10.2.1_795\ide\tools\arm-none-eabi\include\c++\7.2.1\bits\stl_pair.h ****   // Note:  no std::swap overloads in C++03 mode, this has performance
 480:c:\nxp\mcuxpressoide_10.2.1_795\ide\tools\arm-none-eabi\include\c++\7.2.1\bits\stl_pair.h ****   //        implications, see, eg, libstdc++/38466.
 481:c:\nxp\mcuxpressoide_10.2.1_795\ide\tools\arm-none-eabi\include\c++\7.2.1\bits\stl_pair.h ****   template<typename _T1, typename _T2>
 482:c:\nxp\mcuxpressoide_10.2.1_795\ide\tools\arm-none-eabi\include\c++\7.2.1\bits\stl_pair.h ****     inline
 483:c:\nxp\mcuxpressoide_10.2.1_795\ide\tools\arm-none-eabi\include\c++\7.2.1\bits\stl_pair.h **** #if __cplusplus > 201402L || !defined(__STRICT_ANSI__) // c++1z or gnu++11
 484:c:\nxp\mcuxpressoide_10.2.1_795\ide\tools\arm-none-eabi\include\c++\7.2.1\bits\stl_pair.h ****     // Constrained free swap overload, see p0185r1
 485:c:\nxp\mcuxpressoide_10.2.1_795\ide\tools\arm-none-eabi\include\c++\7.2.1\bits\stl_pair.h ****     typename enable_if<__and_<__is_swappable<_T1>,
 486:c:\nxp\mcuxpressoide_10.2.1_795\ide\tools\arm-none-eabi\include\c++\7.2.1\bits\stl_pair.h ****                               __is_swappable<_T2>>::value>::type
 487:c:\nxp\mcuxpressoide_10.2.1_795\ide\tools\arm-none-eabi\include\c++\7.2.1\bits\stl_pair.h **** #else
 488:c:\nxp\mcuxpressoide_10.2.1_795\ide\tools\arm-none-eabi\include\c++\7.2.1\bits\stl_pair.h ****     void
 489:c:\nxp\mcuxpressoide_10.2.1_795\ide\tools\arm-none-eabi\include\c++\7.2.1\bits\stl_pair.h **** #endif
 490:c:\nxp\mcuxpressoide_10.2.1_795\ide\tools\arm-none-eabi\include\c++\7.2.1\bits\stl_pair.h ****     swap(pair<_T1, _T2>& __x, pair<_T1, _T2>& __y)
 491:c:\nxp\mcuxpressoide_10.2.1_795\ide\tools\arm-none-eabi\include\c++\7.2.1\bits\stl_pair.h ****     noexcept(noexcept(__x.swap(__y)))
 492:c:\nxp\mcuxpressoide_10.2.1_795\ide\tools\arm-none-eabi\include\c++\7.2.1\bits\stl_pair.h ****     { __x.swap(__y); }
 493:c:\nxp\mcuxpressoide_10.2.1_795\ide\tools\arm-none-eabi\include\c++\7.2.1\bits\stl_pair.h **** 
 494:c:\nxp\mcuxpressoide_10.2.1_795\ide\tools\arm-none-eabi\include\c++\7.2.1\bits\stl_pair.h **** #if __cplusplus > 201402L || !defined(__STRICT_ANSI__) // c++1z or gnu++11
 495:c:\nxp\mcuxpressoide_10.2.1_795\ide\tools\arm-none-eabi\include\c++\7.2.1\bits\stl_pair.h ****   template<typename _T1, typename _T2>
 496:c:\nxp\mcuxpressoide_10.2.1_795\ide\tools\arm-none-eabi\include\c++\7.2.1\bits\stl_pair.h ****     typename enable_if<!__and_<__is_swappable<_T1>,
 497:c:\nxp\mcuxpressoide_10.2.1_795\ide\tools\arm-none-eabi\include\c++\7.2.1\bits\stl_pair.h **** 			       __is_swappable<_T2>>::value>::type
 498:c:\nxp\mcuxpressoide_10.2.1_795\ide\tools\arm-none-eabi\include\c++\7.2.1\bits\stl_pair.h ****     swap(pair<_T1, _T2>&, pair<_T1, _T2>&) = delete;
 499:c:\nxp\mcuxpressoide_10.2.1_795\ide\tools\arm-none-eabi\include\c++\7.2.1\bits\stl_pair.h **** #endif
 500:c:\nxp\mcuxpressoide_10.2.1_795\ide\tools\arm-none-eabi\include\c++\7.2.1\bits\stl_pair.h **** #endif // __cplusplus >= 201103L
 501:c:\nxp\mcuxpressoide_10.2.1_795\ide\tools\arm-none-eabi\include\c++\7.2.1\bits\stl_pair.h **** 
 502:c:\nxp\mcuxpressoide_10.2.1_795\ide\tools\arm-none-eabi\include\c++\7.2.1\bits\stl_pair.h ****   /**
 503:c:\nxp\mcuxpressoide_10.2.1_795\ide\tools\arm-none-eabi\include\c++\7.2.1\bits\stl_pair.h ****    *  @brief A convenience wrapper for creating a pair from two objects.
 504:c:\nxp\mcuxpressoide_10.2.1_795\ide\tools\arm-none-eabi\include\c++\7.2.1\bits\stl_pair.h ****    *  @param  __x  The first object.
 505:c:\nxp\mcuxpressoide_10.2.1_795\ide\tools\arm-none-eabi\include\c++\7.2.1\bits\stl_pair.h ****    *  @param  __y  The second object.
 506:c:\nxp\mcuxpressoide_10.2.1_795\ide\tools\arm-none-eabi\include\c++\7.2.1\bits\stl_pair.h ****    *  @return   A newly-constructed pair<> object of the appropriate type.
 507:c:\nxp\mcuxpressoide_10.2.1_795\ide\tools\arm-none-eabi\include\c++\7.2.1\bits\stl_pair.h ****    *
 508:c:\nxp\mcuxpressoide_10.2.1_795\ide\tools\arm-none-eabi\include\c++\7.2.1\bits\stl_pair.h ****    *  The standard requires that the objects be passed by reference-to-const,
ARM GAS  C:\Users\xavie\AppData\Local\Temp\ccbd98DL.s 			page 31


 509:c:\nxp\mcuxpressoide_10.2.1_795\ide\tools\arm-none-eabi\include\c++\7.2.1\bits\stl_pair.h ****    *  but LWG issue #181 says they should be passed by const value.  We follow
 510:c:\nxp\mcuxpressoide_10.2.1_795\ide\tools\arm-none-eabi\include\c++\7.2.1\bits\stl_pair.h ****    *  the LWG by default.
 511:c:\nxp\mcuxpressoide_10.2.1_795\ide\tools\arm-none-eabi\include\c++\7.2.1\bits\stl_pair.h ****    */
 512:c:\nxp\mcuxpressoide_10.2.1_795\ide\tools\arm-none-eabi\include\c++\7.2.1\bits\stl_pair.h ****   // _GLIBCXX_RESOLVE_LIB_DEFECTS
 513:c:\nxp\mcuxpressoide_10.2.1_795\ide\tools\arm-none-eabi\include\c++\7.2.1\bits\stl_pair.h ****   // 181.  make_pair() unintended behavior
 514:c:\nxp\mcuxpressoide_10.2.1_795\ide\tools\arm-none-eabi\include\c++\7.2.1\bits\stl_pair.h **** #if __cplusplus >= 201103L
 515:c:\nxp\mcuxpressoide_10.2.1_795\ide\tools\arm-none-eabi\include\c++\7.2.1\bits\stl_pair.h ****   // NB: DR 706.
 516:c:\nxp\mcuxpressoide_10.2.1_795\ide\tools\arm-none-eabi\include\c++\7.2.1\bits\stl_pair.h ****   template<typename _T1, typename _T2>
 517:c:\nxp\mcuxpressoide_10.2.1_795\ide\tools\arm-none-eabi\include\c++\7.2.1\bits\stl_pair.h ****     constexpr pair<typename __decay_and_strip<_T1>::__type,
 518:c:\nxp\mcuxpressoide_10.2.1_795\ide\tools\arm-none-eabi\include\c++\7.2.1\bits\stl_pair.h ****                    typename __decay_and_strip<_T2>::__type>
 519:c:\nxp\mcuxpressoide_10.2.1_795\ide\tools\arm-none-eabi\include\c++\7.2.1\bits\stl_pair.h ****     make_pair(_T1&& __x, _T2&& __y)
 685              		.loc 6 519 0
 686              		.cfi_startproc
 687              		@ args = 0, pretend = 0, frame = 16
 688              		@ frame_needed = 1, uses_anonymous_args = 0
 689 0000 90B5     		push	{r4, r7, lr}
 690              		.cfi_def_cfa_offset 12
 691              		.cfi_offset 4, -12
 692              		.cfi_offset 7, -8
 693              		.cfi_offset 14, -4
 694 0002 85B0     		sub	sp, sp, #20
 695              		.cfi_def_cfa_offset 32
 696 0004 00AF     		add	r7, sp, #0
 697              		.cfi_def_cfa_register 7
 698 0006 7860     		str	r0, [r7, #4]
 699 0008 3960     		str	r1, [r7]
 520:c:\nxp\mcuxpressoide_10.2.1_795\ide\tools\arm-none-eabi\include\c++\7.2.1\bits\stl_pair.h ****     {
 521:c:\nxp\mcuxpressoide_10.2.1_795\ide\tools\arm-none-eabi\include\c++\7.2.1\bits\stl_pair.h ****       typedef typename __decay_and_strip<_T1>::__type __ds_type1;
 522:c:\nxp\mcuxpressoide_10.2.1_795\ide\tools\arm-none-eabi\include\c++\7.2.1\bits\stl_pair.h ****       typedef typename __decay_and_strip<_T2>::__type __ds_type2;
 523:c:\nxp\mcuxpressoide_10.2.1_795\ide\tools\arm-none-eabi\include\c++\7.2.1\bits\stl_pair.h ****       typedef pair<__ds_type1, __ds_type2> 	      __pair_type;
 524:c:\nxp\mcuxpressoide_10.2.1_795\ide\tools\arm-none-eabi\include\c++\7.2.1\bits\stl_pair.h ****       return __pair_type(std::forward<_T1>(__x), std::forward<_T2>(__y));
 700              		.loc 6 524 0
 701 000a 7868     		ldr	r0, [r7, #4]
 702 000c FFF7FEFF 		bl	_ZSt7forwardIRhEOT_RNSt16remove_referenceIS1_E4typeE
 703 0010 0446     		mov	r4, r0
 704 0012 3868     		ldr	r0, [r7]
 705 0014 FFF7FEFF 		bl	_ZSt7forwardIRhEOT_RNSt16remove_referenceIS1_E4typeE
 706 0018 0246     		mov	r2, r0
 707 001a 07F10C03 		add	r3, r7, #12
 708 001e 2146     		mov	r1, r4
 709 0020 1846     		mov	r0, r3
 710 0022 FFF7FEFF 		bl	_ZNSt4pairIhhEC1IRhS2_Lb1EEEOT_OT0_
 711 0026 BB89     		ldrh	r3, [r7, #12]	@ movhi
 712 0028 3B81     		strh	r3, [r7, #8]	@ movhi
 713 002a 0023     		movs	r3, #0
 714 002c 3A7A     		ldrb	r2, [r7, #8]	@ zero_extendqisi2
 715 002e 62F30703 		bfi	r3, r2, #0, #8
 716 0032 7A7A     		ldrb	r2, [r7, #9]	@ zero_extendqisi2
 717 0034 62F30F23 		bfi	r3, r2, #8, #8
 525:c:\nxp\mcuxpressoide_10.2.1_795\ide\tools\arm-none-eabi\include\c++\7.2.1\bits\stl_pair.h ****     }
 718              		.loc 6 525 0
 719 0038 1846     		mov	r0, r3	@ movhi
 720 003a 1437     		adds	r7, r7, #20
 721              		.cfi_def_cfa_offset 12
 722 003c BD46     		mov	sp, r7
 723              		.cfi_def_cfa_register 13
 724              		@ sp needed
ARM GAS  C:\Users\xavie\AppData\Local\Temp\ccbd98DL.s 			page 32


 725 003e 90BD     		pop	{r4, r7, pc}
 726              		.cfi_endproc
 727              	.LFE1572:
 729              		.section	.text._ZN4Game22getAvailableFieldsInfoEh,"ax",%progbits
 730              		.align	1
 731              		.global	_ZN4Game22getAvailableFieldsInfoEh
 732              		.syntax unified
 733              		.thumb
 734              		.thumb_func
 735              		.fpu softvfp
 737              	_ZN4Game22getAvailableFieldsInfoEh:
 738              	.LFB1567:
 739              		.file 7 "../src/game.cpp"
   1:../src/game.cpp **** #include <stdint.h>
   2:../src/game.cpp **** #include <utility>
   3:../src/game.cpp **** #include "game.h"
   4:../src/game.cpp **** #include "lpc_xav.h"
   5:../src/game.cpp **** #include "interfaces.h"
   6:../src/game.cpp **** #include <cstring>
   7:../src/game.cpp **** 
   8:../src/game.cpp **** extern _I2C I2C_Bus;
   9:../src/game.cpp **** 
  10:../src/game.cpp **** uint8_t AvailableResourceFields[5];
  11:../src/game.cpp **** uint8_t MaxResourceFields[5];
  12:../src/game.cpp **** resources_t Game::Resources = {0};
  13:../src/game.cpp **** resources_t Game::ProdPer5 = {0};
  14:../src/game.cpp **** save_cell_t Game::loadBuffer = {0};
  15:../src/game.cpp **** 
  16:../src/game.cpp **** SaveManager Game::SaveHandler;
  17:../src/game.cpp **** 
  18:../src/game.cpp **** std::pair<uint8_t, uint8_t> Game::getAvailableFieldsInfo(uint8_t buildType)
  19:../src/game.cpp **** {
 740              		.loc 7 19 0
 741              		.cfi_startproc
 742              		@ args = 0, pretend = 0, frame = 16
 743              		@ frame_needed = 1, uses_anonymous_args = 0
 744 0000 80B5     		push	{r7, lr}
 745              		.cfi_def_cfa_offset 8
 746              		.cfi_offset 7, -8
 747              		.cfi_offset 14, -4
 748 0002 84B0     		sub	sp, sp, #16
 749              		.cfi_def_cfa_offset 24
 750 0004 00AF     		add	r7, sp, #0
 751              		.cfi_def_cfa_register 7
 752 0006 0346     		mov	r3, r0
 753 0008 FB71     		strb	r3, [r7, #7]
  20:../src/game.cpp **** 	std::pair<uint8_t, uint8_t> temp = std::make_pair(AvailableResourceFields[buildType - 9], MaxResou
 754              		.loc 7 20 0
 755 000a FB79     		ldrb	r3, [r7, #7]	@ zero_extendqisi2
 756 000c 093B     		subs	r3, r3, #9
 757 000e 0C4A     		ldr	r2, .L37
 758 0010 9818     		adds	r0, r3, r2
 759 0012 FB79     		ldrb	r3, [r7, #7]	@ zero_extendqisi2
 760 0014 093B     		subs	r3, r3, #9
 761 0016 0B4A     		ldr	r2, .L37+4
 762 0018 1344     		add	r3, r3, r2
 763 001a 1946     		mov	r1, r3
ARM GAS  C:\Users\xavie\AppData\Local\Temp\ccbd98DL.s 			page 33


 764 001c FFF7FEFF 		bl	_ZSt9make_pairIRhS0_ESt4pairINSt17__decay_and_stripIT_E6__typeENS2_IT0_E6__typeEEOS3_OS6_
 765 0020 0346     		mov	r3, r0	@ movhi
 766 0022 3B81     		strh	r3, [r7, #8]	@ movhi
  21:../src/game.cpp **** 	return temp;
 767              		.loc 7 21 0
 768 0024 3B89     		ldrh	r3, [r7, #8]	@ movhi
 769 0026 BB81     		strh	r3, [r7, #12]	@ movhi
 770 0028 0023     		movs	r3, #0
 771 002a 3A7B     		ldrb	r2, [r7, #12]	@ zero_extendqisi2
 772 002c 62F30703 		bfi	r3, r2, #0, #8
 773 0030 7A7B     		ldrb	r2, [r7, #13]	@ zero_extendqisi2
 774 0032 62F30F23 		bfi	r3, r2, #8, #8
  22:../src/game.cpp **** }
 775              		.loc 7 22 0
 776 0036 1846     		mov	r0, r3	@ movhi
 777 0038 1037     		adds	r7, r7, #16
 778              		.cfi_def_cfa_offset 8
 779 003a BD46     		mov	sp, r7
 780              		.cfi_def_cfa_register 13
 781              		@ sp needed
 782 003c 80BD     		pop	{r7, pc}
 783              	.L38:
 784 003e 00BF     		.align	2
 785              	.L37:
 786 0040 00000000 		.word	AvailableResourceFields
 787 0044 00000000 		.word	MaxResourceFields
 788              		.cfi_endproc
 789              	.LFE1567:
 791              		.section	.text._ZN4Game12AddUsedFieldEh,"ax",%progbits
 792              		.align	1
 793              		.global	_ZN4Game12AddUsedFieldEh
 794              		.syntax unified
 795              		.thumb
 796              		.thumb_func
 797              		.fpu softvfp
 799              	_ZN4Game12AddUsedFieldEh:
 800              	.LFB1585:
  23:../src/game.cpp **** 
  24:../src/game.cpp **** void Game::AddUsedField(uint8_t buildType)
  25:../src/game.cpp **** {
 801              		.loc 7 25 0
 802              		.cfi_startproc
 803              		@ args = 0, pretend = 0, frame = 8
 804              		@ frame_needed = 1, uses_anonymous_args = 0
 805              		@ link register save eliminated.
 806 0000 80B4     		push	{r7}
 807              		.cfi_def_cfa_offset 4
 808              		.cfi_offset 7, -4
 809 0002 83B0     		sub	sp, sp, #12
 810              		.cfi_def_cfa_offset 16
 811 0004 00AF     		add	r7, sp, #0
 812              		.cfi_def_cfa_register 7
 813 0006 0346     		mov	r3, r0
 814 0008 FB71     		strb	r3, [r7, #7]
  26:../src/game.cpp **** 	AvailableResourceFields[buildType - 9] -= 1;
 815              		.loc 7 26 0
 816 000a FB79     		ldrb	r3, [r7, #7]	@ zero_extendqisi2
ARM GAS  C:\Users\xavie\AppData\Local\Temp\ccbd98DL.s 			page 34


 817 000c 093B     		subs	r3, r3, #9
 818 000e 064A     		ldr	r2, .L40
 819 0010 D25C     		ldrb	r2, [r2, r3]	@ zero_extendqisi2
 820 0012 FB79     		ldrb	r3, [r7, #7]	@ zero_extendqisi2
 821 0014 093B     		subs	r3, r3, #9
 822 0016 013A     		subs	r2, r2, #1
 823 0018 D1B2     		uxtb	r1, r2
 824 001a 034A     		ldr	r2, .L40
 825 001c D154     		strb	r1, [r2, r3]
  27:../src/game.cpp **** }
 826              		.loc 7 27 0
 827 001e 00BF     		nop
 828 0020 0C37     		adds	r7, r7, #12
 829              		.cfi_def_cfa_offset 4
 830 0022 BD46     		mov	sp, r7
 831              		.cfi_def_cfa_register 13
 832              		@ sp needed
 833 0024 80BC     		pop	{r7}
 834              		.cfi_restore 7
 835              		.cfi_def_cfa_offset 0
 836 0026 7047     		bx	lr
 837              	.L41:
 838              		.align	2
 839              	.L40:
 840 0028 00000000 		.word	AvailableResourceFields
 841              		.cfi_endproc
 842              	.LFE1585:
 844              		.section	.text._ZN4Game11InitNewGameEv,"ax",%progbits
 845              		.align	1
 846              		.global	_ZN4Game11InitNewGameEv
 847              		.syntax unified
 848              		.thumb
 849              		.thumb_func
 850              		.fpu softvfp
 852              	_ZN4Game11InitNewGameEv:
 853              	.LFB1586:
  28:../src/game.cpp **** 
  29:../src/game.cpp **** void Game::InitNewGame()
  30:../src/game.cpp **** {
 854              		.loc 7 30 0
 855              		.cfi_startproc
 856              		@ args = 0, pretend = 0, frame = 8
 857              		@ frame_needed = 1, uses_anonymous_args = 0
 858              		@ link register save eliminated.
 859 0000 80B4     		push	{r7}
 860              		.cfi_def_cfa_offset 4
 861              		.cfi_offset 7, -4
 862 0002 83B0     		sub	sp, sp, #12
 863              		.cfi_def_cfa_offset 16
 864 0004 00AF     		add	r7, sp, #0
 865              		.cfi_def_cfa_register 7
 866              	.LBB9:
  31:../src/game.cpp **** 	for(uint8_t i = 0; i < 5; i++){
 867              		.loc 7 31 0
 868 0006 0023     		movs	r3, #0
 869 0008 FB71     		strb	r3, [r7, #7]
 870              	.L44:
ARM GAS  C:\Users\xavie\AppData\Local\Temp\ccbd98DL.s 			page 35


 871              		.loc 7 31 0 is_stmt 0 discriminator 3
 872 000a FB79     		ldrb	r3, [r7, #7]	@ zero_extendqisi2
 873 000c 042B     		cmp	r3, #4
 874 000e 0BD8     		bhi	.L43
  32:../src/game.cpp **** 		AvailableResourceFields[i] = 1;
 875              		.loc 7 32 0 is_stmt 1 discriminator 2
 876 0010 FB79     		ldrb	r3, [r7, #7]	@ zero_extendqisi2
 877 0012 194A     		ldr	r2, .L45
 878 0014 0121     		movs	r1, #1
 879 0016 D154     		strb	r1, [r2, r3]
  33:../src/game.cpp **** 		MaxResourceFields[i] = 1;
 880              		.loc 7 33 0 discriminator 2
 881 0018 FB79     		ldrb	r3, [r7, #7]	@ zero_extendqisi2
 882 001a 184A     		ldr	r2, .L45+4
 883 001c 0121     		movs	r1, #1
 884 001e D154     		strb	r1, [r2, r3]
  31:../src/game.cpp **** 	for(uint8_t i = 0; i < 5; i++){
 885              		.loc 7 31 0 discriminator 2
 886 0020 FB79     		ldrb	r3, [r7, #7]	@ zero_extendqisi2
 887 0022 0133     		adds	r3, r3, #1
 888 0024 FB71     		strb	r3, [r7, #7]
 889 0026 F0E7     		b	.L44
 890              	.L43:
 891              	.LBE9:
  34:../src/game.cpp **** 	}
  35:../src/game.cpp **** 
  36:../src/game.cpp **** 	Resources.food = 45298;
 892              		.loc 7 36 0
 893 0028 154B     		ldr	r3, .L45+8
 894 002a 4BF2F202 		movw	r2, #45298
 895 002e 1A60     		str	r2, [r3]
  37:../src/game.cpp ****   	Resources.wood = 32187;
 896              		.loc 7 37 0
 897 0030 134B     		ldr	r3, .L45+8
 898 0032 47F6BB52 		movw	r2, #32187
 899 0036 5A60     		str	r2, [r3, #4]
  38:../src/game.cpp ****   	Resources.stone = 12342;
 900              		.loc 7 38 0
 901 0038 114B     		ldr	r3, .L45+8
 902 003a 43F23602 		movw	r2, #12342
 903 003e 9A60     		str	r2, [r3, #8]
  39:../src/game.cpp ****   	Resources.iron = 23009;
 904              		.loc 7 39 0
 905 0040 0F4B     		ldr	r3, .L45+8
 906 0042 45F6E112 		movw	r2, #23009
 907 0046 DA60     		str	r2, [r3, #12]
  40:../src/game.cpp ****   	Resources.gold = 7765;
 908              		.loc 7 40 0
 909 0048 0D4B     		ldr	r3, .L45+8
 910 004a 41F65562 		movw	r2, #7765
 911 004e 1A61     		str	r2, [r3, #16]
  41:../src/game.cpp **** 
  42:../src/game.cpp ****   	ProdPer5.food = 14;
 912              		.loc 7 42 0
 913 0050 0C4B     		ldr	r3, .L45+12
 914 0052 0E22     		movs	r2, #14
 915 0054 1A60     		str	r2, [r3]
ARM GAS  C:\Users\xavie\AppData\Local\Temp\ccbd98DL.s 			page 36


  43:../src/game.cpp ****   	ProdPer5.wood = 22;
 916              		.loc 7 43 0
 917 0056 0B4B     		ldr	r3, .L45+12
 918 0058 1622     		movs	r2, #22
 919 005a 5A60     		str	r2, [r3, #4]
  44:../src/game.cpp ****   	ProdPer5.stone = 18;
 920              		.loc 7 44 0
 921 005c 094B     		ldr	r3, .L45+12
 922 005e 1222     		movs	r2, #18
 923 0060 9A60     		str	r2, [r3, #8]
  45:../src/game.cpp ****   	ProdPer5.iron = 44;
 924              		.loc 7 45 0
 925 0062 084B     		ldr	r3, .L45+12
 926 0064 2C22     		movs	r2, #44
 927 0066 DA60     		str	r2, [r3, #12]
  46:../src/game.cpp ****   	ProdPer5.gold = 6;
 928              		.loc 7 46 0
 929 0068 064B     		ldr	r3, .L45+12
 930 006a 0622     		movs	r2, #6
 931 006c 1A61     		str	r2, [r3, #16]
  47:../src/game.cpp **** }
 932              		.loc 7 47 0
 933 006e 00BF     		nop
 934 0070 0C37     		adds	r7, r7, #12
 935              		.cfi_def_cfa_offset 4
 936 0072 BD46     		mov	sp, r7
 937              		.cfi_def_cfa_register 13
 938              		@ sp needed
 939 0074 80BC     		pop	{r7}
 940              		.cfi_restore 7
 941              		.cfi_def_cfa_offset 0
 942 0076 7047     		bx	lr
 943              	.L46:
 944              		.align	2
 945              	.L45:
 946 0078 00000000 		.word	AvailableResourceFields
 947 007c 00000000 		.word	MaxResourceFields
 948 0080 00000000 		.word	_ZN4Game9ResourcesE
 949 0084 00000000 		.word	_ZN4Game8ProdPer5E
 950              		.cfi_endproc
 951              	.LFE1586:
 953              		.section	.text._ZN4Game8LoadGameEh,"ax",%progbits
 954              		.align	1
 955              		.global	_ZN4Game8LoadGameEh
 956              		.syntax unified
 957              		.thumb
 958              		.thumb_func
 959              		.fpu softvfp
 961              	_ZN4Game8LoadGameEh:
 962              	.LFB1587:
  48:../src/game.cpp **** 
  49:../src/game.cpp **** void Game::LoadGame(uint8_t slot)
  50:../src/game.cpp **** {
 963              		.loc 7 50 0
 964              		.cfi_startproc
 965              		@ args = 0, pretend = 0, frame = 24
 966              		@ frame_needed = 1, uses_anonymous_args = 0
ARM GAS  C:\Users\xavie\AppData\Local\Temp\ccbd98DL.s 			page 37


 967 0000 B0B5     		push	{r4, r5, r7, lr}
 968              		.cfi_def_cfa_offset 16
 969              		.cfi_offset 4, -16
 970              		.cfi_offset 5, -12
 971              		.cfi_offset 7, -8
 972              		.cfi_offset 14, -4
 973 0002 86B0     		sub	sp, sp, #24
 974              		.cfi_def_cfa_offset 40
 975 0004 00AF     		add	r7, sp, #0
 976              		.cfi_def_cfa_register 7
 977 0006 0346     		mov	r3, r0
 978 0008 FB71     		strb	r3, [r7, #7]
  51:../src/game.cpp **** 	uint16_t address = 0x2000 * slot;
 979              		.loc 7 51 0
 980 000a FB79     		ldrb	r3, [r7, #7]	@ zero_extendqisi2
 981 000c 9BB2     		uxth	r3, r3
 982 000e 5B03     		lsls	r3, r3, #13
 983 0010 FB81     		strh	r3, [r7, #14]	@ movhi
  52:../src/game.cpp **** 	uint8_t * _data = (uint8_t *)&loadBuffer;
 984              		.loc 7 52 0
 985 0012 5C4B     		ldr	r3, .L59
 986 0014 7B61     		str	r3, [r7, #20]
  53:../src/game.cpp **** 
  54:../src/game.cpp **** 	I2C_Bus.New_Sequence(0xA0);
 987              		.loc 7 54 0
 988 0016 0022     		movs	r2, #0
 989 0018 A021     		movs	r1, #160
 990 001a 5B48     		ldr	r0, .L59+4
 991 001c FFF7FEFF 		bl	_ZN4_I2C12New_SequenceEht
  55:../src/game.cpp **** 	I2C_Bus.Add_Byte(address >> 8);
 992              		.loc 7 55 0
 993 0020 FB89     		ldrh	r3, [r7, #14]
 994 0022 1B12     		asrs	r3, r3, #8
 995 0024 DBB2     		uxtb	r3, r3
 996 0026 1946     		mov	r1, r3
 997 0028 5748     		ldr	r0, .L59+4
 998 002a FFF7FEFF 		bl	_ZN4_I2C8Add_ByteEh
  56:../src/game.cpp **** 	I2C_Bus.Add_Byte(0x00);
 999              		.loc 7 56 0
 1000 002e 0021     		movs	r1, #0
 1001 0030 5548     		ldr	r0, .L59+4
 1002 0032 FFF7FEFF 		bl	_ZN4_I2C8Add_ByteEh
  57:../src/game.cpp **** 	I2C_Bus.Send_Sequence();
 1003              		.loc 7 57 0
 1004 0036 5448     		ldr	r0, .L59+4
 1005 0038 FFF7FEFF 		bl	_ZN4_I2C13Send_SequenceEv
 1006              	.L49:
  58:../src/game.cpp **** 
  59:../src/game.cpp **** 	while(I2C_Bus.Busy);
 1007              		.loc 7 59 0
 1008 003c 524B     		ldr	r3, .L59+4
 1009 003e 93F80634 		ldrb	r3, [r3, #1030]	@ zero_extendqisi2
 1010 0042 002B     		cmp	r3, #0
 1011 0044 00D0     		beq	.L48
 1012 0046 F9E7     		b	.L49
 1013              	.L48:
  60:../src/game.cpp **** 
ARM GAS  C:\Users\xavie\AppData\Local\Temp\ccbd98DL.s 			page 38


  61:../src/game.cpp **** 	I2C_Bus.New_Sequence(0xA1, sizeof(save_cell_t));
 1014              		.loc 7 61 0
 1015 0048 9422     		movs	r2, #148
 1016 004a A121     		movs	r1, #161
 1017 004c 4E48     		ldr	r0, .L59+4
 1018 004e FFF7FEFF 		bl	_ZN4_I2C12New_SequenceEht
  62:../src/game.cpp **** 	I2C_Bus.Send_Sequence();
 1019              		.loc 7 62 0
 1020 0052 4D48     		ldr	r0, .L59+4
 1021 0054 FFF7FEFF 		bl	_ZN4_I2C13Send_SequenceEv
 1022              	.L51:
  63:../src/game.cpp **** 
  64:../src/game.cpp **** 	while(I2C_Bus.Busy);
 1023              		.loc 7 64 0
 1024 0058 4B4B     		ldr	r3, .L59+4
 1025 005a 93F80634 		ldrb	r3, [r3, #1030]	@ zero_extendqisi2
 1026 005e 002B     		cmp	r3, #0
 1027 0060 00D0     		beq	.L50
 1028 0062 F9E7     		b	.L51
 1029              	.L50:
 1030              	.LBB10:
  65:../src/game.cpp **** 
  66:../src/game.cpp **** 	for(uint16_t j = 0; j < sizeof(save_cell_t); j++){
 1031              		.loc 7 66 0
 1032 0064 0023     		movs	r3, #0
 1033 0066 7B82     		strh	r3, [r7, #18]	@ movhi
 1034              	.L53:
 1035              		.loc 7 66 0 is_stmt 0 discriminator 3
 1036 0068 7B8A     		ldrh	r3, [r7, #18]
 1037 006a 932B     		cmp	r3, #147
 1038 006c 0CD8     		bhi	.L52
  67:../src/game.cpp **** 		*(_data++) = I2C_Bus.rx_buf[j];
 1039              		.loc 7 67 0 is_stmt 1 discriminator 2
 1040 006e 7A8A     		ldrh	r2, [r7, #18]
 1041 0070 7B69     		ldr	r3, [r7, #20]
 1042 0072 591C     		adds	r1, r3, #1
 1043 0074 7961     		str	r1, [r7, #20]
 1044 0076 4449     		ldr	r1, .L59+4
 1045 0078 0A44     		add	r2, r2, r1
 1046 007a 92F80622 		ldrb	r2, [r2, #518]	@ zero_extendqisi2
 1047 007e 1A70     		strb	r2, [r3]
  66:../src/game.cpp **** 		*(_data++) = I2C_Bus.rx_buf[j];
 1048              		.loc 7 66 0 discriminator 2
 1049 0080 7B8A     		ldrh	r3, [r7, #18]
 1050 0082 0133     		adds	r3, r3, #1
 1051 0084 7B82     		strh	r3, [r7, #18]	@ movhi
 1052 0086 EFE7     		b	.L53
 1053              	.L52:
 1054              	.LBE10:
 1055              	.LBB11:
  68:../src/game.cpp **** 	}
  69:../src/game.cpp **** 
  70:../src/game.cpp **** 	for(uint8_t i = 0; i < 5; i++){
 1056              		.loc 7 70 0
 1057 0088 0023     		movs	r3, #0
 1058 008a 7B74     		strb	r3, [r7, #17]
 1059              	.L55:
ARM GAS  C:\Users\xavie\AppData\Local\Temp\ccbd98DL.s 			page 39


 1060              		.loc 7 70 0 is_stmt 0 discriminator 3
 1061 008c 7B7C     		ldrb	r3, [r7, #17]	@ zero_extendqisi2
 1062 008e 042B     		cmp	r3, #4
 1063 0090 0BD8     		bhi	.L54
  71:../src/game.cpp **** 		AvailableResourceFields[i] = 1;
 1064              		.loc 7 71 0 is_stmt 1 discriminator 2
 1065 0092 7B7C     		ldrb	r3, [r7, #17]	@ zero_extendqisi2
 1066 0094 3D4A     		ldr	r2, .L59+8
 1067 0096 0121     		movs	r1, #1
 1068 0098 D154     		strb	r1, [r2, r3]
  72:../src/game.cpp **** 		MaxResourceFields[i] = 1;
 1069              		.loc 7 72 0 discriminator 2
 1070 009a 7B7C     		ldrb	r3, [r7, #17]	@ zero_extendqisi2
 1071 009c 3C4A     		ldr	r2, .L59+12
 1072 009e 0121     		movs	r1, #1
 1073 00a0 D154     		strb	r1, [r2, r3]
  70:../src/game.cpp **** 		AvailableResourceFields[i] = 1;
 1074              		.loc 7 70 0 discriminator 2
 1075 00a2 7B7C     		ldrb	r3, [r7, #17]	@ zero_extendqisi2
 1076 00a4 0133     		adds	r3, r3, #1
 1077 00a6 7B74     		strb	r3, [r7, #17]
 1078 00a8 F0E7     		b	.L55
 1079              	.L54:
 1080              	.LBE11:
  73:../src/game.cpp **** 	}
  74:../src/game.cpp **** 
  75:../src/game.cpp **** 	Resources = loadBuffer.Resources;
 1081              		.loc 7 75 0
 1082 00aa 3A4A     		ldr	r2, .L59+16
 1083 00ac 354B     		ldr	r3, .L59
 1084 00ae 1546     		mov	r5, r2
 1085 00b0 03F10804 		add	r4, r3, #8
 1086 00b4 0FCC     		ldmia	r4!, {r0, r1, r2, r3}
 1087 00b6 0FC5     		stmia	r5!, {r0, r1, r2, r3}
 1088 00b8 2368     		ldr	r3, [r4]
 1089 00ba 2B60     		str	r3, [r5]
  76:../src/game.cpp ****   	ProdPer5 = loadBuffer.Prod;
 1090              		.loc 7 76 0
 1091 00bc 364A     		ldr	r2, .L59+20
 1092 00be 314B     		ldr	r3, .L59
 1093 00c0 1546     		mov	r5, r2
 1094 00c2 03F11C04 		add	r4, r3, #28
 1095 00c6 0FCC     		ldmia	r4!, {r0, r1, r2, r3}
 1096 00c8 0FC5     		stmia	r5!, {r0, r1, r2, r3}
 1097 00ca 2368     		ldr	r3, [r4]
 1098 00cc 2B60     		str	r3, [r5]
 1099              	.LBB12:
  77:../src/game.cpp **** 
  78:../src/game.cpp ****   	for(uint8_t i = 0; i < loadBuffer.nbOfBuilds; i++){
 1100              		.loc 7 78 0
 1101 00ce 0023     		movs	r3, #0
 1102 00d0 3B74     		strb	r3, [r7, #16]
 1103              	.L57:
 1104              		.loc 7 78 0 is_stmt 0 discriminator 3
 1105 00d2 2C4B     		ldr	r3, .L59
 1106 00d4 93F83030 		ldrb	r3, [r3, #48]	@ zero_extendqisi2
 1107 00d8 3A7C     		ldrb	r2, [r7, #16]	@ zero_extendqisi2
ARM GAS  C:\Users\xavie\AppData\Local\Temp\ccbd98DL.s 			page 40


 1108 00da 9A42     		cmp	r2, r3
 1109 00dc 4ED2     		bcs	.L58
 1110              	.LBB13:
  79:../src/game.cpp ****   		coords_pair_t c = loadBuffer.mapBuilds[i].coords;
 1111              		.loc 7 79 0 is_stmt 1 discriminator 2
 1112 00de 3A7C     		ldrb	r2, [r7, #16]	@ zero_extendqisi2
 1113 00e0 2849     		ldr	r1, .L59
 1114 00e2 1346     		mov	r3, r2
 1115 00e4 5B00     		lsls	r3, r3, #1
 1116 00e6 1344     		add	r3, r3, r2
 1117 00e8 5B00     		lsls	r3, r3, #1
 1118 00ea 0B44     		add	r3, r3, r1
 1119 00ec 03F13402 		add	r2, r3, #52
 1120 00f0 07F10803 		add	r3, r7, #8
 1121 00f4 1068     		ldr	r0, [r2]	@ unaligned
 1122 00f6 1860     		str	r0, [r3]
  80:../src/game.cpp **** 
  81:../src/game.cpp ****   		WorldManager::worldArray[c.x + 1][c.y + 1]->AddAsset(loadBuffer.mapBuilds[i].type);
 1123              		.loc 7 81 0 discriminator 2
 1124 00f8 B7F90830 		ldrsh	r3, [r7, #8]
 1125 00fc 5A1C     		adds	r2, r3, #1
 1126 00fe B7F90A30 		ldrsh	r3, [r7, #10]
 1127 0102 591C     		adds	r1, r3, #1
 1128 0104 2548     		ldr	r0, .L59+24
 1129 0106 1346     		mov	r3, r2
 1130 0108 1B01     		lsls	r3, r3, #4
 1131 010a 1344     		add	r3, r3, r2
 1132 010c 0B44     		add	r3, r3, r1
 1133 010e 50F82300 		ldr	r0, [r0, r3, lsl #2]
 1134 0112 3A7C     		ldrb	r2, [r7, #16]	@ zero_extendqisi2
 1135 0114 1B49     		ldr	r1, .L59
 1136 0116 1346     		mov	r3, r2
 1137 0118 5B00     		lsls	r3, r3, #1
 1138 011a 1344     		add	r3, r3, r2
 1139 011c 5B00     		lsls	r3, r3, #1
 1140 011e 0B44     		add	r3, r3, r1
 1141 0120 3333     		adds	r3, r3, #51
 1142 0122 1B78     		ldrb	r3, [r3]	@ zero_extendqisi2
 1143 0124 1946     		mov	r1, r3
 1144 0126 FFF7FEFF 		bl	_ZN4Tile8AddAssetE12tile_asset_e
  82:../src/game.cpp ****   		WorldManager::worldArray[c.x + 1][c.y + 1]->SetNewMapObject(loadBuffer.mapBuilds[i].level);
 1145              		.loc 7 82 0 discriminator 2
 1146 012a B7F90830 		ldrsh	r3, [r7, #8]
 1147 012e 5A1C     		adds	r2, r3, #1
 1148 0130 B7F90A30 		ldrsh	r3, [r7, #10]
 1149 0134 591C     		adds	r1, r3, #1
 1150 0136 1948     		ldr	r0, .L59+24
 1151 0138 1346     		mov	r3, r2
 1152 013a 1B01     		lsls	r3, r3, #4
 1153 013c 1344     		add	r3, r3, r2
 1154 013e 0B44     		add	r3, r3, r1
 1155 0140 50F82300 		ldr	r0, [r0, r3, lsl #2]
 1156 0144 3A7C     		ldrb	r2, [r7, #16]	@ zero_extendqisi2
 1157 0146 0F49     		ldr	r1, .L59
 1158 0148 1346     		mov	r3, r2
 1159 014a 5B00     		lsls	r3, r3, #1
 1160 014c 1344     		add	r3, r3, r2
ARM GAS  C:\Users\xavie\AppData\Local\Temp\ccbd98DL.s 			page 41


 1161 014e 5B00     		lsls	r3, r3, #1
 1162 0150 0B44     		add	r3, r3, r1
 1163 0152 3233     		adds	r3, r3, #50
 1164 0154 1B78     		ldrb	r3, [r3]	@ zero_extendqisi2
 1165 0156 1946     		mov	r1, r3
 1166 0158 FFF7FEFF 		bl	_ZN4Tile15SetNewMapObjectEh
  83:../src/game.cpp **** 
  84:../src/game.cpp ****   		AddUsedField(loadBuffer.mapBuilds[i].type);
 1167              		.loc 7 84 0 discriminator 2
 1168 015c 3A7C     		ldrb	r2, [r7, #16]	@ zero_extendqisi2
 1169 015e 0949     		ldr	r1, .L59
 1170 0160 1346     		mov	r3, r2
 1171 0162 5B00     		lsls	r3, r3, #1
 1172 0164 1344     		add	r3, r3, r2
 1173 0166 5B00     		lsls	r3, r3, #1
 1174 0168 0B44     		add	r3, r3, r1
 1175 016a 3333     		adds	r3, r3, #51
 1176 016c 1B78     		ldrb	r3, [r3]	@ zero_extendqisi2
 1177 016e 1846     		mov	r0, r3
 1178 0170 FFF7FEFF 		bl	_ZN4Game12AddUsedFieldEh
 1179              	.LBE13:
  78:../src/game.cpp ****   		coords_pair_t c = loadBuffer.mapBuilds[i].coords;
 1180              		.loc 7 78 0 discriminator 2
 1181 0174 3B7C     		ldrb	r3, [r7, #16]	@ zero_extendqisi2
 1182 0176 0133     		adds	r3, r3, #1
 1183 0178 3B74     		strb	r3, [r7, #16]
 1184 017a AAE7     		b	.L57
 1185              	.L58:
 1186              	.LBE12:
  85:../src/game.cpp ****   	}
  86:../src/game.cpp **** }
 1187              		.loc 7 86 0
 1188 017c 00BF     		nop
 1189 017e 1837     		adds	r7, r7, #24
 1190              		.cfi_def_cfa_offset 16
 1191 0180 BD46     		mov	sp, r7
 1192              		.cfi_def_cfa_register 13
 1193              		@ sp needed
 1194 0182 B0BD     		pop	{r4, r5, r7, pc}
 1195              	.L60:
 1196              		.align	2
 1197              	.L59:
 1198 0184 00000000 		.word	_ZN4Game10loadBufferE
 1199 0188 00000000 		.word	I2C_Bus
 1200 018c 00000000 		.word	AvailableResourceFields
 1201 0190 00000000 		.word	MaxResourceFields
 1202 0194 00000000 		.word	_ZN4Game9ResourcesE
 1203 0198 00000000 		.word	_ZN4Game8ProdPer5E
 1204 019c 00000000 		.word	_ZN12WorldManager10worldArrayE
 1205              		.cfi_endproc
 1206              	.LFE1587:
 1208              		.weak	_ZTV7IUpdate
 1209              		.section	.rodata._ZTV7IUpdate,"aG",%progbits,_ZTV7IUpdate,comdat
 1210              		.align	2
 1213              	_ZTV7IUpdate:
 1214 0000 00000000 		.word	0
 1215 0004 00000000 		.word	0
ARM GAS  C:\Users\xavie\AppData\Local\Temp\ccbd98DL.s 			page 42


 1216 0008 00000000 		.word	__cxa_pure_virtual
 1217              		.weak	_ZTV9IInteract
 1218              		.section	.rodata._ZTV9IInteract,"aG",%progbits,_ZTV9IInteract,comdat
 1219              		.align	2
 1222              	_ZTV9IInteract:
 1223 0000 00000000 		.word	0
 1224 0004 00000000 		.word	0
 1225 0008 00000000 		.word	__cxa_pure_virtual
 1226 000c 00000000 		.word	0
 1227 0010 00000000 		.word	0
 1228              		.section	.text._Z41__static_initialization_and_destruction_0ii,"ax",%progbits
 1229              		.align	1
 1230              		.syntax unified
 1231              		.thumb
 1232              		.thumb_func
 1233              		.fpu softvfp
 1235              	_Z41__static_initialization_and_destruction_0ii:
 1236              	.LFB2096:
 1237              		.loc 7 86 0
 1238              		.cfi_startproc
 1239              		@ args = 0, pretend = 0, frame = 8
 1240              		@ frame_needed = 1, uses_anonymous_args = 0
 1241 0000 80B5     		push	{r7, lr}
 1242              		.cfi_def_cfa_offset 8
 1243              		.cfi_offset 7, -8
 1244              		.cfi_offset 14, -4
 1245 0002 84B0     		sub	sp, sp, #16
 1246              		.cfi_def_cfa_offset 24
 1247 0004 02AF     		add	r7, sp, #8
 1248              		.cfi_def_cfa 7, 16
 1249 0006 7860     		str	r0, [r7, #4]
 1250 0008 3960     		str	r1, [r7]
 1251              		.loc 7 86 0
 1252 000a 7B68     		ldr	r3, [r7, #4]
 1253 000c 012B     		cmp	r3, #1
 1254 000e 63D1     		bne	.L63
 1255              		.loc 7 86 0 is_stmt 0 discriminator 1
 1256 0010 3B68     		ldr	r3, [r7]
 1257 0012 4FF6FF72 		movw	r2, #65535
 1258 0016 9342     		cmp	r3, r2
 1259 0018 5ED1     		bne	.L63
 1260              		.file 8 "C:\\Users\\xavie\\Cegep\\Processeurs\\HeroOrZero\\inc/lpc_xav.h"
   1:C:\Users\xavie\Cegep\Processeurs\HeroOrZero\inc\lpc_xav.h **** #include "chip.h"
   2:C:\Users\xavie\Cegep\Processeurs\HeroOrZero\inc\lpc_xav.h **** #include "board.h"
   3:C:\Users\xavie\Cegep\Processeurs\HeroOrZero\inc\lpc_xav.h **** #include "cr_section_macros.h"
   4:C:\Users\xavie\Cegep\Processeurs\HeroOrZero\inc\lpc_xav.h **** 
   5:C:\Users\xavie\Cegep\Processeurs\HeroOrZero\inc\lpc_xav.h **** #ifndef LPC_XAV_H_
   6:C:\Users\xavie\Cegep\Processeurs\HeroOrZero\inc\lpc_xav.h **** #define LPC_XAV_H_
   7:C:\Users\xavie\Cegep\Processeurs\HeroOrZero\inc\lpc_xav.h **** 
   8:C:\Users\xavie\Cegep\Processeurs\HeroOrZero\inc\lpc_xav.h **** #define PCONP	 *((uint32_t *)0x400FC0C4)
   9:C:\Users\xavie\Cegep\Processeurs\HeroOrZero\inc\lpc_xav.h **** #define PCLKSEL0 *((uint32_t *)0x400FC1A8)
  10:C:\Users\xavie\Cegep\Processeurs\HeroOrZero\inc\lpc_xav.h **** #define PCLKSEL1 *((uint32_t *)0x400FC1AC)
  11:C:\Users\xavie\Cegep\Processeurs\HeroOrZero\inc\lpc_xav.h **** 
  12:C:\Users\xavie\Cegep\Processeurs\HeroOrZero\inc\lpc_xav.h **** #define I2C_400KHZ	120
  13:C:\Users\xavie\Cegep\Processeurs\HeroOrZero\inc\lpc_xav.h **** #define I2C_100KHZ 	480
  14:C:\Users\xavie\Cegep\Processeurs\HeroOrZero\inc\lpc_xav.h **** #define I2C_50KHZ 	960
  15:C:\Users\xavie\Cegep\Processeurs\HeroOrZero\inc\lpc_xav.h **** #define SPI_24MHZ	4
ARM GAS  C:\Users\xavie\AppData\Local\Temp\ccbd98DL.s 			page 43


  16:C:\Users\xavie\Cegep\Processeurs\HeroOrZero\inc\lpc_xav.h **** #define SPI_100KHZ  240
  17:C:\Users\xavie\Cegep\Processeurs\HeroOrZero\inc\lpc_xav.h **** 
  18:C:\Users\xavie\Cegep\Processeurs\HeroOrZero\inc\lpc_xav.h **** #define SYS_FREQ ((uint32_t)96000000)
  19:C:\Users\xavie\Cegep\Processeurs\HeroOrZero\inc\lpc_xav.h **** 
  20:C:\Users\xavie\Cegep\Processeurs\HeroOrZero\inc\lpc_xav.h **** enum {GPIO, Fct0x1, Fct0x2, Fct0x3}; 				// GPIO pin function
  21:C:\Users\xavie\Cegep\Processeurs\HeroOrZero\inc\lpc_xav.h **** enum {IN, OUT};										// GPIO direction
  22:C:\Users\xavie\Cegep\Processeurs\HeroOrZero\inc\lpc_xav.h **** enum {Pullup, Repeater, Float, Pulldown, Default};	// GPIO input mode
  23:C:\Users\xavie\Cegep\Processeurs\HeroOrZero\inc\lpc_xav.h **** enum {Normal, Open_Drain}; 							// GPIO output mode
  24:C:\Users\xavie\Cegep\Processeurs\HeroOrZero\inc\lpc_xav.h **** enum {Level_Sensitive, Edge_Sensitive};				// EXT int mode
  25:C:\Users\xavie\Cegep\Processeurs\HeroOrZero\inc\lpc_xav.h **** enum {UND2, Rising_Edge, Falling_Edge, Both_Edges};	// Timer capture setting
  26:C:\Users\xavie\Cegep\Processeurs\HeroOrZero\inc\lpc_xav.h **** enum {CLK4, CLK0, CLK2, CLK8};						// Timer clock rate (number stands for divisor)
  27:C:\Users\xavie\Cegep\Processeurs\HeroOrZero\inc\lpc_xav.h **** enum {Nothing, Clear, Set, Toggle};					// External match setting
  28:C:\Users\xavie\Cegep\Processeurs\HeroOrZero\inc\lpc_xav.h **** enum {MR0 = 0x1, MR1 = 0x2, MR2 = 0x4, MR3 = 0x8, CR0 = 0x10, CR1 = 0x20};// Timer interrupt flag b
  29:C:\Users\xavie\Cegep\Processeurs\HeroOrZero\inc\lpc_xav.h **** enum {Disabled, Odd, Even = 3};						// UART Parity control
  30:C:\Users\xavie\Cegep\Processeurs\HeroOrZero\inc\lpc_xav.h **** enum {Single_Edge, Double_Edge};					// Motor PWM mode
  31:C:\Users\xavie\Cegep\Processeurs\HeroOrZero\inc\lpc_xav.h **** enum {Manual, Auto};								// AD Converter mode for starting conversions
  32:C:\Users\xavie\Cegep\Processeurs\HeroOrZero\inc\lpc_xav.h **** enum {Master = 0x40, Slave = 0x44};					// I2C Mode
  33:C:\Users\xavie\Cegep\Processeurs\HeroOrZero\inc\lpc_xav.h **** enum {RORIM, RTIM, RXIM, TXIM};						// SSP Interrupt sources
  34:C:\Users\xavie\Cegep\Processeurs\HeroOrZero\inc\lpc_xav.h **** 
  35:C:\Users\xavie\Cegep\Processeurs\HeroOrZero\inc\lpc_xav.h **** class LPC_IO;
  36:C:\Users\xavie\Cegep\Processeurs\HeroOrZero\inc\lpc_xav.h **** 
  37:C:\Users\xavie\Cegep\Processeurs\HeroOrZero\inc\lpc_xav.h **** void EnableIRQ(uint8_t Int_bit); // Enables periph's NVIC interrupt
  38:C:\Users\xavie\Cegep\Processeurs\HeroOrZero\inc\lpc_xav.h **** void GPIO_Enable_Int(uint8_t PortNo, uint8_t PinNo, uint8_t Edge_Select);
  39:C:\Users\xavie\Cegep\Processeurs\HeroOrZero\inc\lpc_xav.h **** void Enable_EXT_Int(uint8_t ExtIntNo, uint8_t ExtMode);
  40:C:\Users\xavie\Cegep\Processeurs\HeroOrZero\inc\lpc_xav.h **** /**************************************************************************************************
  41:C:\Users\xavie\Cegep\Processeurs\HeroOrZero\inc\lpc_xav.h **** class Port{ // Port object to provide pointers for the Lpc_IO class
  42:C:\Users\xavie\Cegep\Processeurs\HeroOrZero\inc\lpc_xav.h **** 	friend LPC_IO;
  43:C:\Users\xavie\Cegep\Processeurs\HeroOrZero\inc\lpc_xav.h **** 	uint32_t * _PINCB; 	// Address of the first PINSEL register for desired port
  44:C:\Users\xavie\Cegep\Processeurs\HeroOrZero\inc\lpc_xav.h **** 	uint32_t * _FIO; 	// Address of the first FIO register
  45:C:\Users\xavie\Cegep\Processeurs\HeroOrZero\inc\lpc_xav.h **** 	uint32_t * _OD;		// Address of the open drain mode register
  46:C:\Users\xavie\Cegep\Processeurs\HeroOrZero\inc\lpc_xav.h **** 	void SetFct(uint8_t PinNo, uint8_t Fct);
  47:C:\Users\xavie\Cegep\Processeurs\HeroOrZero\inc\lpc_xav.h **** 	void SetDir(uint8_t PinNo, uint8_t Dir);
  48:C:\Users\xavie\Cegep\Processeurs\HeroOrZero\inc\lpc_xav.h **** 	void SetMode(uint8_t PinNo, uint8_t Mode);
  49:C:\Users\xavie\Cegep\Processeurs\HeroOrZero\inc\lpc_xav.h **** 	void SetOpenDrain(uint8_t PinNo, uint8_t Mode );
  50:C:\Users\xavie\Cegep\Processeurs\HeroOrZero\inc\lpc_xav.h **** 
  51:C:\Users\xavie\Cegep\Processeurs\HeroOrZero\inc\lpc_xav.h **** public:
  52:C:\Users\xavie\Cegep\Processeurs\HeroOrZero\inc\lpc_xav.h **** 	Port(uint32_t* Pinsel_Add, // Constructor for LPC Port handles
  53:C:\Users\xavie\Cegep\Processeurs\HeroOrZero\inc\lpc_xav.h **** 		 uint32_t* FastIO_Add,
  54:C:\Users\xavie\Cegep\Processeurs\HeroOrZero\inc\lpc_xav.h **** 		 uint32_t* OpenDrain_Add);
  55:C:\Users\xavie\Cegep\Processeurs\HeroOrZero\inc\lpc_xav.h **** };
  56:C:\Users\xavie\Cegep\Processeurs\HeroOrZero\inc\lpc_xav.h **** /**************************************************************************************************
  57:C:\Users\xavie\Cegep\Processeurs\HeroOrZero\inc\lpc_xav.h **** class LPC_IO{ // Pin object to initialize all the register required for a pin functioning
  58:C:\Users\xavie\Cegep\Processeurs\HeroOrZero\inc\lpc_xav.h **** 	Port& _Port;
  59:C:\Users\xavie\Cegep\Processeurs\HeroOrZero\inc\lpc_xav.h **** 	uint8_t Pin;
  60:C:\Users\xavie\Cegep\Processeurs\HeroOrZero\inc\lpc_xav.h **** 	uint8_t Function;
  61:C:\Users\xavie\Cegep\Processeurs\HeroOrZero\inc\lpc_xav.h **** 	uint8_t Direction;
  62:C:\Users\xavie\Cegep\Processeurs\HeroOrZero\inc\lpc_xav.h **** 	uint8_t Mode;
  63:C:\Users\xavie\Cegep\Processeurs\HeroOrZero\inc\lpc_xav.h **** 	uint8_t OD_Mode;
  64:C:\Users\xavie\Cegep\Processeurs\HeroOrZero\inc\lpc_xav.h **** 
  65:C:\Users\xavie\Cegep\Processeurs\HeroOrZero\inc\lpc_xav.h **** public:
  66:C:\Users\xavie\Cegep\Processeurs\HeroOrZero\inc\lpc_xav.h **** 	void Out(bool State);
  67:C:\Users\xavie\Cegep\Processeurs\HeroOrZero\inc\lpc_xav.h **** 	void Set();
  68:C:\Users\xavie\Cegep\Processeurs\HeroOrZero\inc\lpc_xav.h **** 	void Clear();
  69:C:\Users\xavie\Cegep\Processeurs\HeroOrZero\inc\lpc_xav.h **** 
  70:C:\Users\xavie\Cegep\Processeurs\HeroOrZero\inc\lpc_xav.h **** 	LPC_IO();
  71:C:\Users\xavie\Cegep\Processeurs\HeroOrZero\inc\lpc_xav.h **** 	LPC_IO(	Port& PtrPort, // Constructor for IO pin handles.
  72:C:\Users\xavie\Cegep\Processeurs\HeroOrZero\inc\lpc_xav.h **** 			uint8_t PinNo,
ARM GAS  C:\Users\xavie\AppData\Local\Temp\ccbd98DL.s 			page 44


  73:C:\Users\xavie\Cegep\Processeurs\HeroOrZero\inc\lpc_xav.h **** 			uint8_t Fct,
  74:C:\Users\xavie\Cegep\Processeurs\HeroOrZero\inc\lpc_xav.h **** 			uint8_t Dir = OUT,
  75:C:\Users\xavie\Cegep\Processeurs\HeroOrZero\inc\lpc_xav.h **** 			uint8_t Md = Float,
  76:C:\Users\xavie\Cegep\Processeurs\HeroOrZero\inc\lpc_xav.h **** 			uint8_t OD = Normal);
  77:C:\Users\xavie\Cegep\Processeurs\HeroOrZero\inc\lpc_xav.h **** 
  78:C:\Users\xavie\Cegep\Processeurs\HeroOrZero\inc\lpc_xav.h **** 	void operator=(bool OutputState) // Allows to use Object = boolean value; to set pin output
  79:C:\Users\xavie\Cegep\Processeurs\HeroOrZero\inc\lpc_xav.h **** 	{
  80:C:\Users\xavie\Cegep\Processeurs\HeroOrZero\inc\lpc_xav.h **** 		this->Out(OutputState);
  81:C:\Users\xavie\Cegep\Processeurs\HeroOrZero\inc\lpc_xav.h **** 	}
  82:C:\Users\xavie\Cegep\Processeurs\HeroOrZero\inc\lpc_xav.h **** 	bool operator==(bool BooleanValue)
  83:C:\Users\xavie\Cegep\Processeurs\HeroOrZero\inc\lpc_xav.h **** 	{
  84:C:\Users\xavie\Cegep\Processeurs\HeroOrZero\inc\lpc_xav.h **** 		if(BooleanValue == ((*(_Port._FIO + 5) >> this->Pin) & 0x1)){
  85:C:\Users\xavie\Cegep\Processeurs\HeroOrZero\inc\lpc_xav.h **** 			return true;
  86:C:\Users\xavie\Cegep\Processeurs\HeroOrZero\inc\lpc_xav.h **** 		}
  87:C:\Users\xavie\Cegep\Processeurs\HeroOrZero\inc\lpc_xav.h **** 		else{
  88:C:\Users\xavie\Cegep\Processeurs\HeroOrZero\inc\lpc_xav.h **** 			return false;
  89:C:\Users\xavie\Cegep\Processeurs\HeroOrZero\inc\lpc_xav.h **** 		}
  90:C:\Users\xavie\Cegep\Processeurs\HeroOrZero\inc\lpc_xav.h **** 	}
  91:C:\Users\xavie\Cegep\Processeurs\HeroOrZero\inc\lpc_xav.h **** 	bool operator!=(bool BooleanValue)
  92:C:\Users\xavie\Cegep\Processeurs\HeroOrZero\inc\lpc_xav.h **** 	{
  93:C:\Users\xavie\Cegep\Processeurs\HeroOrZero\inc\lpc_xav.h **** 		if(BooleanValue == ((*(_Port._FIO + 5) >> this->Pin) & 0x1)){
  94:C:\Users\xavie\Cegep\Processeurs\HeroOrZero\inc\lpc_xav.h **** 			return false;
  95:C:\Users\xavie\Cegep\Processeurs\HeroOrZero\inc\lpc_xav.h **** 		}
  96:C:\Users\xavie\Cegep\Processeurs\HeroOrZero\inc\lpc_xav.h **** 		else{
  97:C:\Users\xavie\Cegep\Processeurs\HeroOrZero\inc\lpc_xav.h **** 			return true;
  98:C:\Users\xavie\Cegep\Processeurs\HeroOrZero\inc\lpc_xav.h **** 		}
  99:C:\Users\xavie\Cegep\Processeurs\HeroOrZero\inc\lpc_xav.h **** 	}
 100:C:\Users\xavie\Cegep\Processeurs\HeroOrZero\inc\lpc_xav.h **** };
 101:C:\Users\xavie\Cegep\Processeurs\HeroOrZero\inc\lpc_xav.h **** /**************************************************************************************************
 102:C:\Users\xavie\Cegep\Processeurs\HeroOrZero\inc\lpc_xav.h **** class Bus{ // Bus object can be declared to group Lpc_IO handles together and use it as one 8-bit r
 103:C:\Users\xavie\Cegep\Processeurs\HeroOrZero\inc\lpc_xav.h **** 	LPC_IO * Bits[8];
 104:C:\Users\xavie\Cegep\Processeurs\HeroOrZero\inc\lpc_xav.h **** 	uint8_t Value;
 105:C:\Users\xavie\Cegep\Processeurs\HeroOrZero\inc\lpc_xav.h **** 
 106:C:\Users\xavie\Cegep\Processeurs\HeroOrZero\inc\lpc_xav.h **** public:
 107:C:\Users\xavie\Cegep\Processeurs\HeroOrZero\inc\lpc_xav.h **** 	void Change_Value(uint8_t bus_value);
 108:C:\Users\xavie\Cegep\Processeurs\HeroOrZero\inc\lpc_xav.h **** 
 109:C:\Users\xavie\Cegep\Processeurs\HeroOrZero\inc\lpc_xav.h **** 	Bus(LPC_IO* LSB=nullptr, LPC_IO* B1=nullptr,
 110:C:\Users\xavie\Cegep\Processeurs\HeroOrZero\inc\lpc_xav.h **** 		LPC_IO* B2=nullptr, LPC_IO* B3=nullptr,
 111:C:\Users\xavie\Cegep\Processeurs\HeroOrZero\inc\lpc_xav.h **** 		LPC_IO* B4=nullptr, LPC_IO* B5=nullptr,
 112:C:\Users\xavie\Cegep\Processeurs\HeroOrZero\inc\lpc_xav.h **** 		LPC_IO* B6=nullptr, LPC_IO* MSB=nullptr);
 113:C:\Users\xavie\Cegep\Processeurs\HeroOrZero\inc\lpc_xav.h **** 
 114:C:\Users\xavie\Cegep\Processeurs\HeroOrZero\inc\lpc_xav.h **** 	void operator=(uint8_t bus_value)
 115:C:\Users\xavie\Cegep\Processeurs\HeroOrZero\inc\lpc_xav.h **** 	{
 116:C:\Users\xavie\Cegep\Processeurs\HeroOrZero\inc\lpc_xav.h **** 		Change_Value(bus_value);
 117:C:\Users\xavie\Cegep\Processeurs\HeroOrZero\inc\lpc_xav.h **** 	}
 118:C:\Users\xavie\Cegep\Processeurs\HeroOrZero\inc\lpc_xav.h **** 	void operator+=(uint8_t increment_value)
 119:C:\Users\xavie\Cegep\Processeurs\HeroOrZero\inc\lpc_xav.h **** 	{
 120:C:\Users\xavie\Cegep\Processeurs\HeroOrZero\inc\lpc_xav.h **** 		Change_Value(Value + increment_value);
 121:C:\Users\xavie\Cegep\Processeurs\HeroOrZero\inc\lpc_xav.h **** 	}
 122:C:\Users\xavie\Cegep\Processeurs\HeroOrZero\inc\lpc_xav.h **** };
 123:C:\Users\xavie\Cegep\Processeurs\HeroOrZero\inc\lpc_xav.h **** /**************************************************************************************************
 124:C:\Users\xavie\Cegep\Processeurs\HeroOrZero\inc\lpc_xav.h **** class Timer{ // Timer object to group together all of a timer's functions and registers
 125:C:\Users\xavie\Cegep\Processeurs\HeroOrZero\inc\lpc_xav.h **** 	uint32_t * _Periph;
 126:C:\Users\xavie\Cegep\Processeurs\HeroOrZero\inc\lpc_xav.h **** 	uint8_t Pwr_bit;
 127:C:\Users\xavie\Cegep\Processeurs\HeroOrZero\inc\lpc_xav.h **** 	uint8_t Clk_bit;
 128:C:\Users\xavie\Cegep\Processeurs\HeroOrZero\inc\lpc_xav.h **** 	uint8_t IRQ_bit;
 129:C:\Users\xavie\Cegep\Processeurs\HeroOrZero\inc\lpc_xav.h **** 
ARM GAS  C:\Users\xavie\AppData\Local\Temp\ccbd98DL.s 			page 45


 130:C:\Users\xavie\Cegep\Processeurs\HeroOrZero\inc\lpc_xav.h **** public:
 131:C:\Users\xavie\Cegep\Processeurs\HeroOrZero\inc\lpc_xav.h **** 	uint8_t Edge_Sel[2];
 132:C:\Users\xavie\Cegep\Processeurs\HeroOrZero\inc\lpc_xav.h **** 	void Init(uint8_t Clk_Speed); // Uses the IRQ bit to determine which PCLKSEL to set
 133:C:\Users\xavie\Cegep\Processeurs\HeroOrZero\inc\lpc_xav.h **** 	void Enable_Counter(uint8_t Channel, uint8_t Edge_Mode);
 134:C:\Users\xavie\Cegep\Processeurs\HeroOrZero\inc\lpc_xav.h **** 	void Enable_Capture(uint8_t Channel, uint8_t Edge_Mode);
 135:C:\Users\xavie\Cegep\Processeurs\HeroOrZero\inc\lpc_xav.h **** 	void Reset_onMatch(uint8_t Channel);
 136:C:\Users\xavie\Cegep\Processeurs\HeroOrZero\inc\lpc_xav.h **** 	void Set_Match(uint8_t Channel, uint32_t Match_Value);
 137:C:\Users\xavie\Cegep\Processeurs\HeroOrZero\inc\lpc_xav.h **** 	void Enable_Ext_Match(uint8_t Channel, uint8_t Match_Setting);
 138:C:\Users\xavie\Cegep\Processeurs\HeroOrZero\inc\lpc_xav.h **** 	void Enable_Mat_Int(uint8_t Channel);
 139:C:\Users\xavie\Cegep\Processeurs\HeroOrZero\inc\lpc_xav.h **** 	void Enable_Cap_Int(uint8_t Channel);
 140:C:\Users\xavie\Cegep\Processeurs\HeroOrZero\inc\lpc_xav.h **** 	void Reset(); // Resets the TC
 141:C:\Users\xavie\Cegep\Processeurs\HeroOrZero\inc\lpc_xav.h **** 	uint8_t get_IR();
 142:C:\Users\xavie\Cegep\Processeurs\HeroOrZero\inc\lpc_xav.h **** 	void Clear_Int(uint8_t FlagBit);
 143:C:\Users\xavie\Cegep\Processeurs\HeroOrZero\inc\lpc_xav.h **** 	uint32_t get_CR(uint8_t Channel);
 144:C:\Users\xavie\Cegep\Processeurs\HeroOrZero\inc\lpc_xav.h **** 
 145:C:\Users\xavie\Cegep\Processeurs\HeroOrZero\inc\lpc_xav.h **** 	Timer(	uint32_t * PtrTimer, // Constructor function for timers
 146:C:\Users\xavie\Cegep\Processeurs\HeroOrZero\inc\lpc_xav.h **** 			uint8_t P_bit,
 147:C:\Users\xavie\Cegep\Processeurs\HeroOrZero\inc\lpc_xav.h **** 			uint8_t C_bit,
 148:C:\Users\xavie\Cegep\Processeurs\HeroOrZero\inc\lpc_xav.h **** 			uint8_t Int_bit);
 149:C:\Users\xavie\Cegep\Processeurs\HeroOrZero\inc\lpc_xav.h **** };
 150:C:\Users\xavie\Cegep\Processeurs\HeroOrZero\inc\lpc_xav.h **** /**************************************************************************************************
 151:C:\Users\xavie\Cegep\Processeurs\HeroOrZero\inc\lpc_xav.h **** class UART{
 152:C:\Users\xavie\Cegep\Processeurs\HeroOrZero\inc\lpc_xav.h **** 	uint32_t * _Periph;
 153:C:\Users\xavie\Cegep\Processeurs\HeroOrZero\inc\lpc_xav.h **** 	uint8_t Pwr_bit;
 154:C:\Users\xavie\Cegep\Processeurs\HeroOrZero\inc\lpc_xav.h **** 	uint8_t Clk_bit;
 155:C:\Users\xavie\Cegep\Processeurs\HeroOrZero\inc\lpc_xav.h **** 	uint8_t IRQ_bit;
 156:C:\Users\xavie\Cegep\Processeurs\HeroOrZero\inc\lpc_xav.h **** 
 157:C:\Users\xavie\Cegep\Processeurs\HeroOrZero\inc\lpc_xav.h **** public:
 158:C:\Users\xavie\Cegep\Processeurs\HeroOrZero\inc\lpc_xav.h **** 	void Init(uint32_t Baudrate);
 159:C:\Users\xavie\Cegep\Processeurs\HeroOrZero\inc\lpc_xav.h **** 	void Set_Transmission(uint8_t Bit_Length, uint8_t Parity);
 160:C:\Users\xavie\Cegep\Processeurs\HeroOrZero\inc\lpc_xav.h **** 	void Enable_RX_Int();
 161:C:\Users\xavie\Cegep\Processeurs\HeroOrZero\inc\lpc_xav.h **** 	void PutByte(char Byte);
 162:C:\Users\xavie\Cegep\Processeurs\HeroOrZero\inc\lpc_xav.h **** 	void PrintStrConst(const char *StrToSend);
 163:C:\Users\xavie\Cegep\Processeurs\HeroOrZero\inc\lpc_xav.h **** 	void PrintDec(uint16_t NbrDec);
 164:C:\Users\xavie\Cegep\Processeurs\HeroOrZero\inc\lpc_xav.h **** 	void PrintFloat(uint16_t Scaled_Int);
 165:C:\Users\xavie\Cegep\Processeurs\HeroOrZero\inc\lpc_xav.h **** 	void ClearScreen();
 166:C:\Users\xavie\Cegep\Processeurs\HeroOrZero\inc\lpc_xav.h **** 	bool Int_Flag_Set();
 167:C:\Users\xavie\Cegep\Processeurs\HeroOrZero\inc\lpc_xav.h **** 	uint8_t get_RBR();
 168:C:\Users\xavie\Cegep\Processeurs\HeroOrZero\inc\lpc_xav.h **** 
 169:C:\Users\xavie\Cegep\Processeurs\HeroOrZero\inc\lpc_xav.h **** 	UART(uint32_t * PtrUART, uint8_t P_bit, uint8_t C_bit, uint8_t Int_bit);
 170:C:\Users\xavie\Cegep\Processeurs\HeroOrZero\inc\lpc_xav.h **** };
 171:C:\Users\xavie\Cegep\Processeurs\HeroOrZero\inc\lpc_xav.h **** /**************************************************************************************************
 172:C:\Users\xavie\Cegep\Processeurs\HeroOrZero\inc\lpc_xav.h **** class PWM{
 173:C:\Users\xavie\Cegep\Processeurs\HeroOrZero\inc\lpc_xav.h **** 	static uint32_t * _Periph;
 174:C:\Users\xavie\Cegep\Processeurs\HeroOrZero\inc\lpc_xav.h **** 	uint8_t Output_Channel;
 175:C:\Users\xavie\Cegep\Processeurs\HeroOrZero\inc\lpc_xav.h **** public:
 176:C:\Users\xavie\Cegep\Processeurs\HeroOrZero\inc\lpc_xav.h **** 	float Duty;
 177:C:\Users\xavie\Cegep\Processeurs\HeroOrZero\inc\lpc_xav.h **** 	static void Set_Freq(uint32_t Freq); // Setup MR0 value that controls frequency of all single-e PW
 178:C:\Users\xavie\Cegep\Processeurs\HeroOrZero\inc\lpc_xav.h **** 	void Reset_onMatch();
 179:C:\Users\xavie\Cegep\Processeurs\HeroOrZero\inc\lpc_xav.h **** 	void Set_Duty(float DutyPercentage);
 180:C:\Users\xavie\Cegep\Processeurs\HeroOrZero\inc\lpc_xav.h **** 	void Increment_Duty();
 181:C:\Users\xavie\Cegep\Processeurs\HeroOrZero\inc\lpc_xav.h **** 	void Decrement_Duty();
 182:C:\Users\xavie\Cegep\Processeurs\HeroOrZero\inc\lpc_xav.h **** 	static void Enable(); // Always use at the end of initialization, starts TC for all PWMs
 183:C:\Users\xavie\Cegep\Processeurs\HeroOrZero\inc\lpc_xav.h **** 
 184:C:\Users\xavie\Cegep\Processeurs\HeroOrZero\inc\lpc_xav.h **** 	PWM(uint8_t Ch, uint8_t Edge_Sel);
 185:C:\Users\xavie\Cegep\Processeurs\HeroOrZero\inc\lpc_xav.h **** };
 186:C:\Users\xavie\Cegep\Processeurs\HeroOrZero\inc\lpc_xav.h **** /**************************************************************************************************
ARM GAS  C:\Users\xavie\AppData\Local\Temp\ccbd98DL.s 			page 46


 187:C:\Users\xavie\Cegep\Processeurs\HeroOrZero\inc\lpc_xav.h **** class ADC{
 188:C:\Users\xavie\Cegep\Processeurs\HeroOrZero\inc\lpc_xav.h **** 	static uint32_t * _Periph;
 189:C:\Users\xavie\Cegep\Processeurs\HeroOrZero\inc\lpc_xav.h **** 	uint8_t Output_Channel;
 190:C:\Users\xavie\Cegep\Processeurs\HeroOrZero\inc\lpc_xav.h **** public:
 191:C:\Users\xavie\Cegep\Processeurs\HeroOrZero\inc\lpc_xav.h **** 	static void Start_Burst_Conversion(uint8_t Sel_Val);
 192:C:\Users\xavie\Cegep\Processeurs\HeroOrZero\inc\lpc_xav.h **** 	static void Stop_Burst_Conversion();
 193:C:\Users\xavie\Cegep\Processeurs\HeroOrZero\inc\lpc_xav.h **** 	void Start_Conversion();
 194:C:\Users\xavie\Cegep\Processeurs\HeroOrZero\inc\lpc_xav.h **** 	void Stop_Conversion();
 195:C:\Users\xavie\Cegep\Processeurs\HeroOrZero\inc\lpc_xav.h **** 	void Enable_Int();
 196:C:\Users\xavie\Cegep\Processeurs\HeroOrZero\inc\lpc_xav.h **** 	uint16_t get_12bit_Result();
 197:C:\Users\xavie\Cegep\Processeurs\HeroOrZero\inc\lpc_xav.h **** 
 198:C:\Users\xavie\Cegep\Processeurs\HeroOrZero\inc\lpc_xav.h **** 	ADC(uint8_t Ch, uint32_t Target_Freq);
 199:C:\Users\xavie\Cegep\Processeurs\HeroOrZero\inc\lpc_xav.h **** };
 200:C:\Users\xavie\Cegep\Processeurs\HeroOrZero\inc\lpc_xav.h **** /**************************************************************************************************
 201:C:\Users\xavie\Cegep\Processeurs\HeroOrZero\inc\lpc_xav.h **** class DAC{
 202:C:\Users\xavie\Cegep\Processeurs\HeroOrZero\inc\lpc_xav.h **** 	static uint32_t * _Periph;
 203:C:\Users\xavie\Cegep\Processeurs\HeroOrZero\inc\lpc_xav.h **** public:
 204:C:\Users\xavie\Cegep\Processeurs\HeroOrZero\inc\lpc_xav.h **** 	void Set_Output(uint16_t Val_10bit);
 205:C:\Users\xavie\Cegep\Processeurs\HeroOrZero\inc\lpc_xav.h **** 	void Set_Out_Percent(uint8_t Percentage);
 206:C:\Users\xavie\Cegep\Processeurs\HeroOrZero\inc\lpc_xav.h **** };
 207:C:\Users\xavie\Cegep\Processeurs\HeroOrZero\inc\lpc_xav.h **** /**************************************************************************************************
 208:C:\Users\xavie\Cegep\Processeurs\HeroOrZero\inc\lpc_xav.h **** class _I2C{
 209:C:\Users\xavie\Cegep\Processeurs\HeroOrZero\inc\lpc_xav.h **** 	uint32_t * _Periph;
 210:C:\Users\xavie\Cegep\Processeurs\HeroOrZero\inc\lpc_xav.h **** 	uint8_t Clk_bit;
 211:C:\Users\xavie\Cegep\Processeurs\HeroOrZero\inc\lpc_xav.h **** 	uint8_t IRQ_bit;
 212:C:\Users\xavie\Cegep\Processeurs\HeroOrZero\inc\lpc_xav.h **** public:
 213:C:\Users\xavie\Cegep\Processeurs\HeroOrZero\inc\lpc_xav.h **** 	uint8_t tx_buf[512];
 214:C:\Users\xavie\Cegep\Processeurs\HeroOrZero\inc\lpc_xav.h **** 	uint8_t rx_buf[512];
 215:C:\Users\xavie\Cegep\Processeurs\HeroOrZero\inc\lpc_xav.h **** 	bool Busy;
 216:C:\Users\xavie\Cegep\Processeurs\HeroOrZero\inc\lpc_xav.h **** 	uint8_t M_Counter_tx;
 217:C:\Users\xavie\Cegep\Processeurs\HeroOrZero\inc\lpc_xav.h **** 	uint8_t M_Counter_rx;
 218:C:\Users\xavie\Cegep\Processeurs\HeroOrZero\inc\lpc_xav.h **** 	uint8_t Msg_Length;
 219:C:\Users\xavie\Cegep\Processeurs\HeroOrZero\inc\lpc_xav.h **** 	uint8_t Read_Length;
 220:C:\Users\xavie\Cegep\Processeurs\HeroOrZero\inc\lpc_xav.h **** 
 221:C:\Users\xavie\Cegep\Processeurs\HeroOrZero\inc\lpc_xav.h **** 	void Init(uint8_t Bus_Mode, uint32_t I2C_Speed);
 222:C:\Users\xavie\Cegep\Processeurs\HeroOrZero\inc\lpc_xav.h **** 	uint8_t get_Status();
 223:C:\Users\xavie\Cegep\Processeurs\HeroOrZero\inc\lpc_xav.h **** 	void New_Sequence(uint8_t Slave_Address, uint16_t readLength = 0);
 224:C:\Users\xavie\Cegep\Processeurs\HeroOrZero\inc\lpc_xav.h **** 	void Add_String(const char * StrToSend);
 225:C:\Users\xavie\Cegep\Processeurs\HeroOrZero\inc\lpc_xav.h **** 	void Add_BCD_Integer(uint32_t NumberToSend, uint8_t NbDigits);
 226:C:\Users\xavie\Cegep\Processeurs\HeroOrZero\inc\lpc_xav.h **** 	void Add_BCD_Float(uint32_t NumberToSend, uint8_t NbDigits, uint8_t DP_Position);
 227:C:\Users\xavie\Cegep\Processeurs\HeroOrZero\inc\lpc_xav.h **** 	void Add_Byte(uint8_t ByteToSend);
 228:C:\Users\xavie\Cegep\Processeurs\HeroOrZero\inc\lpc_xav.h **** 	void Send_Next_Byte();
 229:C:\Users\xavie\Cegep\Processeurs\HeroOrZero\inc\lpc_xav.h **** 	void Read_Next_Byte();
 230:C:\Users\xavie\Cegep\Processeurs\HeroOrZero\inc\lpc_xav.h **** 	void Send_Address();
 231:C:\Users\xavie\Cegep\Processeurs\HeroOrZero\inc\lpc_xav.h **** 	void Send_Stop();
 232:C:\Users\xavie\Cegep\Processeurs\HeroOrZero\inc\lpc_xav.h **** 	void Send_nACK();
 233:C:\Users\xavie\Cegep\Processeurs\HeroOrZero\inc\lpc_xav.h **** 	void Send_Sequence();
 234:C:\Users\xavie\Cegep\Processeurs\HeroOrZero\inc\lpc_xav.h **** 	void Clear_Interrupt();
 235:C:\Users\xavie\Cegep\Processeurs\HeroOrZero\inc\lpc_xav.h **** 
 236:C:\Users\xavie\Cegep\Processeurs\HeroOrZero\inc\lpc_xav.h **** 	_I2C(uint32_t * PtrI2C, uint8_t C_bit, uint8_t Int_bit);
 237:C:\Users\xavie\Cegep\Processeurs\HeroOrZero\inc\lpc_xav.h **** };
 238:C:\Users\xavie\Cegep\Processeurs\HeroOrZero\inc\lpc_xav.h **** /**************************************************************************************************
 239:C:\Users\xavie\Cegep\Processeurs\HeroOrZero\inc\lpc_xav.h **** class SSP{
 240:C:\Users\xavie\Cegep\Processeurs\HeroOrZero\inc\lpc_xav.h **** 	uint32_t * _Periph;
 241:C:\Users\xavie\Cegep\Processeurs\HeroOrZero\inc\lpc_xav.h **** 	uint8_t Clk_bit;
 242:C:\Users\xavie\Cegep\Processeurs\HeroOrZero\inc\lpc_xav.h **** 	uint8_t IRQ_bit;
 243:C:\Users\xavie\Cegep\Processeurs\HeroOrZero\inc\lpc_xav.h **** 	uint16_t Buffer[128];
ARM GAS  C:\Users\xavie\AppData\Local\Temp\ccbd98DL.s 			page 47


 244:C:\Users\xavie\Cegep\Processeurs\HeroOrZero\inc\lpc_xav.h **** public:
 245:C:\Users\xavie\Cegep\Processeurs\HeroOrZero\inc\lpc_xav.h **** 	uint32_t MIS = *(_Periph + 7);
 246:C:\Users\xavie\Cegep\Processeurs\HeroOrZero\inc\lpc_xav.h **** 	uint8_t M_Counter;
 247:C:\Users\xavie\Cegep\Processeurs\HeroOrZero\inc\lpc_xav.h **** 	uint8_t Msg_Length;
 248:C:\Users\xavie\Cegep\Processeurs\HeroOrZero\inc\lpc_xav.h **** 
 249:C:\Users\xavie\Cegep\Processeurs\HeroOrZero\inc\lpc_xav.h **** 	void Init(uint8_t ClkPrescaler, uint8_t DataSizeSelect, uint8_t CPOL, uint8_t CPHA);
 250:C:\Users\xavie\Cegep\Processeurs\HeroOrZero\inc\lpc_xav.h **** 	void New_Sequence();
 251:C:\Users\xavie\Cegep\Processeurs\HeroOrZero\inc\lpc_xav.h **** 	void Add_String(const char * StrToSend);
 252:C:\Users\xavie\Cegep\Processeurs\HeroOrZero\inc\lpc_xav.h **** 	void Add_BCD_Integer(uint32_t NumberToSend, uint8_t NbDigits);
 253:C:\Users\xavie\Cegep\Processeurs\HeroOrZero\inc\lpc_xav.h **** 	void Add_BCD_Float(uint32_t NumberToSend, uint8_t NbDigits, uint8_t DP_Position);
 254:C:\Users\xavie\Cegep\Processeurs\HeroOrZero\inc\lpc_xav.h **** 	void Add_Byte(uint16_t ByteToSend);
 255:C:\Users\xavie\Cegep\Processeurs\HeroOrZero\inc\lpc_xav.h **** 	void Send_Next_Byte();
 256:C:\Users\xavie\Cegep\Processeurs\HeroOrZero\inc\lpc_xav.h **** 	void Send_Sequence();
 257:C:\Users\xavie\Cegep\Processeurs\HeroOrZero\inc\lpc_xav.h **** 	void End_Transfer();
 258:C:\Users\xavie\Cegep\Processeurs\HeroOrZero\inc\lpc_xav.h **** 	void Enable_Int(uint8_t IntSelect);
 259:C:\Users\xavie\Cegep\Processeurs\HeroOrZero\inc\lpc_xav.h **** 	void Disable_Int(uint8_t IntSelect);
 260:C:\Users\xavie\Cegep\Processeurs\HeroOrZero\inc\lpc_xav.h **** 
 261:C:\Users\xavie\Cegep\Processeurs\HeroOrZero\inc\lpc_xav.h **** 	SSP(uint32_t * PtrSSP, uint8_t C_bit, uint8_t Int_bit);
 262:C:\Users\xavie\Cegep\Processeurs\HeroOrZero\inc\lpc_xav.h **** };
 263:C:\Users\xavie\Cegep\Processeurs\HeroOrZero\inc\lpc_xav.h **** /**************************************************************************************************
 264:C:\Users\xavie\Cegep\Processeurs\HeroOrZero\inc\lpc_xav.h **** // Mandatory objects declaration (Peripherals)
 265:C:\Users\xavie\Cegep\Processeurs\HeroOrZero\inc\lpc_xav.h **** static Port P0((uint32_t *)0x4002C000, (uint32_t *)0x2009C000, (uint32_t *)0x4002C068);
 1261              		.loc 8 265 0 is_stmt 1
 1262 001a 314B     		ldr	r3, .L64
 1263 001c 314A     		ldr	r2, .L64+4
 1264 001e 3249     		ldr	r1, .L64+8
 1265 0020 3248     		ldr	r0, .L64+12
 1266 0022 FFF7FEFF 		bl	_ZN4PortC1EPmS0_S0_
 266:C:\Users\xavie\Cegep\Processeurs\HeroOrZero\inc\lpc_xav.h **** static Port P1((uint32_t *)0x4002C008, (uint32_t *)0x2009C020, (uint32_t *)0x4002C06C);
 1267              		.loc 8 266 0
 1268 0026 324B     		ldr	r3, .L64+16
 1269 0028 324A     		ldr	r2, .L64+20
 1270 002a 3349     		ldr	r1, .L64+24
 1271 002c 3348     		ldr	r0, .L64+28
 1272 002e FFF7FEFF 		bl	_ZN4PortC1EPmS0_S0_
 267:C:\Users\xavie\Cegep\Processeurs\HeroOrZero\inc\lpc_xav.h **** static Port P2((uint32_t *)0x4002C010, (uint32_t *)0x2009C040, (uint32_t *)0x4002C070);
 1273              		.loc 8 267 0
 1274 0032 334B     		ldr	r3, .L64+32
 1275 0034 334A     		ldr	r2, .L64+36
 1276 0036 3449     		ldr	r1, .L64+40
 1277 0038 3448     		ldr	r0, .L64+44
 1278 003a FFF7FEFF 		bl	_ZN4PortC1EPmS0_S0_
 268:C:\Users\xavie\Cegep\Processeurs\HeroOrZero\inc\lpc_xav.h **** static Port P3((uint32_t *)0x4002C018, (uint32_t *)0x2009C060, (uint32_t *)0x4002C074);
 1279              		.loc 8 268 0
 1280 003e 344B     		ldr	r3, .L64+48
 1281 0040 344A     		ldr	r2, .L64+52
 1282 0042 3549     		ldr	r1, .L64+56
 1283 0044 3548     		ldr	r0, .L64+60
 1284 0046 FFF7FEFF 		bl	_ZN4PortC1EPmS0_S0_
 269:C:\Users\xavie\Cegep\Processeurs\HeroOrZero\inc\lpc_xav.h **** static Port P4((uint32_t *)0x4002C020, (uint32_t *)0x2009C080, (uint32_t *)0x4002C078);
 1285              		.loc 8 269 0
 1286 004a 354B     		ldr	r3, .L64+64
 1287 004c 354A     		ldr	r2, .L64+68
 1288 004e 3649     		ldr	r1, .L64+72
 1289 0050 3648     		ldr	r0, .L64+76
 1290 0052 FFF7FEFF 		bl	_ZN4PortC1EPmS0_S0_
 270:C:\Users\xavie\Cegep\Processeurs\HeroOrZero\inc\lpc_xav.h **** 
ARM GAS  C:\Users\xavie\AppData\Local\Temp\ccbd98DL.s 			page 48


 271:C:\Users\xavie\Cegep\Processeurs\HeroOrZero\inc\lpc_xav.h **** static Timer TMR0((uint32_t *)0x40004000, 1, 2, 1);
 1291              		.loc 8 271 0
 1292 0056 0123     		movs	r3, #1
 1293 0058 0093     		str	r3, [sp]
 1294 005a 0223     		movs	r3, #2
 1295 005c 0122     		movs	r2, #1
 1296 005e 4FF04021 		mov	r1, #1073758208
 1297 0062 3348     		ldr	r0, .L64+80
 1298 0064 FFF7FEFF 		bl	_ZN5TimerC1EPmhhh
 272:C:\Users\xavie\Cegep\Processeurs\HeroOrZero\inc\lpc_xav.h **** static Timer TMR1((uint32_t *)0x40008000, 2, 4, 2);
 1299              		.loc 8 272 0
 1300 0068 0223     		movs	r3, #2
 1301 006a 0093     		str	r3, [sp]
 1302 006c 0423     		movs	r3, #4
 1303 006e 0222     		movs	r2, #2
 1304 0070 3049     		ldr	r1, .L64+84
 1305 0072 3148     		ldr	r0, .L64+88
 1306 0074 FFF7FEFF 		bl	_ZN5TimerC1EPmhhh
 273:C:\Users\xavie\Cegep\Processeurs\HeroOrZero\inc\lpc_xav.h **** static Timer TMR2((uint32_t *)0x40090000, 22, 12, 3);
 1307              		.loc 8 273 0
 1308 0078 0323     		movs	r3, #3
 1309 007a 0093     		str	r3, [sp]
 1310 007c 0C23     		movs	r3, #12
 1311 007e 1622     		movs	r2, #22
 1312 0080 2E49     		ldr	r1, .L64+92
 1313 0082 2F48     		ldr	r0, .L64+96
 1314 0084 FFF7FEFF 		bl	_ZN5TimerC1EPmhhh
 274:C:\Users\xavie\Cegep\Processeurs\HeroOrZero\inc\lpc_xav.h **** static Timer TMR3((uint32_t *)0x40094000, 23, 14, 4);
 1315              		.loc 8 274 0
 1316 0088 0423     		movs	r3, #4
 1317 008a 0093     		str	r3, [sp]
 1318 008c 0E23     		movs	r3, #14
 1319 008e 1722     		movs	r2, #23
 1320 0090 2C49     		ldr	r1, .L64+100
 1321 0092 2D48     		ldr	r0, .L64+104
 1322 0094 FFF7FEFF 		bl	_ZN5TimerC1EPmhhh
 275:C:\Users\xavie\Cegep\Processeurs\HeroOrZero\inc\lpc_xav.h **** 
 276:C:\Users\xavie\Cegep\Processeurs\HeroOrZero\inc\lpc_xav.h **** static UART UART0((uint32_t *)0x4000C000, 3, 6, 5);
 1323              		.loc 8 276 0
 1324 0098 0523     		movs	r3, #5
 1325 009a 0093     		str	r3, [sp]
 1326 009c 0623     		movs	r3, #6
 1327 009e 0322     		movs	r2, #3
 1328 00a0 2A49     		ldr	r1, .L64+108
 1329 00a2 2B48     		ldr	r0, .L64+112
 1330 00a4 FFF7FEFF 		bl	_ZN4UARTC1EPmhhh
 277:C:\Users\xavie\Cegep\Processeurs\HeroOrZero\inc\lpc_xav.h **** static UART Keyboard((uint32_t *)0x40098000, 24, 16, 7);
 1331              		.loc 8 277 0
 1332 00a8 0723     		movs	r3, #7
 1333 00aa 0093     		str	r3, [sp]
 1334 00ac 1023     		movs	r3, #16
 1335 00ae 1822     		movs	r2, #24
 1336 00b0 2849     		ldr	r1, .L64+116
 1337 00b2 2948     		ldr	r0, .L64+120
 1338 00b4 FFF7FEFF 		bl	_ZN4UARTC1EPmhhh
 278:C:\Users\xavie\Cegep\Processeurs\HeroOrZero\inc\lpc_xav.h **** static UART Console((uint32_t *)0x4009C000, 25, 18, 8);
 1339              		.loc 8 278 0
ARM GAS  C:\Users\xavie\AppData\Local\Temp\ccbd98DL.s 			page 49


 1340 00b8 0823     		movs	r3, #8
 1341 00ba 0093     		str	r3, [sp]
 1342 00bc 1223     		movs	r3, #18
 1343 00be 1922     		movs	r2, #25
 1344 00c0 2649     		ldr	r1, .L64+124
 1345 00c2 2748     		ldr	r0, .L64+128
 1346 00c4 FFF7FEFF 		bl	_ZN4UARTC1EPmhhh
  16:../src/game.cpp **** 
 1347              		.loc 7 16 0
 1348 00c8 2648     		ldr	r0, .L64+132
 1349 00ca FFF7FEFF 		bl	_ZN11SaveManagerC1Ev
 1350 00ce 264A     		ldr	r2, .L64+136
 1351 00d0 2649     		ldr	r1, .L64+140
 1352 00d2 2448     		ldr	r0, .L64+132
 1353 00d4 FFF7FEFF 		bl	__aeabi_atexit
 1354              	.L63:
 1355              		.loc 7 86 0
 1356 00d8 00BF     		nop
 1357 00da 0837     		adds	r7, r7, #8
 1358              		.cfi_def_cfa_offset 8
 1359 00dc BD46     		mov	sp, r7
 1360              		.cfi_def_cfa_register 13
 1361              		@ sp needed
 1362 00de 80BD     		pop	{r7, pc}
 1363              	.L65:
 1364              		.align	2
 1365              	.L64:
 1366 00e0 68C00240 		.word	1073922152
 1367 00e4 00C00920 		.word	537509888
 1368 00e8 00C00240 		.word	1073922048
 1369 00ec 00000000 		.word	_ZL2P0
 1370 00f0 6CC00240 		.word	1073922156
 1371 00f4 20C00920 		.word	537509920
 1372 00f8 08C00240 		.word	1073922056
 1373 00fc 00000000 		.word	_ZL2P1
 1374 0100 70C00240 		.word	1073922160
 1375 0104 40C00920 		.word	537509952
 1376 0108 10C00240 		.word	1073922064
 1377 010c 00000000 		.word	_ZL2P2
 1378 0110 74C00240 		.word	1073922164
 1379 0114 60C00920 		.word	537509984
 1380 0118 18C00240 		.word	1073922072
 1381 011c 00000000 		.word	_ZL2P3
 1382 0120 78C00240 		.word	1073922168
 1383 0124 80C00920 		.word	537510016
 1384 0128 20C00240 		.word	1073922080
 1385 012c 00000000 		.word	_ZL2P4
 1386 0130 00000000 		.word	_ZL4TMR0
 1387 0134 00800040 		.word	1073774592
 1388 0138 00000000 		.word	_ZL4TMR1
 1389 013c 00000940 		.word	1074331648
 1390 0140 00000000 		.word	_ZL4TMR2
 1391 0144 00400940 		.word	1074348032
 1392 0148 00000000 		.word	_ZL4TMR3
 1393 014c 00C00040 		.word	1073790976
 1394 0150 00000000 		.word	_ZL5UART0
 1395 0154 00800940 		.word	1074364416
ARM GAS  C:\Users\xavie\AppData\Local\Temp\ccbd98DL.s 			page 50


 1396 0158 00000000 		.word	_ZL8Keyboard
 1397 015c 00C00940 		.word	1074380800
 1398 0160 00000000 		.word	_ZL7Console
 1399 0164 00000000 		.word	_ZN4Game11SaveHandlerE
 1400 0168 00000000 		.word	__dso_handle
 1401 016c 00000000 		.word	_ZN11SaveManagerD1Ev
 1402              		.cfi_endproc
 1403              	.LFE2096:
 1405              		.section	.text._GLOBAL__sub_I_AvailableResourceFields,"ax",%progbits
 1406              		.align	1
 1407              		.syntax unified
 1408              		.thumb
 1409              		.thumb_func
 1410              		.fpu softvfp
 1412              	_GLOBAL__sub_I_AvailableResourceFields:
 1413              	.LFB2101:
 1414              		.loc 7 86 0
 1415              		.cfi_startproc
 1416              		@ args = 0, pretend = 0, frame = 0
 1417              		@ frame_needed = 1, uses_anonymous_args = 0
 1418 0000 80B5     		push	{r7, lr}
 1419              		.cfi_def_cfa_offset 8
 1420              		.cfi_offset 7, -8
 1421              		.cfi_offset 14, -4
 1422 0002 00AF     		add	r7, sp, #0
 1423              		.cfi_def_cfa_register 7
 1424              		.loc 7 86 0
 1425 0004 4FF6FF71 		movw	r1, #65535
 1426 0008 0120     		movs	r0, #1
 1427 000a FFF7FEFF 		bl	_Z41__static_initialization_and_destruction_0ii
 1428 000e 80BD     		pop	{r7, pc}
 1429              		.cfi_endproc
 1430              	.LFE2101:
 1432              		.section	.init_array,"aw",%init_array
 1433              		.align	2
 1434 0000 00000000 		.word	_GLOBAL__sub_I_AvailableResourceFields(target1)
 1435              		.text
 1436              	.Letext0:
 1437              		.file 9 "c:\\nxp\\mcuxpressoide_10.2.1_795\\ide\\tools\\arm-none-eabi\\include\\machine\\_default_
 1438              		.file 10 "c:\\nxp\\mcuxpressoide_10.2.1_795\\ide\\tools\\arm-none-eabi\\include\\sys\\_stdint.h"
 1439              		.file 11 "c:\\nxp\\mcuxpressoide_10.2.1_795\\ide\\tools\\arm-none-eabi\\include\\stdint.h"
 1440              		.file 12 "c:\\nxp\\mcuxpressoide_10.2.1_795\\ide\\tools\\arm-none-eabi\\include\\c++\\7.2.1\\type_
 1441              		.file 13 "c:\\nxp\\mcuxpressoide_10.2.1_795\\ide\\tools\\arm-none-eabi\\include\\c++\\7.2.1\\arm-n
 1442              		.file 14 "c:\\nxp\\mcuxpressoide_10.2.1_795\\ide\\tools\\arm-none-eabi\\include\\c++\\7.2.1\\debug
 1443              		.file 15 "c:\\nxp\\mcuxpressoide_10.2.1_795\\ide\\tools\\arm-none-eabi\\include\\c++\\7.2.1\\cwcha
 1444              		.file 16 "c:\\nxp\\mcuxpressoide_10.2.1_795\\ide\\tools\\arm-none-eabi\\include\\c++\\7.2.1\\cstdi
 1445              		.file 17 "c:\\nxp\\mcuxpressoide_10.2.1_795\\ide\\tools\\arm-none-eabi\\include\\c++\\7.2.1\\bits\
 1446              		.file 18 "c:\\nxp\\mcuxpressoide_10.2.1_795\\ide\\tools\\arm-none-eabi\\include\\c++\\7.2.1\\new"
 1447              		.file 19 "c:\\nxp\\mcuxpressoide_10.2.1_795\\ide\\tools\\arm-none-eabi\\include\\c++\\7.2.1\\cloca
 1448              		.file 20 "c:\\nxp\\mcuxpressoide_10.2.1_795\\ide\\tools\\arm-none-eabi\\include\\c++\\7.2.1\\cctyp
 1449              		.file 21 "c:\\nxp\\mcuxpressoide_10.2.1_795\\ide\\tools\\arm-none-eabi\\include\\c++\\7.2.1\\bits\
 1450              		.file 22 "c:\\nxp\\mcuxpressoide_10.2.1_795\\ide\\tools\\arm-none-eabi\\include\\c++\\7.2.1\\cstdl
 1451              		.file 23 "c:\\nxp\\mcuxpressoide_10.2.1_795\\ide\\tools\\arm-none-eabi\\include\\c++\\7.2.1\\cstdi
 1452              		.file 24 "c:\\nxp\\mcuxpressoide_10.2.1_795\\ide\\tools\\arm-none-eabi\\include\\c++\\7.2.1\\bits\
 1453              		.file 25 "c:\\nxp\\mcuxpressoide_10.2.1_795\\ide\\tools\\arm-none-eabi\\include\\c++\\7.2.1\\cstri
 1454              		.file 26 "c:\\nxp\\mcuxpressoide_10.2.1_795\\ide\\tools\\arm-none-eabi\\include\\c++\\7.2.1\\bits\
 1455              		.file 27 "c:\\nxp\\mcuxpressoide_10.2.1_795\\ide\\tools\\arm-none-eabi\\include\\c++\\7.2.1\\ext\\
ARM GAS  C:\Users\xavie\AppData\Local\Temp\ccbd98DL.s 			page 51


 1456              		.file 28 "c:\\nxp\\mcuxpressoide_10.2.1_795\\ide\\tools\\arm-none-eabi\\include\\c++\\7.2.1\\ext\\
 1457              		.file 29 "c:\\nxp\\mcuxpressoide_10.2.1_795\\ide\\tools\\lib\\gcc\\arm-none-eabi\\7.2.1\\include\\
 1458              		.file 30 "c:\\nxp\\mcuxpressoide_10.2.1_795\\ide\\tools\\arm-none-eabi\\include\\sys\\lock.h"
 1459              		.file 31 "c:\\nxp\\mcuxpressoide_10.2.1_795\\ide\\tools\\arm-none-eabi\\include\\sys\\_types.h"
 1460              		.file 32 "c:\\nxp\\mcuxpressoide_10.2.1_795\\ide\\tools\\arm-none-eabi\\include\\sys\\reent.h"
 1461              		.file 33 "c:\\nxp\\mcuxpressoide_10.2.1_795\\ide\\tools\\lib\\gcc\\arm-none-eabi\\7.2.1\\include\\
 1462              		.file 34 "<built-in>"
 1463              		.file 35 "c:\\nxp\\mcuxpressoide_10.2.1_795\\ide\\tools\\arm-none-eabi\\include\\wchar.h"
 1464              		.file 36 "c:\\nxp\\mcuxpressoide_10.2.1_795\\ide\\tools\\arm-none-eabi\\include\\locale.h"
 1465              		.file 37 "c:\\nxp\\mcuxpressoide_10.2.1_795\\ide\\tools\\arm-none-eabi\\include\\ctype.h"
 1466              		.file 38 "c:\\nxp\\mcuxpressoide_10.2.1_795\\ide\\tools\\arm-none-eabi\\include\\stdlib.h"
 1467              		.file 39 "c:\\nxp\\mcuxpressoide_10.2.1_795\\ide\\tools\\arm-none-eabi\\include\\stdio.h"
 1468              		.file 40 "c:\\nxp\\mcuxpressoide_10.2.1_795\\ide\\tools\\arm-none-eabi\\include\\sys\\errno.h"
 1469              		.file 41 "C:\\Users\\xavie\\Cegep\\Processeurs\\HeroOrZero\\inc/ps2controller.h"
 1470              		.file 42 "C:\\Users\\xavie\\Cegep\\Processeurs\\HeroOrZero\\inc/gui.h"
 1471              		.file 43 "C:\\Users\\xavie\\Cegep\\Processeurs\\HeroOrZero\\inc/game.h"
 1472              		.file 44 "C:\\Users\\xavie\\Cegep\\Processeurs\\lpc_chip_175x_6x\\inc/core_cm3.h"
 1473              		.file 45 "C:\\Users\\xavie\\Cegep\\Processeurs\\lpc_chip_175x_6x\\inc/chip.h"
 1474              		.file 46 "c:\\nxp\\mcuxpressoide_10.2.1_795\\ide\\tools\\arm-none-eabi\\include\\string.h"
ARM GAS  C:\Users\xavie\AppData\Local\Temp\ccbd98DL.s 			page 52

