ARM GAS  C:\Users\xavie\AppData\Local\Temp\cclTCAUq.s 			page 1


   1              		.cpu cortex-m3
   2              		.eabi_attribute 20, 1
   3              		.eabi_attribute 21, 1
   4              		.eabi_attribute 23, 3
   5              		.eabi_attribute 24, 1
   6              		.eabi_attribute 25, 1
   7              		.eabi_attribute 26, 1
   8              		.eabi_attribute 30, 6
   9              		.eabi_attribute 34, 1
  10              		.eabi_attribute 18, 4
  11              		.file	"map_objects.cpp"
  12              		.text
  13              	.Ltext0:
  14              		.cfi_sections	.debug_frame
  15              		.section	.rodata._ZStL19piecewise_construct,"a",%progbits
  16              		.align	2
  19              	_ZStL19piecewise_construct:
  20 0000 00       		.space	1
  21              		.section	.text._ZL20__gthread_key_deletei,"ax",%progbits
  22              		.align	1
  23              		.syntax unified
  24              		.thumb
  25              		.thumb_func
  26              		.fpu softvfp
  28              	_ZL20__gthread_key_deletei:
  29              	.LFB599:
  30              		.file 1 "c:\\nxp\\mcuxpressoide_10.2.1_795\\ide\\tools\\arm-none-eabi\\include\\c++\\7.2.1\\arm-no
   1:c:\nxp\mcuxpressoide_10.2.1_795\ide\tools\arm-none-eabi\include\c++\7.2.1\arm-none-eabi\thumb\v7-m\bits\gthr-default.h **** /* Threads compatibility routines for libgcc2 and libobjc.  */
   2:c:\nxp\mcuxpressoide_10.2.1_795\ide\tools\arm-none-eabi\include\c++\7.2.1\arm-none-eabi\thumb\v7-m\bits\gthr-default.h **** /* Compile this one with gcc.  */
   3:c:\nxp\mcuxpressoide_10.2.1_795\ide\tools\arm-none-eabi\include\c++\7.2.1\arm-none-eabi\thumb\v7-m\bits\gthr-default.h **** /* Copyright (C) 1997-2017 Free Software Foundation, Inc.
   4:c:\nxp\mcuxpressoide_10.2.1_795\ide\tools\arm-none-eabi\include\c++\7.2.1\arm-none-eabi\thumb\v7-m\bits\gthr-default.h **** 
   5:c:\nxp\mcuxpressoide_10.2.1_795\ide\tools\arm-none-eabi\include\c++\7.2.1\arm-none-eabi\thumb\v7-m\bits\gthr-default.h **** This file is part of GCC.
   6:c:\nxp\mcuxpressoide_10.2.1_795\ide\tools\arm-none-eabi\include\c++\7.2.1\arm-none-eabi\thumb\v7-m\bits\gthr-default.h **** 
   7:c:\nxp\mcuxpressoide_10.2.1_795\ide\tools\arm-none-eabi\include\c++\7.2.1\arm-none-eabi\thumb\v7-m\bits\gthr-default.h **** GCC is free software; you can redistribute it and/or modify it under
   8:c:\nxp\mcuxpressoide_10.2.1_795\ide\tools\arm-none-eabi\include\c++\7.2.1\arm-none-eabi\thumb\v7-m\bits\gthr-default.h **** the terms of the GNU General Public License as published by the Free
   9:c:\nxp\mcuxpressoide_10.2.1_795\ide\tools\arm-none-eabi\include\c++\7.2.1\arm-none-eabi\thumb\v7-m\bits\gthr-default.h **** Software Foundation; either version 3, or (at your option) any later
  10:c:\nxp\mcuxpressoide_10.2.1_795\ide\tools\arm-none-eabi\include\c++\7.2.1\arm-none-eabi\thumb\v7-m\bits\gthr-default.h **** version.
  11:c:\nxp\mcuxpressoide_10.2.1_795\ide\tools\arm-none-eabi\include\c++\7.2.1\arm-none-eabi\thumb\v7-m\bits\gthr-default.h **** 
  12:c:\nxp\mcuxpressoide_10.2.1_795\ide\tools\arm-none-eabi\include\c++\7.2.1\arm-none-eabi\thumb\v7-m\bits\gthr-default.h **** GCC is distributed in the hope that it will be useful, but WITHOUT ANY
  13:c:\nxp\mcuxpressoide_10.2.1_795\ide\tools\arm-none-eabi\include\c++\7.2.1\arm-none-eabi\thumb\v7-m\bits\gthr-default.h **** WARRANTY; without even the implied warranty of MERCHANTABILITY or
  14:c:\nxp\mcuxpressoide_10.2.1_795\ide\tools\arm-none-eabi\include\c++\7.2.1\arm-none-eabi\thumb\v7-m\bits\gthr-default.h **** FITNESS FOR A PARTICULAR PURPOSE.  See the GNU General Public License
  15:c:\nxp\mcuxpressoide_10.2.1_795\ide\tools\arm-none-eabi\include\c++\7.2.1\arm-none-eabi\thumb\v7-m\bits\gthr-default.h **** for more details.
  16:c:\nxp\mcuxpressoide_10.2.1_795\ide\tools\arm-none-eabi\include\c++\7.2.1\arm-none-eabi\thumb\v7-m\bits\gthr-default.h **** 
  17:c:\nxp\mcuxpressoide_10.2.1_795\ide\tools\arm-none-eabi\include\c++\7.2.1\arm-none-eabi\thumb\v7-m\bits\gthr-default.h **** Under Section 7 of GPL version 3, you are granted additional
  18:c:\nxp\mcuxpressoide_10.2.1_795\ide\tools\arm-none-eabi\include\c++\7.2.1\arm-none-eabi\thumb\v7-m\bits\gthr-default.h **** permissions described in the GCC Runtime Library Exception, version
  19:c:\nxp\mcuxpressoide_10.2.1_795\ide\tools\arm-none-eabi\include\c++\7.2.1\arm-none-eabi\thumb\v7-m\bits\gthr-default.h **** 3.1, as published by the Free Software Foundation.
  20:c:\nxp\mcuxpressoide_10.2.1_795\ide\tools\arm-none-eabi\include\c++\7.2.1\arm-none-eabi\thumb\v7-m\bits\gthr-default.h **** 
  21:c:\nxp\mcuxpressoide_10.2.1_795\ide\tools\arm-none-eabi\include\c++\7.2.1\arm-none-eabi\thumb\v7-m\bits\gthr-default.h **** You should have received a copy of the GNU General Public License and
  22:c:\nxp\mcuxpressoide_10.2.1_795\ide\tools\arm-none-eabi\include\c++\7.2.1\arm-none-eabi\thumb\v7-m\bits\gthr-default.h **** a copy of the GCC Runtime Library Exception along with this program;
  23:c:\nxp\mcuxpressoide_10.2.1_795\ide\tools\arm-none-eabi\include\c++\7.2.1\arm-none-eabi\thumb\v7-m\bits\gthr-default.h **** see the files COPYING3 and COPYING.RUNTIME respectively.  If not, see
  24:c:\nxp\mcuxpressoide_10.2.1_795\ide\tools\arm-none-eabi\include\c++\7.2.1\arm-none-eabi\thumb\v7-m\bits\gthr-default.h **** <http://www.gnu.org/licenses/>.  */
  25:c:\nxp\mcuxpressoide_10.2.1_795\ide\tools\arm-none-eabi\include\c++\7.2.1\arm-none-eabi\thumb\v7-m\bits\gthr-default.h **** 
  26:c:\nxp\mcuxpressoide_10.2.1_795\ide\tools\arm-none-eabi\include\c++\7.2.1\arm-none-eabi\thumb\v7-m\bits\gthr-default.h **** #ifndef _GLIBCXX_GCC_GTHR_SINGLE_H
  27:c:\nxp\mcuxpressoide_10.2.1_795\ide\tools\arm-none-eabi\include\c++\7.2.1\arm-none-eabi\thumb\v7-m\bits\gthr-default.h **** #define _GLIBCXX_GCC_GTHR_SINGLE_H
  28:c:\nxp\mcuxpressoide_10.2.1_795\ide\tools\arm-none-eabi\include\c++\7.2.1\arm-none-eabi\thumb\v7-m\bits\gthr-default.h **** 
  29:c:\nxp\mcuxpressoide_10.2.1_795\ide\tools\arm-none-eabi\include\c++\7.2.1\arm-none-eabi\thumb\v7-m\bits\gthr-default.h **** /* Just provide compatibility for mutex handling.  */
  30:c:\nxp\mcuxpressoide_10.2.1_795\ide\tools\arm-none-eabi\include\c++\7.2.1\arm-none-eabi\thumb\v7-m\bits\gthr-default.h **** 
ARM GAS  C:\Users\xavie\AppData\Local\Temp\cclTCAUq.s 			page 2


  31:c:\nxp\mcuxpressoide_10.2.1_795\ide\tools\arm-none-eabi\include\c++\7.2.1\arm-none-eabi\thumb\v7-m\bits\gthr-default.h **** typedef int __gthread_key_t;
  32:c:\nxp\mcuxpressoide_10.2.1_795\ide\tools\arm-none-eabi\include\c++\7.2.1\arm-none-eabi\thumb\v7-m\bits\gthr-default.h **** typedef int __gthread_once_t;
  33:c:\nxp\mcuxpressoide_10.2.1_795\ide\tools\arm-none-eabi\include\c++\7.2.1\arm-none-eabi\thumb\v7-m\bits\gthr-default.h **** typedef int __gthread_mutex_t;
  34:c:\nxp\mcuxpressoide_10.2.1_795\ide\tools\arm-none-eabi\include\c++\7.2.1\arm-none-eabi\thumb\v7-m\bits\gthr-default.h **** typedef int __gthread_recursive_mutex_t;
  35:c:\nxp\mcuxpressoide_10.2.1_795\ide\tools\arm-none-eabi\include\c++\7.2.1\arm-none-eabi\thumb\v7-m\bits\gthr-default.h **** 
  36:c:\nxp\mcuxpressoide_10.2.1_795\ide\tools\arm-none-eabi\include\c++\7.2.1\arm-none-eabi\thumb\v7-m\bits\gthr-default.h **** #define __GTHREAD_ONCE_INIT 0
  37:c:\nxp\mcuxpressoide_10.2.1_795\ide\tools\arm-none-eabi\include\c++\7.2.1\arm-none-eabi\thumb\v7-m\bits\gthr-default.h **** #define __GTHREAD_MUTEX_INIT 0
  38:c:\nxp\mcuxpressoide_10.2.1_795\ide\tools\arm-none-eabi\include\c++\7.2.1\arm-none-eabi\thumb\v7-m\bits\gthr-default.h **** #define __GTHREAD_MUTEX_INIT_FUNCTION(mx) do {} while (0)
  39:c:\nxp\mcuxpressoide_10.2.1_795\ide\tools\arm-none-eabi\include\c++\7.2.1\arm-none-eabi\thumb\v7-m\bits\gthr-default.h **** #define __GTHREAD_RECURSIVE_MUTEX_INIT 0
  40:c:\nxp\mcuxpressoide_10.2.1_795\ide\tools\arm-none-eabi\include\c++\7.2.1\arm-none-eabi\thumb\v7-m\bits\gthr-default.h **** 
  41:c:\nxp\mcuxpressoide_10.2.1_795\ide\tools\arm-none-eabi\include\c++\7.2.1\arm-none-eabi\thumb\v7-m\bits\gthr-default.h **** #define _GLIBCXX_UNUSED __attribute__((__unused__))
  42:c:\nxp\mcuxpressoide_10.2.1_795\ide\tools\arm-none-eabi\include\c++\7.2.1\arm-none-eabi\thumb\v7-m\bits\gthr-default.h **** 
  43:c:\nxp\mcuxpressoide_10.2.1_795\ide\tools\arm-none-eabi\include\c++\7.2.1\arm-none-eabi\thumb\v7-m\bits\gthr-default.h **** #ifdef _LIBOBJC
  44:c:\nxp\mcuxpressoide_10.2.1_795\ide\tools\arm-none-eabi\include\c++\7.2.1\arm-none-eabi\thumb\v7-m\bits\gthr-default.h **** 
  45:c:\nxp\mcuxpressoide_10.2.1_795\ide\tools\arm-none-eabi\include\c++\7.2.1\arm-none-eabi\thumb\v7-m\bits\gthr-default.h **** /* Thread local storage for a single thread */
  46:c:\nxp\mcuxpressoide_10.2.1_795\ide\tools\arm-none-eabi\include\c++\7.2.1\arm-none-eabi\thumb\v7-m\bits\gthr-default.h **** static void *thread_local_storage = NULL;
  47:c:\nxp\mcuxpressoide_10.2.1_795\ide\tools\arm-none-eabi\include\c++\7.2.1\arm-none-eabi\thumb\v7-m\bits\gthr-default.h **** 
  48:c:\nxp\mcuxpressoide_10.2.1_795\ide\tools\arm-none-eabi\include\c++\7.2.1\arm-none-eabi\thumb\v7-m\bits\gthr-default.h **** /* Backend initialization functions */
  49:c:\nxp\mcuxpressoide_10.2.1_795\ide\tools\arm-none-eabi\include\c++\7.2.1\arm-none-eabi\thumb\v7-m\bits\gthr-default.h **** 
  50:c:\nxp\mcuxpressoide_10.2.1_795\ide\tools\arm-none-eabi\include\c++\7.2.1\arm-none-eabi\thumb\v7-m\bits\gthr-default.h **** /* Initialize the threads subsystem.  */
  51:c:\nxp\mcuxpressoide_10.2.1_795\ide\tools\arm-none-eabi\include\c++\7.2.1\arm-none-eabi\thumb\v7-m\bits\gthr-default.h **** static inline int
  52:c:\nxp\mcuxpressoide_10.2.1_795\ide\tools\arm-none-eabi\include\c++\7.2.1\arm-none-eabi\thumb\v7-m\bits\gthr-default.h **** __gthread_objc_init_thread_system (void)
  53:c:\nxp\mcuxpressoide_10.2.1_795\ide\tools\arm-none-eabi\include\c++\7.2.1\arm-none-eabi\thumb\v7-m\bits\gthr-default.h **** {
  54:c:\nxp\mcuxpressoide_10.2.1_795\ide\tools\arm-none-eabi\include\c++\7.2.1\arm-none-eabi\thumb\v7-m\bits\gthr-default.h ****   /* No thread support available */
  55:c:\nxp\mcuxpressoide_10.2.1_795\ide\tools\arm-none-eabi\include\c++\7.2.1\arm-none-eabi\thumb\v7-m\bits\gthr-default.h ****   return -1;
  56:c:\nxp\mcuxpressoide_10.2.1_795\ide\tools\arm-none-eabi\include\c++\7.2.1\arm-none-eabi\thumb\v7-m\bits\gthr-default.h **** }
  57:c:\nxp\mcuxpressoide_10.2.1_795\ide\tools\arm-none-eabi\include\c++\7.2.1\arm-none-eabi\thumb\v7-m\bits\gthr-default.h **** 
  58:c:\nxp\mcuxpressoide_10.2.1_795\ide\tools\arm-none-eabi\include\c++\7.2.1\arm-none-eabi\thumb\v7-m\bits\gthr-default.h **** /* Close the threads subsystem.  */
  59:c:\nxp\mcuxpressoide_10.2.1_795\ide\tools\arm-none-eabi\include\c++\7.2.1\arm-none-eabi\thumb\v7-m\bits\gthr-default.h **** static inline int
  60:c:\nxp\mcuxpressoide_10.2.1_795\ide\tools\arm-none-eabi\include\c++\7.2.1\arm-none-eabi\thumb\v7-m\bits\gthr-default.h **** __gthread_objc_close_thread_system (void)
  61:c:\nxp\mcuxpressoide_10.2.1_795\ide\tools\arm-none-eabi\include\c++\7.2.1\arm-none-eabi\thumb\v7-m\bits\gthr-default.h **** {
  62:c:\nxp\mcuxpressoide_10.2.1_795\ide\tools\arm-none-eabi\include\c++\7.2.1\arm-none-eabi\thumb\v7-m\bits\gthr-default.h ****   /* No thread support available */
  63:c:\nxp\mcuxpressoide_10.2.1_795\ide\tools\arm-none-eabi\include\c++\7.2.1\arm-none-eabi\thumb\v7-m\bits\gthr-default.h ****   return -1;
  64:c:\nxp\mcuxpressoide_10.2.1_795\ide\tools\arm-none-eabi\include\c++\7.2.1\arm-none-eabi\thumb\v7-m\bits\gthr-default.h **** }
  65:c:\nxp\mcuxpressoide_10.2.1_795\ide\tools\arm-none-eabi\include\c++\7.2.1\arm-none-eabi\thumb\v7-m\bits\gthr-default.h **** 
  66:c:\nxp\mcuxpressoide_10.2.1_795\ide\tools\arm-none-eabi\include\c++\7.2.1\arm-none-eabi\thumb\v7-m\bits\gthr-default.h **** /* Backend thread functions */
  67:c:\nxp\mcuxpressoide_10.2.1_795\ide\tools\arm-none-eabi\include\c++\7.2.1\arm-none-eabi\thumb\v7-m\bits\gthr-default.h **** 
  68:c:\nxp\mcuxpressoide_10.2.1_795\ide\tools\arm-none-eabi\include\c++\7.2.1\arm-none-eabi\thumb\v7-m\bits\gthr-default.h **** /* Create a new thread of execution.  */
  69:c:\nxp\mcuxpressoide_10.2.1_795\ide\tools\arm-none-eabi\include\c++\7.2.1\arm-none-eabi\thumb\v7-m\bits\gthr-default.h **** static inline objc_thread_t
  70:c:\nxp\mcuxpressoide_10.2.1_795\ide\tools\arm-none-eabi\include\c++\7.2.1\arm-none-eabi\thumb\v7-m\bits\gthr-default.h **** __gthread_objc_thread_detach (void (* func)(void *), void * arg _GLIBCXX_UNUSED)
  71:c:\nxp\mcuxpressoide_10.2.1_795\ide\tools\arm-none-eabi\include\c++\7.2.1\arm-none-eabi\thumb\v7-m\bits\gthr-default.h **** {
  72:c:\nxp\mcuxpressoide_10.2.1_795\ide\tools\arm-none-eabi\include\c++\7.2.1\arm-none-eabi\thumb\v7-m\bits\gthr-default.h ****   /* No thread support available */
  73:c:\nxp\mcuxpressoide_10.2.1_795\ide\tools\arm-none-eabi\include\c++\7.2.1\arm-none-eabi\thumb\v7-m\bits\gthr-default.h ****   return NULL;
  74:c:\nxp\mcuxpressoide_10.2.1_795\ide\tools\arm-none-eabi\include\c++\7.2.1\arm-none-eabi\thumb\v7-m\bits\gthr-default.h **** }
  75:c:\nxp\mcuxpressoide_10.2.1_795\ide\tools\arm-none-eabi\include\c++\7.2.1\arm-none-eabi\thumb\v7-m\bits\gthr-default.h **** 
  76:c:\nxp\mcuxpressoide_10.2.1_795\ide\tools\arm-none-eabi\include\c++\7.2.1\arm-none-eabi\thumb\v7-m\bits\gthr-default.h **** /* Set the current thread's priority.  */
  77:c:\nxp\mcuxpressoide_10.2.1_795\ide\tools\arm-none-eabi\include\c++\7.2.1\arm-none-eabi\thumb\v7-m\bits\gthr-default.h **** static inline int
  78:c:\nxp\mcuxpressoide_10.2.1_795\ide\tools\arm-none-eabi\include\c++\7.2.1\arm-none-eabi\thumb\v7-m\bits\gthr-default.h **** __gthread_objc_thread_set_priority (int priority _GLIBCXX_UNUSED)
  79:c:\nxp\mcuxpressoide_10.2.1_795\ide\tools\arm-none-eabi\include\c++\7.2.1\arm-none-eabi\thumb\v7-m\bits\gthr-default.h **** {
  80:c:\nxp\mcuxpressoide_10.2.1_795\ide\tools\arm-none-eabi\include\c++\7.2.1\arm-none-eabi\thumb\v7-m\bits\gthr-default.h ****   /* No thread support available */
  81:c:\nxp\mcuxpressoide_10.2.1_795\ide\tools\arm-none-eabi\include\c++\7.2.1\arm-none-eabi\thumb\v7-m\bits\gthr-default.h ****   return -1;
  82:c:\nxp\mcuxpressoide_10.2.1_795\ide\tools\arm-none-eabi\include\c++\7.2.1\arm-none-eabi\thumb\v7-m\bits\gthr-default.h **** }
  83:c:\nxp\mcuxpressoide_10.2.1_795\ide\tools\arm-none-eabi\include\c++\7.2.1\arm-none-eabi\thumb\v7-m\bits\gthr-default.h **** 
  84:c:\nxp\mcuxpressoide_10.2.1_795\ide\tools\arm-none-eabi\include\c++\7.2.1\arm-none-eabi\thumb\v7-m\bits\gthr-default.h **** /* Return the current thread's priority.  */
  85:c:\nxp\mcuxpressoide_10.2.1_795\ide\tools\arm-none-eabi\include\c++\7.2.1\arm-none-eabi\thumb\v7-m\bits\gthr-default.h **** static inline int
  86:c:\nxp\mcuxpressoide_10.2.1_795\ide\tools\arm-none-eabi\include\c++\7.2.1\arm-none-eabi\thumb\v7-m\bits\gthr-default.h **** __gthread_objc_thread_get_priority (void)
  87:c:\nxp\mcuxpressoide_10.2.1_795\ide\tools\arm-none-eabi\include\c++\7.2.1\arm-none-eabi\thumb\v7-m\bits\gthr-default.h **** {
ARM GAS  C:\Users\xavie\AppData\Local\Temp\cclTCAUq.s 			page 3


  88:c:\nxp\mcuxpressoide_10.2.1_795\ide\tools\arm-none-eabi\include\c++\7.2.1\arm-none-eabi\thumb\v7-m\bits\gthr-default.h ****   return OBJC_THREAD_INTERACTIVE_PRIORITY;
  89:c:\nxp\mcuxpressoide_10.2.1_795\ide\tools\arm-none-eabi\include\c++\7.2.1\arm-none-eabi\thumb\v7-m\bits\gthr-default.h **** }
  90:c:\nxp\mcuxpressoide_10.2.1_795\ide\tools\arm-none-eabi\include\c++\7.2.1\arm-none-eabi\thumb\v7-m\bits\gthr-default.h **** 
  91:c:\nxp\mcuxpressoide_10.2.1_795\ide\tools\arm-none-eabi\include\c++\7.2.1\arm-none-eabi\thumb\v7-m\bits\gthr-default.h **** /* Yield our process time to another thread.  */
  92:c:\nxp\mcuxpressoide_10.2.1_795\ide\tools\arm-none-eabi\include\c++\7.2.1\arm-none-eabi\thumb\v7-m\bits\gthr-default.h **** static inline void
  93:c:\nxp\mcuxpressoide_10.2.1_795\ide\tools\arm-none-eabi\include\c++\7.2.1\arm-none-eabi\thumb\v7-m\bits\gthr-default.h **** __gthread_objc_thread_yield (void)
  94:c:\nxp\mcuxpressoide_10.2.1_795\ide\tools\arm-none-eabi\include\c++\7.2.1\arm-none-eabi\thumb\v7-m\bits\gthr-default.h **** {
  95:c:\nxp\mcuxpressoide_10.2.1_795\ide\tools\arm-none-eabi\include\c++\7.2.1\arm-none-eabi\thumb\v7-m\bits\gthr-default.h ****   return;
  96:c:\nxp\mcuxpressoide_10.2.1_795\ide\tools\arm-none-eabi\include\c++\7.2.1\arm-none-eabi\thumb\v7-m\bits\gthr-default.h **** }
  97:c:\nxp\mcuxpressoide_10.2.1_795\ide\tools\arm-none-eabi\include\c++\7.2.1\arm-none-eabi\thumb\v7-m\bits\gthr-default.h **** 
  98:c:\nxp\mcuxpressoide_10.2.1_795\ide\tools\arm-none-eabi\include\c++\7.2.1\arm-none-eabi\thumb\v7-m\bits\gthr-default.h **** /* Terminate the current thread.  */
  99:c:\nxp\mcuxpressoide_10.2.1_795\ide\tools\arm-none-eabi\include\c++\7.2.1\arm-none-eabi\thumb\v7-m\bits\gthr-default.h **** static inline int
 100:c:\nxp\mcuxpressoide_10.2.1_795\ide\tools\arm-none-eabi\include\c++\7.2.1\arm-none-eabi\thumb\v7-m\bits\gthr-default.h **** __gthread_objc_thread_exit (void)
 101:c:\nxp\mcuxpressoide_10.2.1_795\ide\tools\arm-none-eabi\include\c++\7.2.1\arm-none-eabi\thumb\v7-m\bits\gthr-default.h **** {
 102:c:\nxp\mcuxpressoide_10.2.1_795\ide\tools\arm-none-eabi\include\c++\7.2.1\arm-none-eabi\thumb\v7-m\bits\gthr-default.h ****   /* No thread support available */
 103:c:\nxp\mcuxpressoide_10.2.1_795\ide\tools\arm-none-eabi\include\c++\7.2.1\arm-none-eabi\thumb\v7-m\bits\gthr-default.h ****   /* Should we really exit the program */
 104:c:\nxp\mcuxpressoide_10.2.1_795\ide\tools\arm-none-eabi\include\c++\7.2.1\arm-none-eabi\thumb\v7-m\bits\gthr-default.h ****   /* exit (&__objc_thread_exit_status); */
 105:c:\nxp\mcuxpressoide_10.2.1_795\ide\tools\arm-none-eabi\include\c++\7.2.1\arm-none-eabi\thumb\v7-m\bits\gthr-default.h ****   return -1;
 106:c:\nxp\mcuxpressoide_10.2.1_795\ide\tools\arm-none-eabi\include\c++\7.2.1\arm-none-eabi\thumb\v7-m\bits\gthr-default.h **** }
 107:c:\nxp\mcuxpressoide_10.2.1_795\ide\tools\arm-none-eabi\include\c++\7.2.1\arm-none-eabi\thumb\v7-m\bits\gthr-default.h **** 
 108:c:\nxp\mcuxpressoide_10.2.1_795\ide\tools\arm-none-eabi\include\c++\7.2.1\arm-none-eabi\thumb\v7-m\bits\gthr-default.h **** /* Returns an integer value which uniquely describes a thread.  */
 109:c:\nxp\mcuxpressoide_10.2.1_795\ide\tools\arm-none-eabi\include\c++\7.2.1\arm-none-eabi\thumb\v7-m\bits\gthr-default.h **** static inline objc_thread_t
 110:c:\nxp\mcuxpressoide_10.2.1_795\ide\tools\arm-none-eabi\include\c++\7.2.1\arm-none-eabi\thumb\v7-m\bits\gthr-default.h **** __gthread_objc_thread_id (void)
 111:c:\nxp\mcuxpressoide_10.2.1_795\ide\tools\arm-none-eabi\include\c++\7.2.1\arm-none-eabi\thumb\v7-m\bits\gthr-default.h **** {
 112:c:\nxp\mcuxpressoide_10.2.1_795\ide\tools\arm-none-eabi\include\c++\7.2.1\arm-none-eabi\thumb\v7-m\bits\gthr-default.h ****   /* No thread support, use 1.  */
 113:c:\nxp\mcuxpressoide_10.2.1_795\ide\tools\arm-none-eabi\include\c++\7.2.1\arm-none-eabi\thumb\v7-m\bits\gthr-default.h ****   return (objc_thread_t) 1;
 114:c:\nxp\mcuxpressoide_10.2.1_795\ide\tools\arm-none-eabi\include\c++\7.2.1\arm-none-eabi\thumb\v7-m\bits\gthr-default.h **** }
 115:c:\nxp\mcuxpressoide_10.2.1_795\ide\tools\arm-none-eabi\include\c++\7.2.1\arm-none-eabi\thumb\v7-m\bits\gthr-default.h **** 
 116:c:\nxp\mcuxpressoide_10.2.1_795\ide\tools\arm-none-eabi\include\c++\7.2.1\arm-none-eabi\thumb\v7-m\bits\gthr-default.h **** /* Sets the thread's local storage pointer.  */
 117:c:\nxp\mcuxpressoide_10.2.1_795\ide\tools\arm-none-eabi\include\c++\7.2.1\arm-none-eabi\thumb\v7-m\bits\gthr-default.h **** static inline int
 118:c:\nxp\mcuxpressoide_10.2.1_795\ide\tools\arm-none-eabi\include\c++\7.2.1\arm-none-eabi\thumb\v7-m\bits\gthr-default.h **** __gthread_objc_thread_set_data (void *value)
 119:c:\nxp\mcuxpressoide_10.2.1_795\ide\tools\arm-none-eabi\include\c++\7.2.1\arm-none-eabi\thumb\v7-m\bits\gthr-default.h **** {
 120:c:\nxp\mcuxpressoide_10.2.1_795\ide\tools\arm-none-eabi\include\c++\7.2.1\arm-none-eabi\thumb\v7-m\bits\gthr-default.h ****   thread_local_storage = value;
 121:c:\nxp\mcuxpressoide_10.2.1_795\ide\tools\arm-none-eabi\include\c++\7.2.1\arm-none-eabi\thumb\v7-m\bits\gthr-default.h ****   return 0;
 122:c:\nxp\mcuxpressoide_10.2.1_795\ide\tools\arm-none-eabi\include\c++\7.2.1\arm-none-eabi\thumb\v7-m\bits\gthr-default.h **** }
 123:c:\nxp\mcuxpressoide_10.2.1_795\ide\tools\arm-none-eabi\include\c++\7.2.1\arm-none-eabi\thumb\v7-m\bits\gthr-default.h **** 
 124:c:\nxp\mcuxpressoide_10.2.1_795\ide\tools\arm-none-eabi\include\c++\7.2.1\arm-none-eabi\thumb\v7-m\bits\gthr-default.h **** /* Returns the thread's local storage pointer.  */
 125:c:\nxp\mcuxpressoide_10.2.1_795\ide\tools\arm-none-eabi\include\c++\7.2.1\arm-none-eabi\thumb\v7-m\bits\gthr-default.h **** static inline void *
 126:c:\nxp\mcuxpressoide_10.2.1_795\ide\tools\arm-none-eabi\include\c++\7.2.1\arm-none-eabi\thumb\v7-m\bits\gthr-default.h **** __gthread_objc_thread_get_data (void)
 127:c:\nxp\mcuxpressoide_10.2.1_795\ide\tools\arm-none-eabi\include\c++\7.2.1\arm-none-eabi\thumb\v7-m\bits\gthr-default.h **** {
 128:c:\nxp\mcuxpressoide_10.2.1_795\ide\tools\arm-none-eabi\include\c++\7.2.1\arm-none-eabi\thumb\v7-m\bits\gthr-default.h ****   return thread_local_storage;
 129:c:\nxp\mcuxpressoide_10.2.1_795\ide\tools\arm-none-eabi\include\c++\7.2.1\arm-none-eabi\thumb\v7-m\bits\gthr-default.h **** }
 130:c:\nxp\mcuxpressoide_10.2.1_795\ide\tools\arm-none-eabi\include\c++\7.2.1\arm-none-eabi\thumb\v7-m\bits\gthr-default.h **** 
 131:c:\nxp\mcuxpressoide_10.2.1_795\ide\tools\arm-none-eabi\include\c++\7.2.1\arm-none-eabi\thumb\v7-m\bits\gthr-default.h **** /* Backend mutex functions */
 132:c:\nxp\mcuxpressoide_10.2.1_795\ide\tools\arm-none-eabi\include\c++\7.2.1\arm-none-eabi\thumb\v7-m\bits\gthr-default.h **** 
 133:c:\nxp\mcuxpressoide_10.2.1_795\ide\tools\arm-none-eabi\include\c++\7.2.1\arm-none-eabi\thumb\v7-m\bits\gthr-default.h **** /* Allocate a mutex.  */
 134:c:\nxp\mcuxpressoide_10.2.1_795\ide\tools\arm-none-eabi\include\c++\7.2.1\arm-none-eabi\thumb\v7-m\bits\gthr-default.h **** static inline int
 135:c:\nxp\mcuxpressoide_10.2.1_795\ide\tools\arm-none-eabi\include\c++\7.2.1\arm-none-eabi\thumb\v7-m\bits\gthr-default.h **** __gthread_objc_mutex_allocate (objc_mutex_t mutex _GLIBCXX_UNUSED)
 136:c:\nxp\mcuxpressoide_10.2.1_795\ide\tools\arm-none-eabi\include\c++\7.2.1\arm-none-eabi\thumb\v7-m\bits\gthr-default.h **** {
 137:c:\nxp\mcuxpressoide_10.2.1_795\ide\tools\arm-none-eabi\include\c++\7.2.1\arm-none-eabi\thumb\v7-m\bits\gthr-default.h ****   return 0;
 138:c:\nxp\mcuxpressoide_10.2.1_795\ide\tools\arm-none-eabi\include\c++\7.2.1\arm-none-eabi\thumb\v7-m\bits\gthr-default.h **** }
 139:c:\nxp\mcuxpressoide_10.2.1_795\ide\tools\arm-none-eabi\include\c++\7.2.1\arm-none-eabi\thumb\v7-m\bits\gthr-default.h **** 
 140:c:\nxp\mcuxpressoide_10.2.1_795\ide\tools\arm-none-eabi\include\c++\7.2.1\arm-none-eabi\thumb\v7-m\bits\gthr-default.h **** /* Deallocate a mutex.  */
 141:c:\nxp\mcuxpressoide_10.2.1_795\ide\tools\arm-none-eabi\include\c++\7.2.1\arm-none-eabi\thumb\v7-m\bits\gthr-default.h **** static inline int
 142:c:\nxp\mcuxpressoide_10.2.1_795\ide\tools\arm-none-eabi\include\c++\7.2.1\arm-none-eabi\thumb\v7-m\bits\gthr-default.h **** __gthread_objc_mutex_deallocate (objc_mutex_t mutex _GLIBCXX_UNUSED)
 143:c:\nxp\mcuxpressoide_10.2.1_795\ide\tools\arm-none-eabi\include\c++\7.2.1\arm-none-eabi\thumb\v7-m\bits\gthr-default.h **** {
 144:c:\nxp\mcuxpressoide_10.2.1_795\ide\tools\arm-none-eabi\include\c++\7.2.1\arm-none-eabi\thumb\v7-m\bits\gthr-default.h ****   return 0;
ARM GAS  C:\Users\xavie\AppData\Local\Temp\cclTCAUq.s 			page 4


 145:c:\nxp\mcuxpressoide_10.2.1_795\ide\tools\arm-none-eabi\include\c++\7.2.1\arm-none-eabi\thumb\v7-m\bits\gthr-default.h **** }
 146:c:\nxp\mcuxpressoide_10.2.1_795\ide\tools\arm-none-eabi\include\c++\7.2.1\arm-none-eabi\thumb\v7-m\bits\gthr-default.h **** 
 147:c:\nxp\mcuxpressoide_10.2.1_795\ide\tools\arm-none-eabi\include\c++\7.2.1\arm-none-eabi\thumb\v7-m\bits\gthr-default.h **** /* Grab a lock on a mutex.  */
 148:c:\nxp\mcuxpressoide_10.2.1_795\ide\tools\arm-none-eabi\include\c++\7.2.1\arm-none-eabi\thumb\v7-m\bits\gthr-default.h **** static inline int
 149:c:\nxp\mcuxpressoide_10.2.1_795\ide\tools\arm-none-eabi\include\c++\7.2.1\arm-none-eabi\thumb\v7-m\bits\gthr-default.h **** __gthread_objc_mutex_lock (objc_mutex_t mutex _GLIBCXX_UNUSED)
 150:c:\nxp\mcuxpressoide_10.2.1_795\ide\tools\arm-none-eabi\include\c++\7.2.1\arm-none-eabi\thumb\v7-m\bits\gthr-default.h **** {
 151:c:\nxp\mcuxpressoide_10.2.1_795\ide\tools\arm-none-eabi\include\c++\7.2.1\arm-none-eabi\thumb\v7-m\bits\gthr-default.h ****   /* There can only be one thread, so we always get the lock */
 152:c:\nxp\mcuxpressoide_10.2.1_795\ide\tools\arm-none-eabi\include\c++\7.2.1\arm-none-eabi\thumb\v7-m\bits\gthr-default.h ****   return 0;
 153:c:\nxp\mcuxpressoide_10.2.1_795\ide\tools\arm-none-eabi\include\c++\7.2.1\arm-none-eabi\thumb\v7-m\bits\gthr-default.h **** }
 154:c:\nxp\mcuxpressoide_10.2.1_795\ide\tools\arm-none-eabi\include\c++\7.2.1\arm-none-eabi\thumb\v7-m\bits\gthr-default.h **** 
 155:c:\nxp\mcuxpressoide_10.2.1_795\ide\tools\arm-none-eabi\include\c++\7.2.1\arm-none-eabi\thumb\v7-m\bits\gthr-default.h **** /* Try to grab a lock on a mutex.  */
 156:c:\nxp\mcuxpressoide_10.2.1_795\ide\tools\arm-none-eabi\include\c++\7.2.1\arm-none-eabi\thumb\v7-m\bits\gthr-default.h **** static inline int
 157:c:\nxp\mcuxpressoide_10.2.1_795\ide\tools\arm-none-eabi\include\c++\7.2.1\arm-none-eabi\thumb\v7-m\bits\gthr-default.h **** __gthread_objc_mutex_trylock (objc_mutex_t mutex _GLIBCXX_UNUSED)
 158:c:\nxp\mcuxpressoide_10.2.1_795\ide\tools\arm-none-eabi\include\c++\7.2.1\arm-none-eabi\thumb\v7-m\bits\gthr-default.h **** {
 159:c:\nxp\mcuxpressoide_10.2.1_795\ide\tools\arm-none-eabi\include\c++\7.2.1\arm-none-eabi\thumb\v7-m\bits\gthr-default.h ****   /* There can only be one thread, so we always get the lock */
 160:c:\nxp\mcuxpressoide_10.2.1_795\ide\tools\arm-none-eabi\include\c++\7.2.1\arm-none-eabi\thumb\v7-m\bits\gthr-default.h ****   return 0;
 161:c:\nxp\mcuxpressoide_10.2.1_795\ide\tools\arm-none-eabi\include\c++\7.2.1\arm-none-eabi\thumb\v7-m\bits\gthr-default.h **** }
 162:c:\nxp\mcuxpressoide_10.2.1_795\ide\tools\arm-none-eabi\include\c++\7.2.1\arm-none-eabi\thumb\v7-m\bits\gthr-default.h **** 
 163:c:\nxp\mcuxpressoide_10.2.1_795\ide\tools\arm-none-eabi\include\c++\7.2.1\arm-none-eabi\thumb\v7-m\bits\gthr-default.h **** /* Unlock the mutex */
 164:c:\nxp\mcuxpressoide_10.2.1_795\ide\tools\arm-none-eabi\include\c++\7.2.1\arm-none-eabi\thumb\v7-m\bits\gthr-default.h **** static inline int
 165:c:\nxp\mcuxpressoide_10.2.1_795\ide\tools\arm-none-eabi\include\c++\7.2.1\arm-none-eabi\thumb\v7-m\bits\gthr-default.h **** __gthread_objc_mutex_unlock (objc_mutex_t mutex _GLIBCXX_UNUSED)
 166:c:\nxp\mcuxpressoide_10.2.1_795\ide\tools\arm-none-eabi\include\c++\7.2.1\arm-none-eabi\thumb\v7-m\bits\gthr-default.h **** {
 167:c:\nxp\mcuxpressoide_10.2.1_795\ide\tools\arm-none-eabi\include\c++\7.2.1\arm-none-eabi\thumb\v7-m\bits\gthr-default.h ****   return 0;
 168:c:\nxp\mcuxpressoide_10.2.1_795\ide\tools\arm-none-eabi\include\c++\7.2.1\arm-none-eabi\thumb\v7-m\bits\gthr-default.h **** }
 169:c:\nxp\mcuxpressoide_10.2.1_795\ide\tools\arm-none-eabi\include\c++\7.2.1\arm-none-eabi\thumb\v7-m\bits\gthr-default.h **** 
 170:c:\nxp\mcuxpressoide_10.2.1_795\ide\tools\arm-none-eabi\include\c++\7.2.1\arm-none-eabi\thumb\v7-m\bits\gthr-default.h **** /* Backend condition mutex functions */
 171:c:\nxp\mcuxpressoide_10.2.1_795\ide\tools\arm-none-eabi\include\c++\7.2.1\arm-none-eabi\thumb\v7-m\bits\gthr-default.h **** 
 172:c:\nxp\mcuxpressoide_10.2.1_795\ide\tools\arm-none-eabi\include\c++\7.2.1\arm-none-eabi\thumb\v7-m\bits\gthr-default.h **** /* Allocate a condition.  */
 173:c:\nxp\mcuxpressoide_10.2.1_795\ide\tools\arm-none-eabi\include\c++\7.2.1\arm-none-eabi\thumb\v7-m\bits\gthr-default.h **** static inline int
 174:c:\nxp\mcuxpressoide_10.2.1_795\ide\tools\arm-none-eabi\include\c++\7.2.1\arm-none-eabi\thumb\v7-m\bits\gthr-default.h **** __gthread_objc_condition_allocate (objc_condition_t condition _GLIBCXX_UNUSED)
 175:c:\nxp\mcuxpressoide_10.2.1_795\ide\tools\arm-none-eabi\include\c++\7.2.1\arm-none-eabi\thumb\v7-m\bits\gthr-default.h **** {
 176:c:\nxp\mcuxpressoide_10.2.1_795\ide\tools\arm-none-eabi\include\c++\7.2.1\arm-none-eabi\thumb\v7-m\bits\gthr-default.h ****   return 0;
 177:c:\nxp\mcuxpressoide_10.2.1_795\ide\tools\arm-none-eabi\include\c++\7.2.1\arm-none-eabi\thumb\v7-m\bits\gthr-default.h **** }
 178:c:\nxp\mcuxpressoide_10.2.1_795\ide\tools\arm-none-eabi\include\c++\7.2.1\arm-none-eabi\thumb\v7-m\bits\gthr-default.h **** 
 179:c:\nxp\mcuxpressoide_10.2.1_795\ide\tools\arm-none-eabi\include\c++\7.2.1\arm-none-eabi\thumb\v7-m\bits\gthr-default.h **** /* Deallocate a condition.  */
 180:c:\nxp\mcuxpressoide_10.2.1_795\ide\tools\arm-none-eabi\include\c++\7.2.1\arm-none-eabi\thumb\v7-m\bits\gthr-default.h **** static inline int
 181:c:\nxp\mcuxpressoide_10.2.1_795\ide\tools\arm-none-eabi\include\c++\7.2.1\arm-none-eabi\thumb\v7-m\bits\gthr-default.h **** __gthread_objc_condition_deallocate (objc_condition_t condition _GLIBCXX_UNUSED)
 182:c:\nxp\mcuxpressoide_10.2.1_795\ide\tools\arm-none-eabi\include\c++\7.2.1\arm-none-eabi\thumb\v7-m\bits\gthr-default.h **** {
 183:c:\nxp\mcuxpressoide_10.2.1_795\ide\tools\arm-none-eabi\include\c++\7.2.1\arm-none-eabi\thumb\v7-m\bits\gthr-default.h ****   return 0;
 184:c:\nxp\mcuxpressoide_10.2.1_795\ide\tools\arm-none-eabi\include\c++\7.2.1\arm-none-eabi\thumb\v7-m\bits\gthr-default.h **** }
 185:c:\nxp\mcuxpressoide_10.2.1_795\ide\tools\arm-none-eabi\include\c++\7.2.1\arm-none-eabi\thumb\v7-m\bits\gthr-default.h **** 
 186:c:\nxp\mcuxpressoide_10.2.1_795\ide\tools\arm-none-eabi\include\c++\7.2.1\arm-none-eabi\thumb\v7-m\bits\gthr-default.h **** /* Wait on the condition */
 187:c:\nxp\mcuxpressoide_10.2.1_795\ide\tools\arm-none-eabi\include\c++\7.2.1\arm-none-eabi\thumb\v7-m\bits\gthr-default.h **** static inline int
 188:c:\nxp\mcuxpressoide_10.2.1_795\ide\tools\arm-none-eabi\include\c++\7.2.1\arm-none-eabi\thumb\v7-m\bits\gthr-default.h **** __gthread_objc_condition_wait (objc_condition_t condition _GLIBCXX_UNUSED,
 189:c:\nxp\mcuxpressoide_10.2.1_795\ide\tools\arm-none-eabi\include\c++\7.2.1\arm-none-eabi\thumb\v7-m\bits\gthr-default.h **** 			       objc_mutex_t mutex _GLIBCXX_UNUSED)
 190:c:\nxp\mcuxpressoide_10.2.1_795\ide\tools\arm-none-eabi\include\c++\7.2.1\arm-none-eabi\thumb\v7-m\bits\gthr-default.h **** {
 191:c:\nxp\mcuxpressoide_10.2.1_795\ide\tools\arm-none-eabi\include\c++\7.2.1\arm-none-eabi\thumb\v7-m\bits\gthr-default.h ****   return 0;
 192:c:\nxp\mcuxpressoide_10.2.1_795\ide\tools\arm-none-eabi\include\c++\7.2.1\arm-none-eabi\thumb\v7-m\bits\gthr-default.h **** }
 193:c:\nxp\mcuxpressoide_10.2.1_795\ide\tools\arm-none-eabi\include\c++\7.2.1\arm-none-eabi\thumb\v7-m\bits\gthr-default.h **** 
 194:c:\nxp\mcuxpressoide_10.2.1_795\ide\tools\arm-none-eabi\include\c++\7.2.1\arm-none-eabi\thumb\v7-m\bits\gthr-default.h **** /* Wake up all threads waiting on this condition.  */
 195:c:\nxp\mcuxpressoide_10.2.1_795\ide\tools\arm-none-eabi\include\c++\7.2.1\arm-none-eabi\thumb\v7-m\bits\gthr-default.h **** static inline int
 196:c:\nxp\mcuxpressoide_10.2.1_795\ide\tools\arm-none-eabi\include\c++\7.2.1\arm-none-eabi\thumb\v7-m\bits\gthr-default.h **** __gthread_objc_condition_broadcast (objc_condition_t condition _GLIBCXX_UNUSED)
 197:c:\nxp\mcuxpressoide_10.2.1_795\ide\tools\arm-none-eabi\include\c++\7.2.1\arm-none-eabi\thumb\v7-m\bits\gthr-default.h **** {
 198:c:\nxp\mcuxpressoide_10.2.1_795\ide\tools\arm-none-eabi\include\c++\7.2.1\arm-none-eabi\thumb\v7-m\bits\gthr-default.h ****   return 0;
 199:c:\nxp\mcuxpressoide_10.2.1_795\ide\tools\arm-none-eabi\include\c++\7.2.1\arm-none-eabi\thumb\v7-m\bits\gthr-default.h **** }
 200:c:\nxp\mcuxpressoide_10.2.1_795\ide\tools\arm-none-eabi\include\c++\7.2.1\arm-none-eabi\thumb\v7-m\bits\gthr-default.h **** 
 201:c:\nxp\mcuxpressoide_10.2.1_795\ide\tools\arm-none-eabi\include\c++\7.2.1\arm-none-eabi\thumb\v7-m\bits\gthr-default.h **** /* Wake up one thread waiting on this condition.  */
ARM GAS  C:\Users\xavie\AppData\Local\Temp\cclTCAUq.s 			page 5


 202:c:\nxp\mcuxpressoide_10.2.1_795\ide\tools\arm-none-eabi\include\c++\7.2.1\arm-none-eabi\thumb\v7-m\bits\gthr-default.h **** static inline int
 203:c:\nxp\mcuxpressoide_10.2.1_795\ide\tools\arm-none-eabi\include\c++\7.2.1\arm-none-eabi\thumb\v7-m\bits\gthr-default.h **** __gthread_objc_condition_signal (objc_condition_t condition _GLIBCXX_UNUSED)
 204:c:\nxp\mcuxpressoide_10.2.1_795\ide\tools\arm-none-eabi\include\c++\7.2.1\arm-none-eabi\thumb\v7-m\bits\gthr-default.h **** {
 205:c:\nxp\mcuxpressoide_10.2.1_795\ide\tools\arm-none-eabi\include\c++\7.2.1\arm-none-eabi\thumb\v7-m\bits\gthr-default.h ****   return 0;
 206:c:\nxp\mcuxpressoide_10.2.1_795\ide\tools\arm-none-eabi\include\c++\7.2.1\arm-none-eabi\thumb\v7-m\bits\gthr-default.h **** }
 207:c:\nxp\mcuxpressoide_10.2.1_795\ide\tools\arm-none-eabi\include\c++\7.2.1\arm-none-eabi\thumb\v7-m\bits\gthr-default.h **** 
 208:c:\nxp\mcuxpressoide_10.2.1_795\ide\tools\arm-none-eabi\include\c++\7.2.1\arm-none-eabi\thumb\v7-m\bits\gthr-default.h **** #else /* _LIBOBJC */
 209:c:\nxp\mcuxpressoide_10.2.1_795\ide\tools\arm-none-eabi\include\c++\7.2.1\arm-none-eabi\thumb\v7-m\bits\gthr-default.h **** 
 210:c:\nxp\mcuxpressoide_10.2.1_795\ide\tools\arm-none-eabi\include\c++\7.2.1\arm-none-eabi\thumb\v7-m\bits\gthr-default.h **** static inline int
 211:c:\nxp\mcuxpressoide_10.2.1_795\ide\tools\arm-none-eabi\include\c++\7.2.1\arm-none-eabi\thumb\v7-m\bits\gthr-default.h **** __gthread_active_p (void)
 212:c:\nxp\mcuxpressoide_10.2.1_795\ide\tools\arm-none-eabi\include\c++\7.2.1\arm-none-eabi\thumb\v7-m\bits\gthr-default.h **** {
 213:c:\nxp\mcuxpressoide_10.2.1_795\ide\tools\arm-none-eabi\include\c++\7.2.1\arm-none-eabi\thumb\v7-m\bits\gthr-default.h ****   return 0;
 214:c:\nxp\mcuxpressoide_10.2.1_795\ide\tools\arm-none-eabi\include\c++\7.2.1\arm-none-eabi\thumb\v7-m\bits\gthr-default.h **** }
 215:c:\nxp\mcuxpressoide_10.2.1_795\ide\tools\arm-none-eabi\include\c++\7.2.1\arm-none-eabi\thumb\v7-m\bits\gthr-default.h **** 
 216:c:\nxp\mcuxpressoide_10.2.1_795\ide\tools\arm-none-eabi\include\c++\7.2.1\arm-none-eabi\thumb\v7-m\bits\gthr-default.h **** static inline int
 217:c:\nxp\mcuxpressoide_10.2.1_795\ide\tools\arm-none-eabi\include\c++\7.2.1\arm-none-eabi\thumb\v7-m\bits\gthr-default.h **** __gthread_once (__gthread_once_t *__once _GLIBCXX_UNUSED, void (*__func) (void) _GLIBCXX_UNUSED)
 218:c:\nxp\mcuxpressoide_10.2.1_795\ide\tools\arm-none-eabi\include\c++\7.2.1\arm-none-eabi\thumb\v7-m\bits\gthr-default.h **** {
 219:c:\nxp\mcuxpressoide_10.2.1_795\ide\tools\arm-none-eabi\include\c++\7.2.1\arm-none-eabi\thumb\v7-m\bits\gthr-default.h ****   return 0;
 220:c:\nxp\mcuxpressoide_10.2.1_795\ide\tools\arm-none-eabi\include\c++\7.2.1\arm-none-eabi\thumb\v7-m\bits\gthr-default.h **** }
 221:c:\nxp\mcuxpressoide_10.2.1_795\ide\tools\arm-none-eabi\include\c++\7.2.1\arm-none-eabi\thumb\v7-m\bits\gthr-default.h **** 
 222:c:\nxp\mcuxpressoide_10.2.1_795\ide\tools\arm-none-eabi\include\c++\7.2.1\arm-none-eabi\thumb\v7-m\bits\gthr-default.h **** static inline int _GLIBCXX_UNUSED
 223:c:\nxp\mcuxpressoide_10.2.1_795\ide\tools\arm-none-eabi\include\c++\7.2.1\arm-none-eabi\thumb\v7-m\bits\gthr-default.h **** __gthread_key_create (__gthread_key_t *__key _GLIBCXX_UNUSED, void (*__func) (void *) _GLIBCXX_UNUS
 224:c:\nxp\mcuxpressoide_10.2.1_795\ide\tools\arm-none-eabi\include\c++\7.2.1\arm-none-eabi\thumb\v7-m\bits\gthr-default.h **** {
 225:c:\nxp\mcuxpressoide_10.2.1_795\ide\tools\arm-none-eabi\include\c++\7.2.1\arm-none-eabi\thumb\v7-m\bits\gthr-default.h ****   return 0;
 226:c:\nxp\mcuxpressoide_10.2.1_795\ide\tools\arm-none-eabi\include\c++\7.2.1\arm-none-eabi\thumb\v7-m\bits\gthr-default.h **** }
 227:c:\nxp\mcuxpressoide_10.2.1_795\ide\tools\arm-none-eabi\include\c++\7.2.1\arm-none-eabi\thumb\v7-m\bits\gthr-default.h **** 
 228:c:\nxp\mcuxpressoide_10.2.1_795\ide\tools\arm-none-eabi\include\c++\7.2.1\arm-none-eabi\thumb\v7-m\bits\gthr-default.h **** static int _GLIBCXX_UNUSED
 229:c:\nxp\mcuxpressoide_10.2.1_795\ide\tools\arm-none-eabi\include\c++\7.2.1\arm-none-eabi\thumb\v7-m\bits\gthr-default.h **** __gthread_key_delete (__gthread_key_t __key _GLIBCXX_UNUSED)
 230:c:\nxp\mcuxpressoide_10.2.1_795\ide\tools\arm-none-eabi\include\c++\7.2.1\arm-none-eabi\thumb\v7-m\bits\gthr-default.h **** {
  31              		.loc 1 230 0
  32              		.cfi_startproc
  33              		@ args = 0, pretend = 0, frame = 8
  34              		@ frame_needed = 1, uses_anonymous_args = 0
  35              		@ link register save eliminated.
  36 0000 80B4     		push	{r7}
  37              		.cfi_def_cfa_offset 4
  38              		.cfi_offset 7, -4
  39 0002 83B0     		sub	sp, sp, #12
  40              		.cfi_def_cfa_offset 16
  41 0004 00AF     		add	r7, sp, #0
  42              		.cfi_def_cfa_register 7
  43 0006 7860     		str	r0, [r7, #4]
 231:c:\nxp\mcuxpressoide_10.2.1_795\ide\tools\arm-none-eabi\include\c++\7.2.1\arm-none-eabi\thumb\v7-m\bits\gthr-default.h ****   return 0;
  44              		.loc 1 231 0
  45 0008 0023     		movs	r3, #0
 232:c:\nxp\mcuxpressoide_10.2.1_795\ide\tools\arm-none-eabi\include\c++\7.2.1\arm-none-eabi\thumb\v7-m\bits\gthr-default.h **** }
  46              		.loc 1 232 0
  47 000a 1846     		mov	r0, r3
  48 000c 0C37     		adds	r7, r7, #12
  49              		.cfi_def_cfa_offset 4
  50 000e BD46     		mov	sp, r7
  51              		.cfi_def_cfa_register 13
  52              		@ sp needed
  53 0010 80BC     		pop	{r7}
  54              		.cfi_restore 7
  55              		.cfi_def_cfa_offset 0
  56 0012 7047     		bx	lr
ARM GAS  C:\Users\xavie\AppData\Local\Temp\cclTCAUq.s 			page 6


  57              		.cfi_endproc
  58              	.LFE599:
  60              		.section	.text._ZN7IRenderD2Ev,"axG",%progbits,_ZN7IRenderD5Ev,comdat
  61              		.align	1
  62              		.weak	_ZN7IRenderD2Ev
  63              		.syntax unified
  64              		.thumb
  65              		.thumb_func
  66              		.fpu softvfp
  68              	_ZN7IRenderD2Ev:
  69              	.LFB957:
  70              		.file 2 "C:\\Users\\xavie\\Cegep\\Processeurs\\HeroOrZero\\inc/interfaces.h"
   1:C:\Users\xavie\Cegep\Processeurs\HeroOrZero\inc\interfaces.h **** #ifndef INTERFACES_H_
   2:C:\Users\xavie\Cegep\Processeurs\HeroOrZero\inc\interfaces.h **** #define INTERFACES_H_
   3:C:\Users\xavie\Cegep\Processeurs\HeroOrZero\inc\interfaces.h **** #include "xav_data.h"
   4:C:\Users\xavie\Cegep\Processeurs\HeroOrZero\inc\interfaces.h **** 
   5:C:\Users\xavie\Cegep\Processeurs\HeroOrZero\inc\interfaces.h **** /* IRender is the interface that all classes that intend to draw something on the screen
   6:C:\Users\xavie\Cegep\Processeurs\HeroOrZero\inc\interfaces.h ****  * must inherit. Each subclass must implement the Draw() method. This function must be
   7:C:\Users\xavie\Cegep\Processeurs\HeroOrZero\inc\interfaces.h ****  * implement in such a way that the Renderer::AddToFrame method can push a pointer to the
   8:C:\Users\xavie\Cegep\Processeurs\HeroOrZero\inc\interfaces.h ****  * object as well as the copy of the drawBox of this object, declared here, to two vectors.
   9:C:\Users\xavie\Cegep\Processeurs\HeroOrZero\inc\interfaces.h ****  * The Renderer::Update method will iterate through these vectors to render the next frame.
  10:C:\Users\xavie\Cegep\Processeurs\HeroOrZero\inc\interfaces.h ****  * Alternatively, IRender child classes can also be added to a special "callback" vector
  11:C:\Users\xavie\Cegep\Processeurs\HeroOrZero\inc\interfaces.h ****  * using the Renderer::AddToCallback method, which will render two frames after the function
  12:C:\Users\xavie\Cegep\Processeurs\HeroOrZero\inc\interfaces.h ****  * is called.                                                                             */
  13:C:\Users\xavie\Cegep\Processeurs\HeroOrZero\inc\interfaces.h **** class IRender{
  14:C:\Users\xavie\Cegep\Processeurs\HeroOrZero\inc\interfaces.h **** public:
  15:C:\Users\xavie\Cegep\Processeurs\HeroOrZero\inc\interfaces.h **** 	rectangle_t drawBox;
  16:C:\Users\xavie\Cegep\Processeurs\HeroOrZero\inc\interfaces.h **** 	virtual void Draw(rectangle_t drawBox) = 0;
  17:C:\Users\xavie\Cegep\Processeurs\HeroOrZero\inc\interfaces.h **** 	virtual ~IRender() {}
  71              		.loc 2 17 0
  72              		.cfi_startproc
  73              		@ args = 0, pretend = 0, frame = 8
  74              		@ frame_needed = 1, uses_anonymous_args = 0
  75              		@ link register save eliminated.
  76 0000 80B4     		push	{r7}
  77              		.cfi_def_cfa_offset 4
  78              		.cfi_offset 7, -4
  79 0002 83B0     		sub	sp, sp, #12
  80              		.cfi_def_cfa_offset 16
  81 0004 00AF     		add	r7, sp, #0
  82              		.cfi_def_cfa_register 7
  83 0006 7860     		str	r0, [r7, #4]
  84              	.LBB2:
  85              		.loc 2 17 0
  86 0008 044A     		ldr	r2, .L5
  87 000a 7B68     		ldr	r3, [r7, #4]
  88 000c 1A60     		str	r2, [r3]
  89              	.LBE2:
  90 000e 7B68     		ldr	r3, [r7, #4]
  91 0010 1846     		mov	r0, r3
  92 0012 0C37     		adds	r7, r7, #12
  93              		.cfi_def_cfa_offset 4
  94 0014 BD46     		mov	sp, r7
  95              		.cfi_def_cfa_register 13
  96              		@ sp needed
  97 0016 80BC     		pop	{r7}
  98              		.cfi_restore 7
ARM GAS  C:\Users\xavie\AppData\Local\Temp\cclTCAUq.s 			page 7


  99              		.cfi_def_cfa_offset 0
 100 0018 7047     		bx	lr
 101              	.L6:
 102 001a 00BF     		.align	2
 103              	.L5:
 104 001c 08000000 		.word	_ZTV7IRender+8
 105              		.cfi_endproc
 106              	.LFE957:
 108              		.weak	_ZN7IRenderD1Ev
 109              		.thumb_set _ZN7IRenderD1Ev,_ZN7IRenderD2Ev
 110              		.section	.text._ZN7IRenderD0Ev,"axG",%progbits,_ZN7IRenderD5Ev,comdat
 111              		.align	1
 112              		.weak	_ZN7IRenderD0Ev
 113              		.syntax unified
 114              		.thumb
 115              		.thumb_func
 116              		.fpu softvfp
 118              	_ZN7IRenderD0Ev:
 119              	.LFB959:
 120              		.loc 2 17 0
 121              		.cfi_startproc
 122              		@ args = 0, pretend = 0, frame = 8
 123              		@ frame_needed = 1, uses_anonymous_args = 0
 124 0000 80B5     		push	{r7, lr}
 125              		.cfi_def_cfa_offset 8
 126              		.cfi_offset 7, -8
 127              		.cfi_offset 14, -4
 128 0002 82B0     		sub	sp, sp, #8
 129              		.cfi_def_cfa_offset 16
 130 0004 00AF     		add	r7, sp, #0
 131              		.cfi_def_cfa_register 7
 132 0006 7860     		str	r0, [r7, #4]
 133              		.loc 2 17 0
 134 0008 7868     		ldr	r0, [r7, #4]
 135 000a FFF7FEFF 		bl	_ZN7IRenderD1Ev
 136 000e 1421     		movs	r1, #20
 137 0010 7868     		ldr	r0, [r7, #4]
 138 0012 FFF7FEFF 		bl	_ZdlPvj
 139 0016 7B68     		ldr	r3, [r7, #4]
 140 0018 1846     		mov	r0, r3
 141 001a 0837     		adds	r7, r7, #8
 142              		.cfi_def_cfa_offset 8
 143 001c BD46     		mov	sp, r7
 144              		.cfi_def_cfa_register 13
 145              		@ sp needed
 146 001e 80BD     		pop	{r7, pc}
 147              		.cfi_endproc
 148              	.LFE959:
 150              		.section	.text._ZN7Default14OnUserInteractEv,"ax",%progbits
 151              		.align	1
 152              		.global	_ZN7Default14OnUserInteractEv
 153              		.syntax unified
 154              		.thumb
 155              		.thumb_func
 156              		.fpu softvfp
 158              	_ZN7Default14OnUserInteractEv:
 159              	.LFB1618:
ARM GAS  C:\Users\xavie\AppData\Local\Temp\cclTCAUq.s 			page 8


 160              		.file 3 "../src/map_objects.cpp"
   1:../src/map_objects.cpp **** #include "map_objects.h"
   2:../src/map_objects.cpp **** #include "gui.h"
   3:../src/map_objects.cpp **** #include "ps2controller.h"
   4:../src/map_objects.cpp **** #include "board.h"
   5:../src/map_objects.cpp **** 
   6:../src/map_objects.cpp **** void Default::OnUserInteract()
   7:../src/map_objects.cpp **** {
 161              		.loc 3 7 0
 162              		.cfi_startproc
 163              		@ args = 0, pretend = 0, frame = 8
 164              		@ frame_needed = 1, uses_anonymous_args = 0
 165              		@ link register save eliminated.
 166 0000 80B4     		push	{r7}
 167              		.cfi_def_cfa_offset 4
 168              		.cfi_offset 7, -4
 169 0002 83B0     		sub	sp, sp, #12
 170              		.cfi_def_cfa_offset 16
 171 0004 00AF     		add	r7, sp, #0
 172              		.cfi_def_cfa_register 7
 173 0006 7860     		str	r0, [r7, #4]
   8:../src/map_objects.cpp **** 
   9:../src/map_objects.cpp **** }
 174              		.loc 3 9 0
 175 0008 00BF     		nop
 176 000a 0C37     		adds	r7, r7, #12
 177              		.cfi_def_cfa_offset 4
 178 000c BD46     		mov	sp, r7
 179              		.cfi_def_cfa_register 13
 180              		@ sp needed
 181 000e 80BC     		pop	{r7}
 182              		.cfi_restore 7
 183              		.cfi_def_cfa_offset 0
 184 0010 7047     		bx	lr
 185              		.cfi_endproc
 186              	.LFE1618:
 188              		.section	.text._ZN4City14OnUserInteractEv,"ax",%progbits
 189              		.align	1
 190              		.global	_ZN4City14OnUserInteractEv
 191              		.syntax unified
 192              		.thumb
 193              		.thumb_func
 194              		.fpu softvfp
 196              	_ZN4City14OnUserInteractEv:
 197              	.LFB1619:
  10:../src/map_objects.cpp **** 
  11:../src/map_objects.cpp **** void City::OnUserInteract()
  12:../src/map_objects.cpp **** {
 198              		.loc 3 12 0
 199              		.cfi_startproc
 200              		@ args = 0, pretend = 0, frame = 8
 201              		@ frame_needed = 1, uses_anonymous_args = 0
 202              		@ link register save eliminated.
 203 0000 80B4     		push	{r7}
 204              		.cfi_def_cfa_offset 4
 205              		.cfi_offset 7, -4
 206 0002 83B0     		sub	sp, sp, #12
ARM GAS  C:\Users\xavie\AppData\Local\Temp\cclTCAUq.s 			page 9


 207              		.cfi_def_cfa_offset 16
 208 0004 00AF     		add	r7, sp, #0
 209              		.cfi_def_cfa_register 7
 210 0006 7860     		str	r0, [r7, #4]
  13:../src/map_objects.cpp **** 
  14:../src/map_objects.cpp **** }
 211              		.loc 3 14 0
 212 0008 00BF     		nop
 213 000a 0C37     		adds	r7, r7, #12
 214              		.cfi_def_cfa_offset 4
 215 000c BD46     		mov	sp, r7
 216              		.cfi_def_cfa_register 13
 217              		@ sp needed
 218 000e 80BC     		pop	{r7}
 219              		.cfi_restore 7
 220              		.cfi_def_cfa_offset 0
 221 0010 7047     		bx	lr
 222              		.cfi_endproc
 223              	.LFE1619:
 225              		.section	.text._ZN12ResourceMine14OnUserInteractEv,"ax",%progbits
 226              		.align	1
 227              		.global	_ZN12ResourceMine14OnUserInteractEv
 228              		.syntax unified
 229              		.thumb
 230              		.thumb_func
 231              		.fpu softvfp
 233              	_ZN12ResourceMine14OnUserInteractEv:
 234              	.LFB1620:
  15:../src/map_objects.cpp **** 
  16:../src/map_objects.cpp **** void ResourceMine::OnUserInteract()
  17:../src/map_objects.cpp **** {
 235              		.loc 3 17 0
 236              		.cfi_startproc
 237              		@ args = 0, pretend = 0, frame = 136
 238              		@ frame_needed = 1, uses_anonymous_args = 0
 239 0000 80B5     		push	{r7, lr}
 240              		.cfi_def_cfa_offset 8
 241              		.cfi_offset 7, -8
 242              		.cfi_offset 14, -4
 243 0002 A2B0     		sub	sp, sp, #136
 244              		.cfi_def_cfa_offset 144
 245 0004 00AF     		add	r7, sp, #0
 246              		.cfi_def_cfa_register 7
 247 0006 7860     		str	r0, [r7, #4]
  18:../src/map_objects.cpp **** 	bool exit = false;
 248              		.loc 3 18 0
 249 0008 0023     		movs	r3, #0
 250 000a 87F88730 		strb	r3, [r7, #135]
  19:../src/map_objects.cpp **** 	ps2_inputs_t userInput;
  20:../src/map_objects.cpp **** 	ps2_inputs_t keyState;
  21:../src/map_objects.cpp **** 	ResourceMineMenu GUI;
 251              		.loc 3 21 0
 252 000e 07F10C03 		add	r3, r7, #12
 253 0012 1846     		mov	r0, r3
 254 0014 FFF7FEFF 		bl	_ZN16ResourceMineMenuC1Ev
  22:../src/map_objects.cpp **** 
  23:../src/map_objects.cpp **** 	GUI.selection = 0;
ARM GAS  C:\Users\xavie\AppData\Local\Temp\cclTCAUq.s 			page 10


 255              		.loc 3 23 0
 256 0018 0023     		movs	r3, #0
 257 001a 87F82630 		strb	r3, [r7, #38]
  24:../src/map_objects.cpp **** 
  25:../src/map_objects.cpp **** 	GUI.displayedVal = data;
 258              		.loc 3 25 0
 259 001e 7B68     		ldr	r3, [r7, #4]
 260 0020 07F12800 		add	r0, r7, #40
 261 0024 0433     		adds	r3, r3, #4
 262 0026 4C22     		movs	r2, #76
 263 0028 1946     		mov	r1, r3
 264 002a FFF7FEFF 		bl	memcpy
 265              	.L16:
  26:../src/map_objects.cpp **** 
  27:../src/map_objects.cpp **** 	while(!exit){
 266              		.loc 3 27 0
 267 002e 97F88730 		ldrb	r3, [r7, #135]	@ zero_extendqisi2
 268 0032 002B     		cmp	r3, #0
 269 0034 35D1     		bne	.L12
  28:../src/map_objects.cpp **** 		if(LPC_TIMER0->TC >= 1600000){
 270              		.loc 3 28 0
 271 0036 4FF04023 		mov	r3, #1073758208
 272 003a 9B68     		ldr	r3, [r3, #8]
 273 003c 1D4A     		ldr	r2, .L17
 274 003e 9342     		cmp	r3, r2
 275 0040 8CBF     		ite	hi
 276 0042 0123     		movhi	r3, #1
 277 0044 0023     		movls	r3, #0
 278 0046 DBB2     		uxtb	r3, r3
 279 0048 002B     		cmp	r3, #0
 280 004a 09D0     		beq	.L13
  29:../src/map_objects.cpp **** 			LPC_TIMER0->TC = 0;
 281              		.loc 3 29 0
 282 004c 4FF04023 		mov	r3, #1073758208
 283 0050 0022     		movs	r2, #0
 284 0052 9A60     		str	r2, [r3, #8]
  30:../src/map_objects.cpp **** 			PollController(0, &userInput);
 285              		.loc 3 30 0
 286 0054 07F17C03 		add	r3, r7, #124
 287 0058 1946     		mov	r1, r3
 288 005a 0020     		movs	r0, #0
 289 005c FFF7FEFF 		bl	_Z14PollControllerbP12ps2_inputs_t
 290              	.L13:
  31:../src/map_objects.cpp **** 		}
  32:../src/map_objects.cpp **** 
  33:../src/map_objects.cpp **** 		if(userInput.Button.X && keyState.Button.X == RELEASED){
 291              		.loc 3 33 0
 292 0060 97F87C30 		ldrb	r3, [r7, #124]	@ zero_extendqisi2
 293 0064 03F00203 		and	r3, r3, #2
 294 0068 DBB2     		uxtb	r3, r3
 295 006a 002B     		cmp	r3, #0
 296 006c 0DD0     		beq	.L14
 297              		.loc 3 33 0 is_stmt 0 discriminator 1
 298 006e 97F87430 		ldrb	r3, [r7, #116]	@ zero_extendqisi2
 299 0072 03F00203 		and	r3, r3, #2
 300 0076 DBB2     		uxtb	r3, r3
 301 0078 002B     		cmp	r3, #0
ARM GAS  C:\Users\xavie\AppData\Local\Temp\cclTCAUq.s 			page 11


 302 007a 06D1     		bne	.L14
  34:../src/map_objects.cpp **** 			keyState.Button.X = PRESSED;
 303              		.loc 3 34 0 is_stmt 1
 304 007c 97F87430 		ldrb	r3, [r7, #116]
 305 0080 43F00203 		orr	r3, r3, #2
 306 0084 87F87430 		strb	r3, [r7, #116]
 307 0088 05E0     		b	.L15
 308              	.L14:
  35:../src/map_objects.cpp **** 		}
  36:../src/map_objects.cpp **** 		else
  37:../src/map_objects.cpp **** 			keyState.Button.X = RELEASED;
 309              		.loc 3 37 0
 310 008a 97F87430 		ldrb	r3, [r7, #116]
 311 008e 6FF34103 		bfc	r3, #1, #1
 312 0092 87F87430 		strb	r3, [r7, #116]
 313              	.L15:
  38:../src/map_objects.cpp **** 
  39:../src/map_objects.cpp **** 		GUI.ProcessGraphics();
 314              		.loc 3 39 0
 315 0096 07F10C03 		add	r3, r7, #12
 316 009a 1846     		mov	r0, r3
 317 009c FFF7FEFF 		bl	_ZN16ResourceMineMenu15ProcessGraphicsEv
  27:../src/map_objects.cpp **** 		if(LPC_TIMER0->TC >= 1600000){
 318              		.loc 3 27 0
 319 00a0 C5E7     		b	.L16
 320              	.L12:
  21:../src/map_objects.cpp **** 
 321              		.loc 3 21 0
 322 00a2 07F10C03 		add	r3, r7, #12
 323 00a6 1846     		mov	r0, r3
 324 00a8 FFF7FEFF 		bl	_ZN16ResourceMineMenuD1Ev
  40:../src/map_objects.cpp **** 	}
  41:../src/map_objects.cpp **** }
 325              		.loc 3 41 0
 326 00ac 00BF     		nop
 327 00ae 8837     		adds	r7, r7, #136
 328              		.cfi_def_cfa_offset 8
 329 00b0 BD46     		mov	sp, r7
 330              		.cfi_def_cfa_register 13
 331              		@ sp needed
 332 00b2 80BD     		pop	{r7, pc}
 333              	.L18:
 334              		.align	2
 335              	.L17:
 336 00b4 FF691800 		.word	1599999
 337              		.cfi_endproc
 338              	.LFE1620:
 340              		.global	_ZTV12ResourceMine
 341              		.section	.rodata._ZTV12ResourceMine,"a",%progbits
 342              		.align	2
 345              	_ZTV12ResourceMine:
 346 0000 00000000 		.word	0
 347 0004 00000000 		.word	0
 348 0008 00000000 		.word	_ZN12ResourceMine14OnUserInteractEv
 349              		.global	_ZTV4City
 350              		.section	.rodata._ZTV4City,"a",%progbits
 351              		.align	2
ARM GAS  C:\Users\xavie\AppData\Local\Temp\cclTCAUq.s 			page 12


 354              	_ZTV4City:
 355 0000 00000000 		.word	0
 356 0004 00000000 		.word	0
 357 0008 00000000 		.word	_ZN4City14OnUserInteractEv
 358              		.global	_ZTV7Default
 359              		.section	.rodata._ZTV7Default,"a",%progbits
 360              		.align	2
 363              	_ZTV7Default:
 364 0000 00000000 		.word	0
 365 0004 00000000 		.word	0
 366 0008 00000000 		.word	_ZN7Default14OnUserInteractEv
 367              		.weak	_ZTV7IRender
 368              		.section	.rodata._ZTV7IRender,"aG",%progbits,_ZTV7IRender,comdat
 369              		.align	2
 372              	_ZTV7IRender:
 373 0000 00000000 		.word	0
 374 0004 00000000 		.word	0
 375 0008 00000000 		.word	__cxa_pure_virtual
 376 000c 00000000 		.word	0
 377 0010 00000000 		.word	0
 378              		.section	.text._ZN16ResourceMineMenuD2Ev,"axG",%progbits,_ZN16ResourceMineMenuD5Ev,comdat
 379              		.align	1
 380              		.weak	_ZN16ResourceMineMenuD2Ev
 381              		.syntax unified
 382              		.thumb
 383              		.thumb_func
 384              		.fpu softvfp
 386              	_ZN16ResourceMineMenuD2Ev:
 387              	.LFB2079:
 388              		.file 4 "C:\\Users\\xavie\\Cegep\\Processeurs\\HeroOrZero\\inc/gui.h"
   1:C:\Users\xavie\Cegep\Processeurs\HeroOrZero\inc\gui.h **** #ifndef GUI_H_
   2:C:\Users\xavie\Cegep\Processeurs\HeroOrZero\inc\gui.h **** #define GUI_H_
   3:C:\Users\xavie\Cegep\Processeurs\HeroOrZero\inc\gui.h **** #include <stdint.h>
   4:C:\Users\xavie\Cegep\Processeurs\HeroOrZero\inc\gui.h **** #include "xav_data.h"
   5:C:\Users\xavie\Cegep\Processeurs\HeroOrZero\inc\gui.h **** #include "renderer.h"
   6:C:\Users\xavie\Cegep\Processeurs\HeroOrZero\inc\gui.h **** 
   7:C:\Users\xavie\Cegep\Processeurs\HeroOrZero\inc\gui.h **** class Tile;
   8:C:\Users\xavie\Cegep\Processeurs\HeroOrZero\inc\gui.h **** 
   9:C:\Users\xavie\Cegep\Processeurs\HeroOrZero\inc\gui.h **** class UserInterface{
  10:C:\Users\xavie\Cegep\Processeurs\HeroOrZero\inc\gui.h **** protected:
  11:C:\Users\xavie\Cegep\Processeurs\HeroOrZero\inc\gui.h **** 	uint8_t sWidth, sHeight;	// size of the background table, in 20px wide section
  12:C:\Users\xavie\Cegep\Processeurs\HeroOrZero\inc\gui.h **** 	coords_pair_t pos;			// position of the origin
  13:C:\Users\xavie\Cegep\Processeurs\HeroOrZero\inc\gui.h **** public:
  14:C:\Users\xavie\Cegep\Processeurs\HeroOrZero\inc\gui.h **** 	uint8_t selection = 0;
  15:C:\Users\xavie\Cegep\Processeurs\HeroOrZero\inc\gui.h **** };
  16:C:\Users\xavie\Cegep\Processeurs\HeroOrZero\inc\gui.h **** 
  17:C:\Users\xavie\Cegep\Processeurs\HeroOrZero\inc\gui.h **** class ResourceGUI : public UserInterface, IRender{
  18:C:\Users\xavie\Cegep\Processeurs\HeroOrZero\inc\gui.h **** private:
  19:C:\Users\xavie\Cegep\Processeurs\HeroOrZero\inc\gui.h **** 	resources_t totalAmount, gain, newGainValues;
  20:C:\Users\xavie\Cegep\Processeurs\HeroOrZero\inc\gui.h **** 	bool gainHasChanged = false;
  21:C:\Users\xavie\Cegep\Processeurs\HeroOrZero\inc\gui.h **** 
  22:C:\Users\xavie\Cegep\Processeurs\HeroOrZero\inc\gui.h **** 	void Draw(rectangle_t drawBox);
  23:C:\Users\xavie\Cegep\Processeurs\HeroOrZero\inc\gui.h **** public:
  24:C:\Users\xavie\Cegep\Processeurs\HeroOrZero\inc\gui.h **** 	/* Draws the graphic box with it's icons */
  25:C:\Users\xavie\Cegep\Processeurs\HeroOrZero\inc\gui.h **** 	void Load();
  26:C:\Users\xavie\Cegep\Processeurs\HeroOrZero\inc\gui.h **** 	/* Update displayed values */
  27:C:\Users\xavie\Cegep\Processeurs\HeroOrZero\inc\gui.h **** 	void Update();
ARM GAS  C:\Users\xavie\AppData\Local\Temp\cclTCAUq.s 			page 13


  28:C:\Users\xavie\Cegep\Processeurs\HeroOrZero\inc\gui.h **** 	/* Change the amount of resources gained every 5 seconds */
  29:C:\Users\xavie\Cegep\Processeurs\HeroOrZero\inc\gui.h **** 	void ChangeGain(resources_t newValues);
  30:C:\Users\xavie\Cegep\Processeurs\HeroOrZero\inc\gui.h **** 	/* Set the initial values to be displayed on game startup */
  31:C:\Users\xavie\Cegep\Processeurs\HeroOrZero\inc\gui.h **** 	void SetInitialValues(resources_t total, resources_t gain);
  32:C:\Users\xavie\Cegep\Processeurs\HeroOrZero\inc\gui.h **** 	/* Initialize new resource bar */
  33:C:\Users\xavie\Cegep\Processeurs\HeroOrZero\inc\gui.h **** 	ResourceGUI(uint8_t x, uint8_t y);
  34:C:\Users\xavie\Cegep\Processeurs\HeroOrZero\inc\gui.h **** };
  35:C:\Users\xavie\Cegep\Processeurs\HeroOrZero\inc\gui.h **** 
  36:C:\Users\xavie\Cegep\Processeurs\HeroOrZero\inc\gui.h **** class ResourceMineMenu : public UserInterface, IRender{
 389              		.loc 4 36 0
 390              		.cfi_startproc
 391              		@ args = 0, pretend = 0, frame = 8
 392              		@ frame_needed = 1, uses_anonymous_args = 0
 393 0000 80B5     		push	{r7, lr}
 394              		.cfi_def_cfa_offset 8
 395              		.cfi_offset 7, -8
 396              		.cfi_offset 14, -4
 397 0002 82B0     		sub	sp, sp, #8
 398              		.cfi_def_cfa_offset 16
 399 0004 00AF     		add	r7, sp, #0
 400              		.cfi_def_cfa_register 7
 401 0006 7860     		str	r0, [r7, #4]
 402              	.LBB3:
 403              		.loc 4 36 0
 404 0008 054A     		ldr	r2, .L21
 405 000a 7B68     		ldr	r3, [r7, #4]
 406 000c 1A60     		str	r2, [r3]
 407 000e 7B68     		ldr	r3, [r7, #4]
 408 0010 1846     		mov	r0, r3
 409 0012 FFF7FEFF 		bl	_ZN7IRenderD2Ev
 410              	.LBE3:
 411 0016 7B68     		ldr	r3, [r7, #4]
 412 0018 1846     		mov	r0, r3
 413 001a 0837     		adds	r7, r7, #8
 414              		.cfi_def_cfa_offset 8
 415 001c BD46     		mov	sp, r7
 416              		.cfi_def_cfa_register 13
 417              		@ sp needed
 418 001e 80BD     		pop	{r7, pc}
 419              	.L22:
 420              		.align	2
 421              	.L21:
 422 0020 08000000 		.word	_ZTV16ResourceMineMenu+8
 423              		.cfi_endproc
 424              	.LFE2079:
 426              		.weak	_ZN16ResourceMineMenuD1Ev
 427              		.thumb_set _ZN16ResourceMineMenuD1Ev,_ZN16ResourceMineMenuD2Ev
 428              		.section	.text._ZN16ResourceMineMenuD0Ev,"axG",%progbits,_ZN16ResourceMineMenuD5Ev,comdat
 429              		.align	1
 430              		.weak	_ZN16ResourceMineMenuD0Ev
 431              		.syntax unified
 432              		.thumb
 433              		.thumb_func
 434              		.fpu softvfp
 436              	_ZN16ResourceMineMenuD0Ev:
 437              	.LFB2081:
 438              		.loc 4 36 0
ARM GAS  C:\Users\xavie\AppData\Local\Temp\cclTCAUq.s 			page 14


 439              		.cfi_startproc
 440              		@ args = 0, pretend = 0, frame = 8
 441              		@ frame_needed = 1, uses_anonymous_args = 0
 442 0000 80B5     		push	{r7, lr}
 443              		.cfi_def_cfa_offset 8
 444              		.cfi_offset 7, -8
 445              		.cfi_offset 14, -4
 446 0002 82B0     		sub	sp, sp, #8
 447              		.cfi_def_cfa_offset 16
 448 0004 00AF     		add	r7, sp, #0
 449              		.cfi_def_cfa_register 7
 450 0006 7860     		str	r0, [r7, #4]
 451              		.loc 4 36 0
 452 0008 7868     		ldr	r0, [r7, #4]
 453 000a FFF7FEFF 		bl	_ZN16ResourceMineMenuD1Ev
 454 000e 6821     		movs	r1, #104
 455 0010 7868     		ldr	r0, [r7, #4]
 456 0012 FFF7FEFF 		bl	_ZdlPvj
 457 0016 7B68     		ldr	r3, [r7, #4]
 458 0018 1846     		mov	r0, r3
 459 001a 0837     		adds	r7, r7, #8
 460              		.cfi_def_cfa_offset 8
 461 001c BD46     		mov	sp, r7
 462              		.cfi_def_cfa_register 13
 463              		@ sp needed
 464 001e 80BD     		pop	{r7, pc}
 465              		.cfi_endproc
 466              	.LFE2081:
 468              		.text
 469              	.Letext0:
 470              		.file 5 "c:\\nxp\\mcuxpressoide_10.2.1_795\\ide\\tools\\arm-none-eabi\\include\\machine\\_default_
 471              		.file 6 "c:\\nxp\\mcuxpressoide_10.2.1_795\\ide\\tools\\arm-none-eabi\\include\\sys\\_stdint.h"
 472              		.file 7 "c:\\nxp\\mcuxpressoide_10.2.1_795\\ide\\tools\\arm-none-eabi\\include\\stdint.h"
 473              		.file 8 "c:\\nxp\\mcuxpressoide_10.2.1_795\\ide\\tools\\arm-none-eabi\\include\\c++\\7.2.1\\type_t
 474              		.file 9 "c:\\nxp\\mcuxpressoide_10.2.1_795\\ide\\tools\\arm-none-eabi\\include\\c++\\7.2.1\\arm-no
 475              		.file 10 "c:\\nxp\\mcuxpressoide_10.2.1_795\\ide\\tools\\arm-none-eabi\\include\\c++\\7.2.1\\bits\
 476              		.file 11 "c:\\nxp\\mcuxpressoide_10.2.1_795\\ide\\tools\\arm-none-eabi\\include\\c++\\7.2.1\\debug
 477              		.file 12 "c:\\nxp\\mcuxpressoide_10.2.1_795\\ide\\tools\\arm-none-eabi\\include\\c++\\7.2.1\\cwcha
 478              		.file 13 "c:\\nxp\\mcuxpressoide_10.2.1_795\\ide\\tools\\arm-none-eabi\\include\\c++\\7.2.1\\cstdi
 479              		.file 14 "c:\\nxp\\mcuxpressoide_10.2.1_795\\ide\\tools\\arm-none-eabi\\include\\c++\\7.2.1\\bits\
 480              		.file 15 "c:\\nxp\\mcuxpressoide_10.2.1_795\\ide\\tools\\arm-none-eabi\\include\\c++\\7.2.1\\new"
 481              		.file 16 "c:\\nxp\\mcuxpressoide_10.2.1_795\\ide\\tools\\arm-none-eabi\\include\\c++\\7.2.1\\cloca
 482              		.file 17 "c:\\nxp\\mcuxpressoide_10.2.1_795\\ide\\tools\\arm-none-eabi\\include\\c++\\7.2.1\\cctyp
 483              		.file 18 "c:\\nxp\\mcuxpressoide_10.2.1_795\\ide\\tools\\arm-none-eabi\\include\\c++\\7.2.1\\bits\
 484              		.file 19 "c:\\nxp\\mcuxpressoide_10.2.1_795\\ide\\tools\\arm-none-eabi\\include\\c++\\7.2.1\\cstdl
 485              		.file 20 "c:\\nxp\\mcuxpressoide_10.2.1_795\\ide\\tools\\arm-none-eabi\\include\\c++\\7.2.1\\cstdi
 486              		.file 21 "c:\\nxp\\mcuxpressoide_10.2.1_795\\ide\\tools\\arm-none-eabi\\include\\c++\\7.2.1\\bits\
 487              		.file 22 "c:\\nxp\\mcuxpressoide_10.2.1_795\\ide\\tools\\arm-none-eabi\\include\\c++\\7.2.1\\bits\
 488              		.file 23 "c:\\nxp\\mcuxpressoide_10.2.1_795\\ide\\tools\\arm-none-eabi\\include\\c++\\7.2.1\\ext\\
 489              		.file 24 "c:\\nxp\\mcuxpressoide_10.2.1_795\\ide\\tools\\arm-none-eabi\\include\\c++\\7.2.1\\ext\\
 490              		.file 25 "c:\\nxp\\mcuxpressoide_10.2.1_795\\ide\\tools\\lib\\gcc\\arm-none-eabi\\7.2.1\\include\\
 491              		.file 26 "c:\\nxp\\mcuxpressoide_10.2.1_795\\ide\\tools\\arm-none-eabi\\include\\sys\\lock.h"
 492              		.file 27 "c:\\nxp\\mcuxpressoide_10.2.1_795\\ide\\tools\\arm-none-eabi\\include\\sys\\_types.h"
 493              		.file 28 "c:\\nxp\\mcuxpressoide_10.2.1_795\\ide\\tools\\arm-none-eabi\\include\\sys\\reent.h"
 494              		.file 29 "c:\\nxp\\mcuxpressoide_10.2.1_795\\ide\\tools\\lib\\gcc\\arm-none-eabi\\7.2.1\\include\\
 495              		.file 30 "<built-in>"
 496              		.file 31 "c:\\nxp\\mcuxpressoide_10.2.1_795\\ide\\tools\\arm-none-eabi\\include\\wchar.h"
ARM GAS  C:\Users\xavie\AppData\Local\Temp\cclTCAUq.s 			page 15


 497              		.file 32 "c:\\nxp\\mcuxpressoide_10.2.1_795\\ide\\tools\\arm-none-eabi\\include\\locale.h"
 498              		.file 33 "c:\\nxp\\mcuxpressoide_10.2.1_795\\ide\\tools\\arm-none-eabi\\include\\ctype.h"
 499              		.file 34 "c:\\nxp\\mcuxpressoide_10.2.1_795\\ide\\tools\\arm-none-eabi\\include\\stdlib.h"
 500              		.file 35 "c:\\nxp\\mcuxpressoide_10.2.1_795\\ide\\tools\\arm-none-eabi\\include\\stdio.h"
 501              		.file 36 "c:\\nxp\\mcuxpressoide_10.2.1_795\\ide\\tools\\arm-none-eabi\\include\\sys\\errno.h"
 502              		.file 37 "C:\\Users\\xavie\\Cegep\\Processeurs\\HeroOrZero\\inc/xav_data.h"
 503              		.file 38 "C:\\Users\\xavie\\Cegep\\Processeurs\\HeroOrZero\\inc/ps2controller.h"
 504              		.file 39 "C:\\Users\\xavie\\Cegep\\Processeurs\\lpc_chip_175x_6x\\inc/core_cm3.h"
 505              		.file 40 "C:\\Users\\xavie\\Cegep\\Processeurs\\lpc_chip_175x_6x\\inc/chip.h"
 506              		.file 41 "C:\\Users\\xavie\\Cegep\\Processeurs\\lpc_chip_175x_6x\\inc/timer_17xx_40xx.h"
 507              		.file 42 "C:\\Users\\xavie\\Cegep\\Processeurs\\HeroOrZero\\inc/map_objects.h"
ARM GAS  C:\Users\xavie\AppData\Local\Temp\cclTCAUq.s 			page 16

