ARM GAS  C:\Users\xavie\AppData\Local\Temp\ccd88E2b.s 			page 1


   1              		.cpu cortex-m3
   2              		.eabi_attribute 20, 1
   3              		.eabi_attribute 21, 1
   4              		.eabi_attribute 23, 3
   5              		.eabi_attribute 24, 1
   6              		.eabi_attribute 25, 1
   7              		.eabi_attribute 26, 1
   8              		.eabi_attribute 30, 6
   9              		.eabi_attribute 34, 1
  10              		.eabi_attribute 18, 4
  11              		.file	"sysinit.c"
  12              		.text
  13              	.Ltext0:
  14              		.cfi_sections	.debug_frame
  15              		.section	.text.SystemInit,"ax",%progbits
  16              		.align	1
  17              		.global	SystemInit
  18              		.syntax unified
  19              		.thumb
  20              		.thumb_func
  21              		.fpu softvfp
  23              	SystemInit:
  24              	.LFB316:
  25              		.file 1 "../src/sysinit.c"
   1:../src/sysinit.c **** /*
   2:../src/sysinit.c ****  * @brief Common SystemInit function for LPC17xx/40xx chips
   3:../src/sysinit.c ****  *
   4:../src/sysinit.c ****  * @note
   5:../src/sysinit.c ****  * Copyright(C) NXP Semiconductors, 2013-14
   6:../src/sysinit.c ****  * All rights reserved.
   7:../src/sysinit.c ****  *
   8:../src/sysinit.c ****  * @par
   9:../src/sysinit.c ****  * Software that is described herein is for illustrative purposes only
  10:../src/sysinit.c ****  * which provides customers with programming information regarding the
  11:../src/sysinit.c ****  * LPC products.  This software is supplied "AS IS" without any warranties of
  12:../src/sysinit.c ****  * any kind, and NXP Semiconductors and its licensor disclaim any and
  13:../src/sysinit.c ****  * all warranties, express or implied, including all implied warranties of
  14:../src/sysinit.c ****  * merchantability, fitness for a particular purpose and non-infringement of
  15:../src/sysinit.c ****  * intellectual property rights.  NXP Semiconductors assumes no responsibility
  16:../src/sysinit.c ****  * or liability for the use of the software, conveys no license or rights under any
  17:../src/sysinit.c ****  * patent, copyright, mask work right, or any other intellectual property rights in
  18:../src/sysinit.c ****  * or to any products. NXP Semiconductors reserves the right to make changes
  19:../src/sysinit.c ****  * in the software without notification. NXP Semiconductors also makes no
  20:../src/sysinit.c ****  * representation or warranty that such application will be suitable for the
  21:../src/sysinit.c ****  * specified use without further testing or modification.
  22:../src/sysinit.c ****  *
  23:../src/sysinit.c ****  * @par
  24:../src/sysinit.c ****  * Permission to use, copy, modify, and distribute this software and its
  25:../src/sysinit.c ****  * documentation is hereby granted, under NXP Semiconductors' and its
  26:../src/sysinit.c ****  * licensor's relevant copyrights in the software, without fee, provided that it
  27:../src/sysinit.c ****  * is used in conjunction with NXP Semiconductors microcontrollers.  This
  28:../src/sysinit.c ****  * copyright, permission, and disclaimer notice must appear in all copies of
  29:../src/sysinit.c ****  * this code.
  30:../src/sysinit.c ****  */
  31:../src/sysinit.c **** 
  32:../src/sysinit.c ****  #if defined(NO_BOARD_LIB)
  33:../src/sysinit.c ****  #include "chip.h"
ARM GAS  C:\Users\xavie\AppData\Local\Temp\ccd88E2b.s 			page 2


  34:../src/sysinit.c ****  #else
  35:../src/sysinit.c ****  #include "board.h"
  36:../src/sysinit.c ****  #endif
  37:../src/sysinit.c **** 
  38:../src/sysinit.c **** /*****************************************************************************
  39:../src/sysinit.c ****  * Private types/enumerations/variables
  40:../src/sysinit.c ****  ****************************************************************************/
  41:../src/sysinit.c **** 
  42:../src/sysinit.c **** /*****************************************************************************
  43:../src/sysinit.c ****  * Public types/enumerations/variables
  44:../src/sysinit.c ****  ****************************************************************************/
  45:../src/sysinit.c **** 
  46:../src/sysinit.c **** #if defined(NO_BOARD_LIB)
  47:../src/sysinit.c **** const uint32_t OscRateIn = 12000000;
  48:../src/sysinit.c **** const uint32_t RTCOscRateIn = 32768;
  49:../src/sysinit.c **** #endif
  50:../src/sysinit.c **** 
  51:../src/sysinit.c **** /*****************************************************************************
  52:../src/sysinit.c ****  * Private functions
  53:../src/sysinit.c ****  ****************************************************************************/
  54:../src/sysinit.c **** 
  55:../src/sysinit.c **** /*****************************************************************************
  56:../src/sysinit.c ****  * Public functions
  57:../src/sysinit.c ****  ****************************************************************************/
  58:../src/sysinit.c **** 
  59:../src/sysinit.c **** /* Set up and initialize hardware prior to call to main */
  60:../src/sysinit.c **** void SystemInit(void)
  61:../src/sysinit.c **** {
  26              		.loc 1 61 0
  27              		.cfi_startproc
  28              		@ args = 0, pretend = 0, frame = 8
  29              		@ frame_needed = 1, uses_anonymous_args = 0
  30 0000 80B5     		push	{r7, lr}
  31              		.cfi_def_cfa_offset 8
  32              		.cfi_offset 7, -8
  33              		.cfi_offset 14, -4
  34 0002 82B0     		sub	sp, sp, #8
  35              		.cfi_def_cfa_offset 16
  36 0004 00AF     		add	r7, sp, #0
  37              		.cfi_def_cfa_register 7
  62:../src/sysinit.c **** 	unsigned int *pSCB_VTOR = (unsigned int *) 0xE000ED08;
  38              		.loc 1 62 0
  39 0006 054B     		ldr	r3, .L2
  40 0008 7B60     		str	r3, [r7, #4]
  63:../src/sysinit.c **** 
  64:../src/sysinit.c **** #if defined(__IAR_SYSTEMS_ICC__)
  65:../src/sysinit.c **** 	extern void *__vector_table;
  66:../src/sysinit.c **** 
  67:../src/sysinit.c **** 	*pSCB_VTOR = (unsigned int) &__vector_table;
  68:../src/sysinit.c **** #elif defined(__CODE_RED)
  69:../src/sysinit.c **** 	extern void *g_pfnVectors;
  70:../src/sysinit.c **** 
  71:../src/sysinit.c **** 	*pSCB_VTOR = (unsigned int) &g_pfnVectors;
  41              		.loc 1 71 0
  42 000a 054A     		ldr	r2, .L2+4
  43 000c 7B68     		ldr	r3, [r7, #4]
  44 000e 1A60     		str	r2, [r3]
ARM GAS  C:\Users\xavie\AppData\Local\Temp\ccd88E2b.s 			page 3


  72:../src/sysinit.c **** #elif defined(__ARMCC_VERSION)
  73:../src/sysinit.c **** 	extern void *__Vectors;
  74:../src/sysinit.c **** 
  75:../src/sysinit.c **** 	*pSCB_VTOR = (unsigned int) &__Vectors;
  76:../src/sysinit.c **** #endif
  77:../src/sysinit.c **** 
  78:../src/sysinit.c **** #if defined(__FPU_PRESENT) && __FPU_PRESENT == 1
  79:../src/sysinit.c **** 	fpuInit();
  80:../src/sysinit.c **** #endif
  81:../src/sysinit.c **** 
  82:../src/sysinit.c **** #if defined(NO_BOARD_LIB)
  83:../src/sysinit.c **** 	/* Chip specific SystemInit */
  84:../src/sysinit.c **** 	Chip_SystemInit();
  85:../src/sysinit.c **** #else
  86:../src/sysinit.c **** 	/* Setup system clocking and muxing */
  87:../src/sysinit.c **** 	Board_SystemInit();
  45              		.loc 1 87 0
  46 0010 FFF7FEFF 		bl	Board_SystemInit
  88:../src/sysinit.c **** #endif
  89:../src/sysinit.c **** }
  47              		.loc 1 89 0
  48 0014 00BF     		nop
  49 0016 0837     		adds	r7, r7, #8
  50              		.cfi_def_cfa_offset 8
  51 0018 BD46     		mov	sp, r7
  52              		.cfi_def_cfa_register 13
  53              		@ sp needed
  54 001a 80BD     		pop	{r7, pc}
  55              	.L3:
  56              		.align	2
  57              	.L2:
  58 001c 08ED00E0 		.word	-536810232
  59 0020 00000000 		.word	g_pfnVectors
  60              		.cfi_endproc
  61              	.LFE316:
  63              		.text
  64              	.Letext0:
  65              		.file 2 "c:\\nxp\\mcuxpressoide_10.2.1_795\\ide\\tools\\arm-none-eabi\\include\\machine\\_default_
  66              		.file 3 "c:\\nxp\\mcuxpressoide_10.2.1_795\\ide\\tools\\arm-none-eabi\\include\\sys\\_stdint.h"
  67              		.file 4 "C:\\Users\\xavie\\Cegep\\Processeurs\\lpc_chip_175x_6x\\inc/core_cm3.h"
  68              		.file 5 "C:\\Users\\xavie\\Cegep\\Processeurs\\lpc_chip_175x_6x\\inc/chip.h"
  69              		.file 6 "c:\\nxp\\mcuxpressoide_10.2.1_795\\ide\\tools\\arm-none-eabi\\include\\sys\\lock.h"
  70              		.file 7 "c:\\nxp\\mcuxpressoide_10.2.1_795\\ide\\tools\\arm-none-eabi\\include\\sys\\_types.h"
  71              		.file 8 "c:\\nxp\\mcuxpressoide_10.2.1_795\\ide\\tools\\lib\\gcc\\arm-none-eabi\\7.2.1\\include\\s
  72              		.file 9 "c:\\nxp\\mcuxpressoide_10.2.1_795\\ide\\tools\\arm-none-eabi\\include\\sys\\reent.h"
ARM GAS  C:\Users\xavie\AppData\Local\Temp\ccd88E2b.s 			page 4

